; Listing generated by Microsoft (R) Optimizing Compiler Version 19.38.33145.0 

include listing.inc

INCLUDELIB LIBCMT
INCLUDELIB OLDNAMES

PUBLIC	_Avx2WmemEnabledWeakValue
;	COMDAT _Avx2WmemEnabledWeakValue
_BSS	SEGMENT
_Avx2WmemEnabledWeakValue DD 01H DUP (?)
_BSS	ENDS
CONST	SEGMENT
$SG60283 DB	'Hello', 00H
?_Fake_alloc@std@@3U_Fake_allocator@1@B	ORG $+1		; std::_Fake_alloc
CONST	ENDS
PUBLIC	??2@YAPEAX_KPEAX@Z				; operator new
PUBLIC	??0exception@std@@QEAA@QEBD@Z			; std::exception::exception
PUBLIC	??0exception@std@@QEAA@QEBDH@Z			; std::exception::exception
PUBLIC	??0exception@std@@QEAA@AEBV01@@Z		; std::exception::exception
PUBLIC	??1exception@std@@UEAA@XZ			; std::exception::~exception
PUBLIC	?what@exception@std@@UEBAPEBDXZ			; std::exception::what
PUBLIC	??_Gexception@std@@UEAAPEAXI@Z			; std::exception::`scalar deleting destructor'
PUBLIC	??0bad_alloc@std@@AEAA@QEBD@Z			; std::bad_alloc::bad_alloc
PUBLIC	??1bad_alloc@std@@UEAA@XZ			; std::bad_alloc::~bad_alloc
PUBLIC	??0bad_alloc@std@@QEAA@AEBV01@@Z		; std::bad_alloc::bad_alloc
PUBLIC	??_Gbad_alloc@std@@UEAAPEAXI@Z			; std::bad_alloc::`scalar deleting destructor'
PUBLIC	??0bad_array_new_length@std@@QEAA@XZ		; std::bad_array_new_length::bad_array_new_length
PUBLIC	??1bad_array_new_length@std@@UEAA@XZ		; std::bad_array_new_length::~bad_array_new_length
PUBLIC	??0bad_array_new_length@std@@QEAA@AEBV01@@Z	; std::bad_array_new_length::bad_array_new_length
PUBLIC	??_Gbad_array_new_length@std@@UEAAPEAXI@Z	; std::bad_array_new_length::`scalar deleting destructor'
PUBLIC	?_Throw_bad_array_new_length@std@@YAXXZ		; std::_Throw_bad_array_new_length
PUBLIC	?max@?$numeric_limits@_J@std@@SA_JXZ		; std::numeric_limits<__int64>::max
PUBLIC	?_Allocate@_Default_allocate_traits@std@@SAPEAX_K@Z ; std::_Default_allocate_traits::_Allocate
PUBLIC	?_Adjust_manually_vector_aligned@std@@YAXAEAPEAXAEA_K@Z ; std::_Adjust_manually_vector_aligned
PUBLIC	?_Orphan_all@_Container_base0@std@@QEAAXXZ	; std::_Container_base0::_Orphan_all
PUBLIC	?_Swap_proxy_and_iterators@_Container_base0@std@@QEAAXAEAU12@@Z ; std::_Container_base0::_Swap_proxy_and_iterators
PUBLIC	?_Alloc_proxy@_Container_base0@std@@QEAAXAEBU_Fake_allocator@2@@Z ; std::_Container_base0::_Alloc_proxy
PUBLIC	??0_Fake_proxy_ptr_impl@std@@QEAA@AEBU_Fake_allocator@1@AEBU_Container_base0@1@@Z ; std::_Fake_proxy_ptr_impl::_Fake_proxy_ptr_impl
PUBLIC	?_Release@_Fake_proxy_ptr_impl@std@@QEAAXXZ	; std::_Fake_proxy_ptr_impl::_Release
PUBLIC	?copy@?$_Char_traits@DH@std@@SAPEADQEADQEBD_K@Z	; std::_Char_traits<char,int>::copy
PUBLIC	?move@?$_Char_traits@DH@std@@SAPEADQEADQEBD_K@Z	; std::_Char_traits<char,int>::move
PUBLIC	?length@?$_Narrow_char_traits@DH@std@@SA_KQEBD@Z ; std::_Narrow_char_traits<char,int>::length
PUBLIC	?assign@?$_Narrow_char_traits@DH@std@@SAXAEADAEBD@Z ; std::_Narrow_char_traits<char,int>::assign
PUBLIC	?to_int_type@?$_Narrow_char_traits@DH@std@@SAHD@Z ; std::_Narrow_char_traits<char,int>::to_int_type
PUBLIC	?eq_int_type@?$_Narrow_char_traits@DH@std@@SA_NHH@Z ; std::_Narrow_char_traits<char,int>::eq_int_type
PUBLIC	?eof@?$_Narrow_char_traits@DH@std@@SAHXZ	; std::_Narrow_char_traits<char,int>::eof
PUBLIC	?_Xlen_string@std@@YAXXZ			; std::_Xlen_string
PUBLIC	??0?$allocator@D@std@@QEAA@XZ			; std::allocator<char>::allocator<char>
PUBLIC	?deallocate@?$allocator@D@std@@QEAAXQEAD_K@Z	; std::allocator<char>::deallocate
PUBLIC	?allocate@?$allocator@D@std@@QEAAPEAD_K@Z	; std::allocator<char>::allocate
PUBLIC	?max_size@?$_Default_allocator_traits@V?$allocator@D@std@@@std@@SA_KAEBV?$allocator@D@2@@Z ; std::_Default_allocator_traits<std::allocator<char> >::max_size
PUBLIC	?select_on_container_copy_construction@?$_Default_allocator_traits@V?$allocator@D@std@@@std@@SA?AV?$allocator@D@2@AEBV32@@Z ; std::_Default_allocator_traits<std::allocator<char> >::select_on_container_copy_construction
PUBLIC	??0?$_String_val@U?$_Simple_types@D@std@@@std@@QEAA@XZ ; std::_String_val<std::_Simple_types<char> >::_String_val<std::_Simple_types<char> >
PUBLIC	?_Myptr@?$_String_val@U?$_Simple_types@D@std@@@std@@QEAAPEADXZ ; std::_String_val<std::_Simple_types<char> >::_Myptr
PUBLIC	?_Myptr@?$_String_val@U?$_Simple_types@D@std@@@std@@QEBAPEBDXZ ; std::_String_val<std::_Simple_types<char> >::_Myptr
PUBLIC	?_Large_mode_engaged@?$_String_val@U?$_Simple_types@D@std@@@std@@QEBA_NXZ ; std::_String_val<std::_Simple_types<char> >::_Large_mode_engaged
PUBLIC	?_Activate_SSO_buffer@?$_String_val@U?$_Simple_types@D@std@@@std@@QEAAXXZ ; std::_String_val<std::_Simple_types<char> >::_Activate_SSO_buffer
PUBLIC	??0_Bxty@?$_String_val@U?$_Simple_types@D@std@@@std@@QEAA@XZ ; std::_String_val<std::_Simple_types<char> >::_Bxty::_Bxty
PUBLIC	??1_Bxty@?$_String_val@U?$_Simple_types@D@std@@@std@@QEAA@XZ ; std::_String_val<std::_Simple_types<char> >::_Bxty::~_Bxty
PUBLIC	??1?$_String_val@U?$_Simple_types@D@std@@@std@@QEAA@XZ ; std::_String_val<std::_Simple_types<char> >::~_String_val<std::_Simple_types<char> >
PUBLIC	??0?$basic_string@DU?$char_traits@D@std@@V?$allocator@D@2@@std@@QEAA@AEBV01@@Z ; std::basic_string<char,std::char_traits<char>,std::allocator<char> >::basic_string<char,std::char_traits<char>,std::allocator<char> >
PUBLIC	??0?$basic_string@DU?$char_traits@D@std@@V?$allocator@D@2@@std@@QEAA@QEBD_K@Z ; std::basic_string<char,std::char_traits<char>,std::allocator<char> >::basic_string<char,std::char_traits<char>,std::allocator<char> >
PUBLIC	??0?$basic_string@DU?$char_traits@D@std@@V?$allocator@D@2@@std@@QEAA@QEBD@Z ; std::basic_string<char,std::char_traits<char>,std::allocator<char> >::basic_string<char,std::char_traits<char>,std::allocator<char> >
PUBLIC	?_Deallocate_for_capacity@?$basic_string@DU?$char_traits@D@std@@V?$allocator@D@2@@std@@CAXAEAV?$allocator@D@2@QEAD_K@Z ; std::basic_string<char,std::char_traits<char>,std::allocator<char> >::_Deallocate_for_capacity
PUBLIC	??0?$basic_string@DU?$char_traits@D@std@@V?$allocator@D@2@@std@@QEAA@$$QEAV01@@Z ; std::basic_string<char,std::char_traits<char>,std::allocator<char> >::basic_string<char,std::char_traits<char>,std::allocator<char> >
PUBLIC	?_Memcpy_val_from@?$basic_string@DU?$char_traits@D@std@@V?$allocator@D@2@@std@@AEAAXAEBV12@@Z ; std::basic_string<char,std::char_traits<char>,std::allocator<char> >::_Memcpy_val_from
PUBLIC	?_Take_contents@?$basic_string@DU?$char_traits@D@std@@V?$allocator@D@2@@std@@AEAAXAEAV12@@Z ; std::basic_string<char,std::char_traits<char>,std::allocator<char> >::_Take_contents
PUBLIC	??1?$basic_string@DU?$char_traits@D@std@@V?$allocator@D@2@@std@@QEAA@XZ ; std::basic_string<char,std::char_traits<char>,std::allocator<char> >::~basic_string<char,std::char_traits<char>,std::allocator<char> >
PUBLIC	?append@?$basic_string@DU?$char_traits@D@std@@V?$allocator@D@2@@std@@QEAAAEAV12@AEBV12@@Z ; std::basic_string<char,std::char_traits<char>,std::allocator<char> >::append
PUBLIC	?append@?$basic_string@DU?$char_traits@D@std@@V?$allocator@D@2@@std@@QEAAAEAV12@QEBD_K@Z ; std::basic_string<char,std::char_traits<char>,std::allocator<char> >::append
PUBLIC	?append@?$basic_string@DU?$char_traits@D@std@@V?$allocator@D@2@@std@@QEAAAEAV12@QEBD@Z ; std::basic_string<char,std::char_traits<char>,std::allocator<char> >::append
PUBLIC	?c_str@?$basic_string@DU?$char_traits@D@std@@V?$allocator@D@2@@std@@QEBAPEBDXZ ; std::basic_string<char,std::char_traits<char>,std::allocator<char> >::c_str
PUBLIC	?max_size@?$basic_string@DU?$char_traits@D@std@@V?$allocator@D@2@@std@@QEBA_KXZ ; std::basic_string<char,std::char_traits<char>,std::allocator<char> >::max_size
PUBLIC	?empty@?$basic_string@DU?$char_traits@D@std@@V?$allocator@D@2@@std@@QEBA_NXZ ; std::basic_string<char,std::char_traits<char>,std::allocator<char> >::empty
PUBLIC	?_Calculate_growth@?$basic_string@DU?$char_traits@D@std@@V?$allocator@D@2@@std@@CA_K_K00@Z ; std::basic_string<char,std::char_traits<char>,std::allocator<char> >::_Calculate_growth
PUBLIC	?_Calculate_growth@?$basic_string@DU?$char_traits@D@std@@V?$allocator@D@2@@std@@AEBA_K_K@Z ; std::basic_string<char,std::char_traits<char>,std::allocator<char> >::_Calculate_growth
PUBLIC	?_Tidy_init@?$basic_string@DU?$char_traits@D@std@@V?$allocator@D@2@@std@@AEAAXXZ ; std::basic_string<char,std::char_traits<char>,std::allocator<char> >::_Tidy_init
PUBLIC	?_Tidy_deallocate@?$basic_string@DU?$char_traits@D@std@@V?$allocator@D@2@@std@@AEAAXXZ ; std::basic_string<char,std::char_traits<char>,std::allocator<char> >::_Tidy_deallocate
PUBLIC	?_Swap_proxy_and_iterators@?$basic_string@DU?$char_traits@D@std@@V?$allocator@D@2@@std@@AEAAXAEAV12@@Z ; std::basic_string<char,std::char_traits<char>,std::allocator<char> >::_Swap_proxy_and_iterators
PUBLIC	?_Getal@?$basic_string@DU?$char_traits@D@std@@V?$allocator@D@2@@std@@AEAAAEAV?$allocator@D@2@XZ ; std::basic_string<char,std::char_traits<char>,std::allocator<char> >::_Getal
PUBLIC	?_Getal@?$basic_string@DU?$char_traits@D@std@@V?$allocator@D@2@@std@@AEBAAEBV?$allocator@D@2@XZ ; std::basic_string<char,std::char_traits<char>,std::allocator<char> >::_Getal
PUBLIC	?_Get_first@?$_Compressed_pair@V?$allocator@D@std@@V?$_String_val@U?$_Simple_types@D@std@@@2@$00@std@@QEAAAEAV?$allocator@D@2@XZ ; std::_Compressed_pair<std::allocator<char>,std::_String_val<std::_Simple_types<char> >,1>::_Get_first
PUBLIC	?_Get_first@?$_Compressed_pair@V?$allocator@D@std@@V?$_String_val@U?$_Simple_types@D@std@@@2@$00@std@@QEBAAEBV?$allocator@D@2@XZ ; std::_Compressed_pair<std::allocator<char>,std::_String_val<std::_Simple_types<char> >,1>::_Get_first
PUBLIC	??1?$_Compressed_pair@V?$allocator@D@std@@V?$_String_val@U?$_Simple_types@D@std@@@2@$00@std@@QEAA@XZ ; std::_Compressed_pair<std::allocator<char>,std::_String_val<std::_Simple_types<char> >,1>::~_Compressed_pair<std::allocator<char>,std::_String_val<std::_Simple_types<char> >,1>
PUBLIC	??0runtime_error@std@@QEAA@AEBV?$basic_string@DU?$char_traits@D@std@@V?$allocator@D@2@@1@@Z ; std::runtime_error::runtime_error
PUBLIC	??1runtime_error@std@@UEAA@XZ			; std::runtime_error::~runtime_error
PUBLIC	??0runtime_error@std@@QEAA@AEBV01@@Z		; std::runtime_error::runtime_error
PUBLIC	??_Gruntime_error@std@@UEAAPEAXI@Z		; std::runtime_error::`scalar deleting destructor'
PUBLIC	?iostream_category@std@@YAAEBVerror_category@1@XZ ; std::iostream_category
PUBLIC	??1error_category@std@@UEAA@XZ			; std::error_category::~error_category
PUBLIC	?default_error_condition@error_category@std@@UEBA?AVerror_condition@2@H@Z ; std::error_category::default_error_condition
PUBLIC	?equivalent@error_category@std@@UEBA_NHAEBVerror_condition@2@@Z ; std::error_category::equivalent
PUBLIC	?equivalent@error_category@std@@UEBA_NAEBVerror_code@2@H@Z ; std::error_category::equivalent
PUBLIC	??8error_category@std@@QEBA_NAEBV01@@Z		; std::error_category::operator==
PUBLIC	??$_Bit_cast@_KT_Addr_storage@error_category@std@@$0A@@std@@YA_KAEBT_Addr_storage@error_category@0@@Z ; std::_Bit_cast<unsigned __int64,std::error_category::_Addr_storage,0>
PUBLIC	??0error_code@std@@QEAA@HAEBVerror_category@1@@Z ; std::error_code::error_code
PUBLIC	?value@error_code@std@@QEBAHXZ			; std::error_code::value
PUBLIC	?category@error_code@std@@QEBAAEBVerror_category@2@XZ ; std::error_code::category
PUBLIC	?message@error_code@std@@QEBA?AV?$basic_string@DU?$char_traits@D@std@@V?$allocator@D@2@@2@XZ ; std::error_code::message
PUBLIC	??0error_condition@std@@QEAA@HAEBVerror_category@1@@Z ; std::error_condition::error_condition
PUBLIC	?value@error_condition@std@@QEBAHXZ		; std::error_condition::value
PUBLIC	?category@error_condition@std@@QEBAAEBVerror_category@2@XZ ; std::error_condition::category
PUBLIC	??8std@@YA_NAEBVerror_condition@0@0@Z		; std::operator==
PUBLIC	?make_error_code@std@@YA?AVerror_code@1@W4io_errc@1@@Z ; std::make_error_code
PUBLIC	?_Makestr@_System_error@std@@CA?AV?$basic_string@DU?$char_traits@D@std@@V?$allocator@D@2@@2@Verror_code@2@V32@@Z ; std::_System_error::_Makestr
PUBLIC	??0_System_error@std@@IEAA@Verror_code@1@AEBV?$basic_string@DU?$char_traits@D@std@@V?$allocator@D@2@@1@@Z ; std::_System_error::_System_error
PUBLIC	??1_System_error@std@@UEAA@XZ			; std::_System_error::~_System_error
PUBLIC	??0_System_error@std@@QEAA@AEBV01@@Z		; std::_System_error::_System_error
PUBLIC	??_G_System_error@std@@UEAAPEAXI@Z		; std::_System_error::`scalar deleting destructor'
PUBLIC	??0system_error@std@@QEAA@Verror_code@1@PEBD@Z	; std::system_error::system_error
PUBLIC	??1system_error@std@@UEAA@XZ			; std::system_error::~system_error
PUBLIC	??0system_error@std@@QEAA@AEBV01@@Z		; std::system_error::system_error
PUBLIC	??_Gsystem_error@std@@UEAAPEAXI@Z		; std::system_error::`scalar deleting destructor'
PUBLIC	?name@_Iostream_error_category2@std@@UEBAPEBDXZ	; std::_Iostream_error_category2::name
PUBLIC	?message@_Iostream_error_category2@std@@UEBA?AV?$basic_string@DU?$char_traits@D@std@@V?$allocator@D@2@@2@H@Z ; std::_Iostream_error_category2::message
PUBLIC	??1_Iostream_error_category2@std@@UEAA@XZ	; std::_Iostream_error_category2::~_Iostream_error_category2
PUBLIC	??_G_Iostream_error_category2@std@@UEAAPEAXI@Z	; std::_Iostream_error_category2::`scalar deleting destructor'
PUBLIC	??$_Immortalize_memcpy_image@V_Iostream_error_category2@std@@@std@@YAAEBV_Iostream_error_category2@0@XZ ; std::_Immortalize_memcpy_image<std::_Iostream_error_category2>
PUBLIC	??0bad_cast@std@@QEAA@XZ			; std::bad_cast::bad_cast
PUBLIC	??1bad_cast@std@@UEAA@XZ			; std::bad_cast::~bad_cast
PUBLIC	??0bad_cast@std@@QEAA@AEBV01@@Z			; std::bad_cast::bad_cast
PUBLIC	??_Gbad_cast@std@@UEAAPEAXI@Z			; std::bad_cast::`scalar deleting destructor'
PUBLIC	?_Throw_bad_cast@std@@YAXXZ			; std::_Throw_bad_cast
PUBLIC	??1_Facet_base@std@@UEAA@XZ			; std::_Facet_base::~_Facet_base
PUBLIC	??0_Facet_base@std@@QEAA@XZ			; std::_Facet_base::_Facet_base
PUBLIC	??_G_Facet_base@std@@UEAAPEAXI@Z		; std::_Facet_base::`scalar deleting destructor'
PUBLIC	??0_Locinfo@std@@QEAA@PEBD@Z			; std::_Locinfo::_Locinfo
PUBLIC	??1_Locinfo@std@@QEAA@XZ			; std::_Locinfo::~_Locinfo
PUBLIC	?_Getctype@_Locinfo@std@@QEBA?AU_Ctypevec@@XZ	; std::_Locinfo::_Getctype
PUBLIC	??0?$_Yarn@D@std@@QEAA@XZ			; std::_Yarn<char>::_Yarn<char>
PUBLIC	??1?$_Yarn@D@std@@QEAA@XZ			; std::_Yarn<char>::~_Yarn<char>
PUBLIC	?c_str@?$_Yarn@D@std@@QEBAPEBDXZ		; std::_Yarn<char>::c_str
PUBLIC	?_Tidy@?$_Yarn@D@std@@AEAAXXZ			; std::_Yarn<char>::_Tidy
PUBLIC	??0?$_Yarn@_W@std@@QEAA@XZ			; std::_Yarn<wchar_t>::_Yarn<wchar_t>
PUBLIC	??1?$_Yarn@_W@std@@QEAA@XZ			; std::_Yarn<wchar_t>::~_Yarn<wchar_t>
PUBLIC	?_Tidy@?$_Yarn@_W@std@@AEAAXXZ			; std::_Yarn<wchar_t>::_Tidy
PUBLIC	??Bid@locale@std@@QEAA_KXZ			; std::locale::id::operator unsigned __int64
PUBLIC	?_Incref@facet@locale@std@@UEAAXXZ		; std::locale::facet::_Incref
PUBLIC	?_Decref@facet@locale@std@@UEAAPEAV_Facet_base@3@XZ ; std::locale::facet::_Decref
PUBLIC	??0facet@locale@std@@IEAA@_K@Z			; std::locale::facet::facet
PUBLIC	??1facet@locale@std@@MEAA@XZ			; std::locale::facet::~facet
PUBLIC	??_Gfacet@locale@std@@MEAAPEAXI@Z		; std::locale::facet::`scalar deleting destructor'
PUBLIC	??0locale@std@@QEAA@AEBV01@@Z			; std::locale::locale
PUBLIC	??1locale@std@@QEAA@XZ				; std::locale::~locale
PUBLIC	?_C_str@locale@std@@QEBAPEBDXZ			; std::locale::_C_str
PUBLIC	?_Getfacet@locale@std@@QEBAPEBVfacet@12@_K@Z	; std::locale::_Getfacet
PUBLIC	??$_Adl_verify_range@PEBDPEBD@std@@YAXAEBQEBD0@Z ; std::_Adl_verify_range<char const *,char const *>
PUBLIC	??0ctype_base@std@@QEAA@_K@Z			; std::ctype_base::ctype_base
PUBLIC	??1ctype_base@std@@UEAA@XZ			; std::ctype_base::~ctype_base
PUBLIC	??_Gctype_base@std@@UEAAPEAXI@Z			; std::ctype_base::`scalar deleting destructor'
PUBLIC	?widen@?$ctype@D@std@@QEBADD@Z			; std::ctype<char>::widen
PUBLIC	??0?$ctype@D@std@@QEAA@AEBV_Locinfo@1@_K@Z	; std::ctype<char>::ctype<char>
PUBLIC	?_Getcat@?$ctype@D@std@@SA_KPEAPEBVfacet@locale@2@PEBV42@@Z ; std::ctype<char>::_Getcat
PUBLIC	??1?$ctype@D@std@@MEAA@XZ			; std::ctype<char>::~ctype<char>
PUBLIC	?_Init@?$ctype@D@std@@IEAAXAEBV_Locinfo@2@@Z	; std::ctype<char>::_Init
PUBLIC	?_Tidy@?$ctype@D@std@@IEAAXXZ			; std::ctype<char>::_Tidy
PUBLIC	?do_tolower@?$ctype@D@std@@MEBADD@Z		; std::ctype<char>::do_tolower
PUBLIC	?do_tolower@?$ctype@D@std@@MEBAPEBDPEADPEBD@Z	; std::ctype<char>::do_tolower
PUBLIC	?do_toupper@?$ctype@D@std@@MEBADD@Z		; std::ctype<char>::do_toupper
PUBLIC	?do_toupper@?$ctype@D@std@@MEBAPEBDPEADPEBD@Z	; std::ctype<char>::do_toupper
PUBLIC	?do_widen@?$ctype@D@std@@MEBADD@Z		; std::ctype<char>::do_widen
PUBLIC	?do_widen@?$ctype@D@std@@MEBAPEBDPEBD0PEAD@Z	; std::ctype<char>::do_widen
PUBLIC	?do_narrow@?$ctype@D@std@@MEBADDD@Z		; std::ctype<char>::do_narrow
PUBLIC	?do_narrow@?$ctype@D@std@@MEBAPEBDPEBD0DPEAD@Z	; std::ctype<char>::do_narrow
PUBLIC	??_G?$ctype@D@std@@MEAAPEAXI@Z			; std::ctype<char>::`scalar deleting destructor'
PUBLIC	??$use_facet@V?$ctype@D@std@@@std@@YAAEBV?$ctype@D@0@AEBVlocale@0@@Z ; std::use_facet<std::ctype<char> >
PUBLIC	??$_Adl_verify_range@PEADPEBD@std@@YAXAEBQEADAEBQEBD@Z ; std::_Adl_verify_range<char *,char const *>
PUBLIC	??0failure@ios_base@std@@QEAA@PEBDAEBVerror_code@2@@Z ; std::ios_base::failure::failure
PUBLIC	??1failure@ios_base@std@@UEAA@XZ		; std::ios_base::failure::~failure
PUBLIC	??0failure@ios_base@std@@QEAA@AEBV012@@Z	; std::ios_base::failure::failure
PUBLIC	??_Gfailure@ios_base@std@@UEAAPEAXI@Z		; std::ios_base::failure::`scalar deleting destructor'
PUBLIC	?clear@ios_base@std@@QEAAXH_N@Z			; std::ios_base::clear
PUBLIC	?rdstate@ios_base@std@@QEBAHXZ			; std::ios_base::rdstate
PUBLIC	?good@ios_base@std@@QEBA_NXZ			; std::ios_base::good
PUBLIC	?flags@ios_base@std@@QEBAHXZ			; std::ios_base::flags
PUBLIC	?width@ios_base@std@@QEBA_JXZ			; std::ios_base::width
PUBLIC	?width@ios_base@std@@QEAA_J_J@Z			; std::ios_base::width
PUBLIC	?getloc@ios_base@std@@QEBA?AVlocale@2@XZ	; std::ios_base::getloc
PUBLIC	main
PUBLIC	?clear@?$basic_ios@DU?$char_traits@D@std@@@std@@QEAAXH_N@Z ; std::basic_ios<char,std::char_traits<char> >::clear
PUBLIC	?setstate@?$basic_ios@DU?$char_traits@D@std@@@std@@QEAAXH_N@Z ; std::basic_ios<char,std::char_traits<char> >::setstate
PUBLIC	?tie@?$basic_ios@DU?$char_traits@D@std@@@std@@QEBAPEAV?$basic_ostream@DU?$char_traits@D@std@@@2@XZ ; std::basic_ios<char,std::char_traits<char> >::tie
PUBLIC	?rdbuf@?$basic_ios@DU?$char_traits@D@std@@@std@@QEBAPEAV?$basic_streambuf@DU?$char_traits@D@std@@@2@XZ ; std::basic_ios<char,std::char_traits<char> >::rdbuf
PUBLIC	?fill@?$basic_ios@DU?$char_traits@D@std@@@std@@QEBADXZ ; std::basic_ios<char,std::char_traits<char> >::fill
PUBLIC	?widen@?$basic_ios@DU?$char_traits@D@std@@@std@@QEBADD@Z ; std::basic_ios<char,std::char_traits<char> >::widen
PUBLIC	?_Osfx@?$basic_ostream@DU?$char_traits@D@std@@@std@@QEAAXXZ ; std::basic_ostream<char,std::char_traits<char> >::_Osfx
PUBLIC	??6?$basic_ostream@DU?$char_traits@D@std@@@std@@QEAAAEAV01@P6AAEAV01@AEAV01@@Z@Z ; std::basic_ostream<char,std::char_traits<char> >::operator<<
PUBLIC	?put@?$basic_ostream@DU?$char_traits@D@std@@@std@@QEAAAEAV12@D@Z ; std::basic_ostream<char,std::char_traits<char> >::put
PUBLIC	?flush@?$basic_ostream@DU?$char_traits@D@std@@@std@@QEAAAEAV12@XZ ; std::basic_ostream<char,std::char_traits<char> >::flush
PUBLIC	??$?6U?$char_traits@D@std@@@std@@YAAEAV?$basic_ostream@DU?$char_traits@D@std@@@0@AEAV10@PEBD@Z ; std::operator<<<std::char_traits<char> >
PUBLIC	??$endl@DU?$char_traits@D@std@@@std@@YAAEAV?$basic_ostream@DU?$char_traits@D@std@@@0@AEAV10@@Z ; std::endl<char,std::char_traits<char> >
PUBLIC	??$_Convert_size@_K_K@std@@YA_K_K@Z		; std::_Convert_size<unsigned __int64,unsigned __int64>
PUBLIC	??$move@AEAV?$allocator@D@std@@@std@@YA$$QEAV?$allocator@D@0@AEAV10@@Z ; std::move<std::allocator<char> &>
PUBLIC	??$?0V?$allocator@D@std@@$$V@?$_Compressed_pair@V?$allocator@D@std@@V?$_String_val@U?$_Simple_types@D@std@@@2@$00@std@@QEAA@U_One_then_variadic_args_t@1@$$QEAV?$allocator@D@1@@Z ; std::_Compressed_pair<std::allocator<char>,std::_String_val<std::_Simple_types<char> >,1>::_Compressed_pair<std::allocator<char>,std::_String_val<std::_Simple_types<char> >,1><std::allocator<char> >
PUBLIC	??$?0$$V@?$_Compressed_pair@V?$allocator@D@std@@V?$_String_val@U?$_Simple_types@D@std@@@2@$00@std@@QEAA@U_Zero_then_variadic_args_t@1@@Z ; std::_Compressed_pair<std::allocator<char>,std::_String_val<std::_Simple_types<char> >,1>::_Compressed_pair<std::allocator<char>,std::_String_val<std::_Simple_types<char> >,1><>
PUBLIC	??$_Construct@$00PEBD@?$basic_string@DU?$char_traits@D@std@@V?$allocator@D@2@@std@@AEAAXQEBD_K@Z ; std::basic_string<char,std::char_traits<char>,std::allocator<char> >::_Construct<1,char const *>
PUBLIC	??$_Construct@$01PEBD@?$basic_string@DU?$char_traits@D@std@@V?$allocator@D@2@@std@@AEAAXQEBD_K@Z ; std::basic_string<char,std::char_traits<char>,std::allocator<char> >::_Construct<2,char const *>
PUBLIC	??$_Destroy_in_place@PEAD@std@@YAXAEAPEAD@Z	; std::_Destroy_in_place<char *>
PUBLIC	??R<lambda_65e615be2a453ca0576c979606f46740>@@QEBA@QEADQEBD_K12@Z ; <lambda_65e615be2a453ca0576c979606f46740>::operator()
PUBLIC	??$_Reallocate_grow_by@V<lambda_65e615be2a453ca0576c979606f46740>@@PEBD_K@?$basic_string@DU?$char_traits@D@std@@V?$allocator@D@2@@std@@AEAAAEAV01@_KV<lambda_65e615be2a453ca0576c979606f46740>@@PEBD_K@Z ; std::basic_string<char,std::char_traits<char>,std::allocator<char> >::_Reallocate_grow_by<<lambda_65e615be2a453ca0576c979606f46740>,char const *,unsigned __int64>
PUBLIC	??$_Construct_in_place@PEADAEAPEAD@std@@YAXAEAPEAD0@Z ; std::_Construct_in_place<char *,char * &>
PUBLIC	??$_Unfancy@D@std@@YAPEADPEAD@Z			; std::_Unfancy<char>
PUBLIC	??$addressof@V?$_String_val@U?$_Simple_types@D@std@@@std@@@std@@YAPEAV?$_String_val@U?$_Simple_types@D@std@@@0@AEAV10@@Z ; std::addressof<std::_String_val<std::_Simple_types<char> > >
PUBLIC	??$addressof@$$CBV?$_String_val@U?$_Simple_types@D@std@@@std@@@std@@YAPEBV?$_String_val@U?$_Simple_types@D@std@@@0@AEBV10@@Z ; std::addressof<std::_String_val<std::_Simple_types<char> > const >
PUBLIC	??$max@_K@std@@YAAEB_KAEB_K0@Z			; std::max<unsigned __int64>
PUBLIC	??$_Deallocate@$0BA@$0A@@std@@YAXPEAX_K@Z	; std::_Deallocate<16,0>
PUBLIC	??$min@_K@std@@YAAEB_KAEB_K0@Z			; std::min<unsigned __int64>
PUBLIC	??R?$default_delete@V_Facet_base@std@@@std@@QEBAXPEAV_Facet_base@1@@Z ; std::default_delete<std::_Facet_base>::operator()
PUBLIC	??1?$unique_ptr@V_Facet_base@std@@U?$default_delete@V_Facet_base@std@@@2@@std@@QEAA@XZ ; std::unique_ptr<std::_Facet_base,std::default_delete<std::_Facet_base> >::~unique_ptr<std::_Facet_base,std::default_delete<std::_Facet_base> >
PUBLIC	?release@?$unique_ptr@V_Facet_base@std@@U?$default_delete@V_Facet_base@std@@@2@@std@@QEAAPEAV_Facet_base@2@XZ ; std::unique_ptr<std::_Facet_base,std::default_delete<std::_Facet_base> >::release
PUBLIC	?_Get_first@?$_Compressed_pair@U?$default_delete@V_Facet_base@std@@@std@@PEAV_Facet_base@2@$00@std@@QEAAAEAU?$default_delete@V_Facet_base@std@@@2@XZ ; std::_Compressed_pair<std::default_delete<std::_Facet_base>,std::_Facet_base *,1>::_Get_first
PUBLIC	??$?0U?$default_delete@V_Facet_base@std@@@std@@$0A@@?$unique_ptr@V_Facet_base@std@@U?$default_delete@V_Facet_base@std@@@2@@std@@QEAA@PEAV_Facet_base@1@@Z ; std::unique_ptr<std::_Facet_base,std::default_delete<std::_Facet_base> >::unique_ptr<std::_Facet_base,std::default_delete<std::_Facet_base> ><std::default_delete<std::_Facet_base>,0>
PUBLIC	??0_Sentry_base@?$basic_ostream@DU?$char_traits@D@std@@@std@@QEAA@AEAV12@@Z ; std::basic_ostream<char,std::char_traits<char> >::_Sentry_base::_Sentry_base
PUBLIC	??1_Sentry_base@?$basic_ostream@DU?$char_traits@D@std@@@std@@QEAA@XZ ; std::basic_ostream<char,std::char_traits<char> >::_Sentry_base::~_Sentry_base
PUBLIC	??0sentry@?$basic_ostream@DU?$char_traits@D@std@@@std@@QEAA@AEAV12@@Z ; std::basic_ostream<char,std::char_traits<char> >::sentry::sentry
PUBLIC	??1sentry@?$basic_ostream@DU?$char_traits@D@std@@@std@@QEAA@XZ ; std::basic_ostream<char,std::char_traits<char> >::sentry::~sentry
PUBLIC	??Bsentry@?$basic_ostream@DU?$char_traits@D@std@@@std@@QEBA_NXZ ; std::basic_ostream<char,std::char_traits<char> >::sentry::operator bool
PUBLIC	?pubsync@?$basic_streambuf@DU?$char_traits@D@std@@@std@@QEAAHXZ ; std::basic_streambuf<char,std::char_traits<char> >::pubsync
PUBLIC	?sputc@?$basic_streambuf@DU?$char_traits@D@std@@@std@@QEAAHD@Z ; std::basic_streambuf<char,std::char_traits<char> >::sputc
PUBLIC	?sputn@?$basic_streambuf@DU?$char_traits@D@std@@@std@@QEAA_JPEBD_J@Z ; std::basic_streambuf<char,std::char_traits<char> >::sputn
PUBLIC	?_Pninc@?$basic_streambuf@DU?$char_traits@D@std@@@std@@IEAAPEADXZ ; std::basic_streambuf<char,std::char_traits<char> >::_Pninc
PUBLIC	?_Pnavail@?$basic_streambuf@DU?$char_traits@D@std@@@std@@IEBA_JXZ ; std::basic_streambuf<char,std::char_traits<char> >::_Pnavail
PUBLIC	??$forward@V?$allocator@D@std@@@std@@YA$$QEAV?$allocator@D@0@AEAV10@@Z ; std::forward<std::allocator<char> >
PUBLIC	??$_Allocate_for_capacity@$0A@@?$basic_string@DU?$char_traits@D@std@@V?$allocator@D@2@@std@@CAPEADAEAV?$allocator@D@1@AEA_K@Z ; std::basic_string<char,std::char_traits<char>,std::allocator<char> >::_Allocate_for_capacity<0>
PUBLIC	??$_Construct_in_place@PEADAEBQEAD@std@@YAXAEAPEADAEBQEAD@Z ; std::_Construct_in_place<char *,char * const &>
PUBLIC	??$addressof@PEAD@std@@YAPEAPEADAEAPEAD@Z	; std::addressof<char *>
PUBLIC	??$forward@AEAPEAD@std@@YAAEAPEADAEAPEAD@Z	; std::forward<char * &>
PUBLIC	??$exchange@PEAV_Facet_base@std@@$$T@std@@YAPEAV_Facet_base@0@AEAPEAV10@$$QEA$$T@Z ; std::exchange<std::_Facet_base *,std::nullptr_t>
PUBLIC	??$?0AEAPEAV_Facet_base@std@@@?$_Compressed_pair@U?$default_delete@V_Facet_base@std@@@std@@PEAV_Facet_base@2@$00@std@@QEAA@U_Zero_then_variadic_args_t@1@AEAPEAV_Facet_base@1@@Z ; std::_Compressed_pair<std::default_delete<std::_Facet_base>,std::_Facet_base *,1>::_Compressed_pair<std::default_delete<std::_Facet_base>,std::_Facet_base *,1><std::_Facet_base * &>
PUBLIC	??$_Allocate_at_least_helper@V?$allocator@D@std@@@std@@YAPEADAEAV?$allocator@D@0@AEA_K@Z ; std::_Allocate_at_least_helper<std::allocator<char> >
PUBLIC	??$forward@AEBQEAD@std@@YAAEBQEADAEBQEAD@Z	; std::forward<char * const &>
PUBLIC	??$forward@AEAPEAV_Facet_base@std@@@std@@YAAEAPEAV_Facet_base@0@AEAPEAV10@@Z ; std::forward<std::_Facet_base * &>
PUBLIC	??$_Allocate@$0BA@U_Default_allocate_traits@std@@$0A@@std@@YAPEAX_K@Z ; std::_Allocate<16,std::_Default_allocate_traits,0>
PUBLIC	??$_Get_size_of_n@$00@std@@YA_K_K@Z		; std::_Get_size_of_n<1>
PUBLIC	??$_Allocate_manually_vector_aligned@U_Default_allocate_traits@std@@@std@@YAPEAX_K@Z ; std::_Allocate_manually_vector_aligned<std::_Default_allocate_traits>
PUBLIC	??_7exception@std@@6B@				; std::exception::`vftable'
PUBLIC	??_C@_0BC@EOODALEL@Unknown?5exception@		; `string'
PUBLIC	??_7bad_alloc@std@@6B@				; std::bad_alloc::`vftable'
PUBLIC	??_7bad_array_new_length@std@@6B@		; std::bad_array_new_length::`vftable'
PUBLIC	??_C@_0BF@KINCDENJ@bad?5array?5new?5length@	; `string'
PUBLIC	_TI3?AVbad_array_new_length@std@@
PUBLIC	_CTA3?AVbad_array_new_length@std@@
PUBLIC	??_R0?AVbad_array_new_length@std@@@8		; std::bad_array_new_length `RTTI Type Descriptor'
PUBLIC	_CT??_R0?AVbad_array_new_length@std@@@8??0bad_array_new_length@std@@QEAA@AEBV01@@Z24
PUBLIC	??_R0?AVbad_alloc@std@@@8			; std::bad_alloc `RTTI Type Descriptor'
PUBLIC	_CT??_R0?AVbad_alloc@std@@@8??0bad_alloc@std@@QEAA@AEBV01@@Z24
PUBLIC	??_R0?AVexception@std@@@8			; std::exception `RTTI Type Descriptor'
PUBLIC	_CT??_R0?AVexception@std@@@8??0exception@std@@QEAA@AEBV01@@Z24
PUBLIC	??_C@_0BA@JFNIOLAK@string?5too?5long@		; `string'
PUBLIC	??_7runtime_error@std@@6B@			; std::runtime_error::`vftable'
PUBLIC	??_R0?AVruntime_error@std@@@8			; std::runtime_error `RTTI Type Descriptor'
PUBLIC	_CT??_R0?AVruntime_error@std@@@8??0runtime_error@std@@QEAA@AEBV01@@Z24
PUBLIC	??_7_System_error@std@@6B@			; std::_System_error::`vftable'
PUBLIC	??_C@_02LMMGGCAJ@?3?5@				; `string'
PUBLIC	??_7system_error@std@@6B@			; std::system_error::`vftable'
PUBLIC	??_R0?AVsystem_error@std@@@8			; std::system_error `RTTI Type Descriptor'
PUBLIC	_CT??_R0?AVsystem_error@std@@@8??0system_error@std@@QEAA@AEBV01@@Z40
PUBLIC	??_R0?AV_System_error@std@@@8			; std::_System_error `RTTI Type Descriptor'
PUBLIC	_CT??_R0?AV_System_error@std@@@8??0_System_error@std@@QEAA@AEBV01@@Z40
PUBLIC	??_7_Iostream_error_category2@std@@6B@		; std::_Iostream_error_category2::`vftable'
PUBLIC	??_C@_08LLGCOLLL@iostream@			; `string'
PUBLIC	?_Iostream_error@?4??message@_Iostream_error_category2@std@@UEBA?AV?$basic_string@DU?$char_traits@D@std@@V?$allocator@D@2@@3@H@Z@4QBDB ; `std::_Iostream_error_category2::message'::`5'::_Iostream_error
PUBLIC	??_7bad_cast@std@@6B@				; std::bad_cast::`vftable'
PUBLIC	??_C@_08EPJLHIJG@bad?5cast@			; `string'
PUBLIC	_TI2?AVbad_cast@std@@
PUBLIC	_CTA2?AVbad_cast@std@@
PUBLIC	??_R0?AVbad_cast@std@@@8			; std::bad_cast `RTTI Type Descriptor'
PUBLIC	_CT??_R0?AVbad_cast@std@@@8??0bad_cast@std@@QEAA@AEBV01@@Z24
PUBLIC	??_7_Facet_base@std@@6B@			; std::_Facet_base::`vftable'
PUBLIC	??_C@_0BA@ELKIONDK@bad?5locale?5name@		; `string'
PUBLIC	??_7facet@locale@std@@6B@			; std::locale::facet::`vftable'
PUBLIC	??_C@_00CNPNBAHC@@				; `string'
PUBLIC	??_7ctype_base@std@@6B@				; std::ctype_base::`vftable'
PUBLIC	??_7?$ctype@D@std@@6B@				; std::ctype<char>::`vftable'
PUBLIC	??_7failure@ios_base@std@@6B@			; std::ios_base::failure::`vftable'
PUBLIC	??_C@_0BF@PHHKMMFD@ios_base?3?3badbit?5set@	; `string'
PUBLIC	??_C@_0BG@FMKFHCIL@ios_base?3?3failbit?5set@	; `string'
PUBLIC	??_C@_0BF@OOHOMBOF@ios_base?3?3eofbit?5set@	; `string'
PUBLIC	_TI5?AVfailure@ios_base@std@@
PUBLIC	_CTA5?AVfailure@ios_base@std@@
PUBLIC	??_R0?AVfailure@ios_base@std@@@8		; std::ios_base::failure `RTTI Type Descriptor'
PUBLIC	_CT??_R0?AVfailure@ios_base@std@@@8??0failure@ios_base@std@@QEAA@AEBV012@@Z40
PUBLIC	?_Static@?1???$_Immortalize_memcpy_image@V_Iostream_error_category2@std@@@std@@YAAEBV_Iostream_error_category2@1@XZ@4U?$_Constexpr_immortalize_impl@V_Iostream_error_category2@std@@@1@A ; `std::_Immortalize_memcpy_image<std::_Iostream_error_category2>'::`2'::_Static
PUBLIC	?_Psave@?$_Facetptr@V?$ctype@D@std@@@std@@2PEBVfacet@locale@2@EB ; std::_Facetptr<std::ctype<char> >::_Psave
PUBLIC	??_R4exception@std@@6B@				; std::exception::`RTTI Complete Object Locator'
PUBLIC	??_R3exception@std@@8				; std::exception::`RTTI Class Hierarchy Descriptor'
PUBLIC	??_R2exception@std@@8				; std::exception::`RTTI Base Class Array'
PUBLIC	??_R1A@?0A@EA@exception@std@@8			; std::exception::`RTTI Base Class Descriptor at (0,-1,0,64)'
PUBLIC	??_R4bad_alloc@std@@6B@				; std::bad_alloc::`RTTI Complete Object Locator'
PUBLIC	??_R3bad_alloc@std@@8				; std::bad_alloc::`RTTI Class Hierarchy Descriptor'
PUBLIC	??_R2bad_alloc@std@@8				; std::bad_alloc::`RTTI Base Class Array'
PUBLIC	??_R1A@?0A@EA@bad_alloc@std@@8			; std::bad_alloc::`RTTI Base Class Descriptor at (0,-1,0,64)'
PUBLIC	??_R4bad_array_new_length@std@@6B@		; std::bad_array_new_length::`RTTI Complete Object Locator'
PUBLIC	??_R3bad_array_new_length@std@@8		; std::bad_array_new_length::`RTTI Class Hierarchy Descriptor'
PUBLIC	??_R2bad_array_new_length@std@@8		; std::bad_array_new_length::`RTTI Base Class Array'
PUBLIC	??_R1A@?0A@EA@bad_array_new_length@std@@8	; std::bad_array_new_length::`RTTI Base Class Descriptor at (0,-1,0,64)'
PUBLIC	??_R4runtime_error@std@@6B@			; std::runtime_error::`RTTI Complete Object Locator'
PUBLIC	??_R3runtime_error@std@@8			; std::runtime_error::`RTTI Class Hierarchy Descriptor'
PUBLIC	??_R2runtime_error@std@@8			; std::runtime_error::`RTTI Base Class Array'
PUBLIC	??_R1A@?0A@EA@runtime_error@std@@8		; std::runtime_error::`RTTI Base Class Descriptor at (0,-1,0,64)'
PUBLIC	??_R0?AVerror_category@std@@@8			; std::error_category `RTTI Type Descriptor'
PUBLIC	??_R3error_category@std@@8			; std::error_category::`RTTI Class Hierarchy Descriptor'
PUBLIC	??_R2error_category@std@@8			; std::error_category::`RTTI Base Class Array'
PUBLIC	??_R1A@?0A@EA@error_category@std@@8		; std::error_category::`RTTI Base Class Descriptor at (0,-1,0,64)'
PUBLIC	??_R4_System_error@std@@6B@			; std::_System_error::`RTTI Complete Object Locator'
PUBLIC	??_R3_System_error@std@@8			; std::_System_error::`RTTI Class Hierarchy Descriptor'
PUBLIC	??_R2_System_error@std@@8			; std::_System_error::`RTTI Base Class Array'
PUBLIC	??_R1A@?0A@EA@_System_error@std@@8		; std::_System_error::`RTTI Base Class Descriptor at (0,-1,0,64)'
PUBLIC	??_R4system_error@std@@6B@			; std::system_error::`RTTI Complete Object Locator'
PUBLIC	??_R3system_error@std@@8			; std::system_error::`RTTI Class Hierarchy Descriptor'
PUBLIC	??_R2system_error@std@@8			; std::system_error::`RTTI Base Class Array'
PUBLIC	??_R1A@?0A@EA@system_error@std@@8		; std::system_error::`RTTI Base Class Descriptor at (0,-1,0,64)'
PUBLIC	??_R4_Iostream_error_category2@std@@6B@		; std::_Iostream_error_category2::`RTTI Complete Object Locator'
PUBLIC	??_R0?AV_Iostream_error_category2@std@@@8	; std::_Iostream_error_category2 `RTTI Type Descriptor'
PUBLIC	??_R3_Iostream_error_category2@std@@8		; std::_Iostream_error_category2::`RTTI Class Hierarchy Descriptor'
PUBLIC	??_R2_Iostream_error_category2@std@@8		; std::_Iostream_error_category2::`RTTI Base Class Array'
PUBLIC	??_R1A@?0A@EA@_Iostream_error_category2@std@@8	; std::_Iostream_error_category2::`RTTI Base Class Descriptor at (0,-1,0,64)'
PUBLIC	??_R4bad_cast@std@@6B@				; std::bad_cast::`RTTI Complete Object Locator'
PUBLIC	??_R3bad_cast@std@@8				; std::bad_cast::`RTTI Class Hierarchy Descriptor'
PUBLIC	??_R2bad_cast@std@@8				; std::bad_cast::`RTTI Base Class Array'
PUBLIC	??_R1A@?0A@EA@bad_cast@std@@8			; std::bad_cast::`RTTI Base Class Descriptor at (0,-1,0,64)'
PUBLIC	??_R4_Facet_base@std@@6B@			; std::_Facet_base::`RTTI Complete Object Locator'
PUBLIC	??_R0?AV_Facet_base@std@@@8			; std::_Facet_base `RTTI Type Descriptor'
PUBLIC	??_R3_Facet_base@std@@8				; std::_Facet_base::`RTTI Class Hierarchy Descriptor'
PUBLIC	??_R2_Facet_base@std@@8				; std::_Facet_base::`RTTI Base Class Array'
PUBLIC	??_R1A@?0A@EA@_Facet_base@std@@8		; std::_Facet_base::`RTTI Base Class Descriptor at (0,-1,0,64)'
PUBLIC	??_R4facet@locale@std@@6B@			; std::locale::facet::`RTTI Complete Object Locator'
PUBLIC	??_R0?AVfacet@locale@std@@@8			; std::locale::facet `RTTI Type Descriptor'
PUBLIC	??_R3facet@locale@std@@8			; std::locale::facet::`RTTI Class Hierarchy Descriptor'
PUBLIC	??_R2facet@locale@std@@8			; std::locale::facet::`RTTI Base Class Array'
PUBLIC	??_R1A@?0A@EA@facet@locale@std@@8		; std::locale::facet::`RTTI Base Class Descriptor at (0,-1,0,64)'
PUBLIC	??_R17?0A@EA@_Crt_new_delete@std@@8		; std::_Crt_new_delete::`RTTI Base Class Descriptor at (8,-1,0,64)'
PUBLIC	??_R0?AU_Crt_new_delete@std@@@8			; std::_Crt_new_delete `RTTI Type Descriptor'
PUBLIC	??_R3_Crt_new_delete@std@@8			; std::_Crt_new_delete::`RTTI Class Hierarchy Descriptor'
PUBLIC	??_R2_Crt_new_delete@std@@8			; std::_Crt_new_delete::`RTTI Base Class Array'
PUBLIC	??_R1A@?0A@EA@_Crt_new_delete@std@@8		; std::_Crt_new_delete::`RTTI Base Class Descriptor at (0,-1,0,64)'
PUBLIC	??_R4ctype_base@std@@6B@			; std::ctype_base::`RTTI Complete Object Locator'
PUBLIC	??_R0?AUctype_base@std@@@8			; std::ctype_base `RTTI Type Descriptor'
PUBLIC	??_R3ctype_base@std@@8				; std::ctype_base::`RTTI Class Hierarchy Descriptor'
PUBLIC	??_R2ctype_base@std@@8				; std::ctype_base::`RTTI Base Class Array'
PUBLIC	??_R1A@?0A@EA@ctype_base@std@@8			; std::ctype_base::`RTTI Base Class Descriptor at (0,-1,0,64)'
PUBLIC	??_R4?$ctype@D@std@@6B@				; std::ctype<char>::`RTTI Complete Object Locator'
PUBLIC	??_R0?AV?$ctype@D@std@@@8			; std::ctype<char> `RTTI Type Descriptor'
PUBLIC	??_R3?$ctype@D@std@@8				; std::ctype<char>::`RTTI Class Hierarchy Descriptor'
PUBLIC	??_R2?$ctype@D@std@@8				; std::ctype<char>::`RTTI Base Class Array'
PUBLIC	??_R1A@?0A@EA@?$ctype@D@std@@8			; std::ctype<char>::`RTTI Base Class Descriptor at (0,-1,0,64)'
PUBLIC	??_R4failure@ios_base@std@@6B@			; std::ios_base::failure::`RTTI Complete Object Locator'
PUBLIC	??_R3failure@ios_base@std@@8			; std::ios_base::failure::`RTTI Class Hierarchy Descriptor'
PUBLIC	??_R2failure@ios_base@std@@8			; std::ios_base::failure::`RTTI Base Class Array'
PUBLIC	??_R1A@?0A@EA@failure@ios_base@std@@8		; std::ios_base::failure::`RTTI Base Class Descriptor at (0,-1,0,64)'
EXTRN	_purecall:PROC
EXTRN	??2@YAPEAX_K@Z:PROC				; operator new
EXTRN	??3@YAXPEAX_K@Z:PROC				; operator delete
EXTRN	??_V@YAXPEAX@Z:PROC				; operator delete[]
EXTRN	_invalid_parameter_noinfo_noreturn:PROC
EXTRN	??0_Lockit@std@@QEAA@H@Z:PROC			; std::_Lockit::_Lockit
EXTRN	??1_Lockit@std@@QEAA@XZ:PROC			; std::_Lockit::~_Lockit
EXTRN	free:PROC
EXTRN	memcpy:PROC
EXTRN	memmove:PROC
EXTRN	strlen:PROC
EXTRN	?_Xlength_error@std@@YAXPEBD@Z:PROC		; std::_Xlength_error
EXTRN	?_Xruntime_error@std@@YAXPEBD@Z:PROC		; std::_Xruntime_error
EXTRN	?uncaught_exception@std@@YA_NXZ:PROC		; std::uncaught_exception
EXTRN	__std_exception_copy:PROC
EXTRN	__std_exception_destroy:PROC
EXTRN	??_Eexception@std@@UEAAPEAXI@Z:PROC		; std::exception::`vector deleting destructor'
EXTRN	??_Ebad_alloc@std@@UEAAPEAXI@Z:PROC		; std::bad_alloc::`vector deleting destructor'
EXTRN	??_Ebad_array_new_length@std@@UEAAPEAXI@Z:PROC	; std::bad_array_new_length::`vector deleting destructor'
EXTRN	??_Eruntime_error@std@@UEAAPEAXI@Z:PROC		; std::runtime_error::`vector deleting destructor'
EXTRN	??_E_System_error@std@@UEAAPEAXI@Z:PROC		; std::_System_error::`vector deleting destructor'
EXTRN	??_Esystem_error@std@@UEAAPEAXI@Z:PROC		; std::system_error::`vector deleting destructor'
EXTRN	?_Syserror_map@std@@YAPEBDH@Z:PROC		; std::_Syserror_map
EXTRN	??_E_Iostream_error_category2@std@@UEAAPEAXI@Z:PROC ; std::_Iostream_error_category2::`vector deleting destructor'
EXTRN	??_Ebad_cast@std@@UEAAPEAXI@Z:PROC		; std::bad_cast::`vector deleting destructor'
EXTRN	??_E_Facet_base@std@@UEAAPEAXI@Z:PROC		; std::_Facet_base::`vector deleting destructor'
EXTRN	?_Facet_Register@std@@YAXPEAV_Facet_base@1@@Z:PROC ; std::_Facet_Register
EXTRN	_Getctype:PROC
EXTRN	_Tolower:PROC
EXTRN	_Toupper:PROC
EXTRN	?_Locinfo_ctor@_Locinfo@std@@SAXPEAV12@PEBD@Z:PROC ; std::_Locinfo::_Locinfo_ctor
EXTRN	?_Locinfo_dtor@_Locinfo@std@@SAXPEAV12@@Z:PROC	; std::_Locinfo::_Locinfo_dtor
EXTRN	??_Efacet@locale@std@@MEAAPEAXI@Z:PROC		; std::locale::facet::`vector deleting destructor'
EXTRN	?_Getgloballocale@locale@std@@CAPEAV_Locimp@12@XZ:PROC ; std::locale::_Getgloballocale
EXTRN	??_Ectype_base@std@@UEAAPEAXI@Z:PROC		; std::ctype_base::`vector deleting destructor'
EXTRN	??_E?$ctype@D@std@@MEAAPEAXI@Z:PROC		; std::ctype<char>::`vector deleting destructor'
EXTRN	??_Efailure@ios_base@std@@UEAAPEAXI@Z:PROC	; std::ios_base::failure::`vector deleting destructor'
EXTRN	_CxxThrowException:PROC
EXTRN	__CxxFrameHandler4:PROC
EXTRN	__GSHandlerCheck_EH4:PROC
EXTRN	__security_check_cookie:PROC
EXTRN	??_7type_info@@6B@:BYTE				; type_info::`vftable'
EXTRN	?_Id_cnt@id@locale@std@@0HA:DWORD		; std::locale::id::_Id_cnt
EXTRN	?id@?$ctype@D@std@@2V0locale@2@A:QWORD		; std::ctype<char>::id
EXTRN	?cout@std@@3V?$basic_ostream@DU?$char_traits@D@std@@@1@A:BYTE ; std::cout
EXTRN	__security_cookie:QWORD
;	COMDAT ?_Psave@?$_Facetptr@V?$ctype@D@std@@@std@@2PEBVfacet@locale@2@EB
_BSS	SEGMENT
?_Psave@?$_Facetptr@V?$ctype@D@std@@@std@@2PEBVfacet@locale@2@EB DQ 01H DUP (?) ; std::_Facetptr<std::ctype<char> >::_Psave
_BSS	ENDS
;	COMDAT pdata
pdata	SEGMENT
$pdata$??0exception@std@@QEAA@QEBD@Z DD imagerel $LN3
	DD	imagerel $LN3+99
	DD	imagerel $unwind$??0exception@std@@QEAA@QEBD@Z
pdata	ENDS
;	COMDAT pdata
pdata	SEGMENT
$pdata$??0exception@std@@QEAA@QEBDH@Z DD imagerel $LN3
	DD	imagerel $LN3+73
	DD	imagerel $unwind$??0exception@std@@QEAA@QEBDH@Z
pdata	ENDS
;	COMDAT pdata
pdata	SEGMENT
$pdata$??0exception@std@@QEAA@AEBV01@@Z DD imagerel $LN3
	DD	imagerel $LN3+88
	DD	imagerel $unwind$??0exception@std@@QEAA@AEBV01@@Z
pdata	ENDS
;	COMDAT pdata
pdata	SEGMENT
$pdata$??1exception@std@@UEAA@XZ DD imagerel $LN3
	DD	imagerel $LN3+46
	DD	imagerel $unwind$??1exception@std@@UEAA@XZ
pdata	ENDS
;	COMDAT pdata
pdata	SEGMENT
$pdata$?what@exception@std@@UEBAPEBDXZ DD imagerel $LN5
	DD	imagerel $LN5+56
	DD	imagerel $unwind$?what@exception@std@@UEBAPEBDXZ
pdata	ENDS
;	COMDAT pdata
pdata	SEGMENT
$pdata$??_Gexception@std@@UEAAPEAXI@Z DD imagerel $LN4
	DD	imagerel $LN4+59
	DD	imagerel $unwind$??_Gexception@std@@UEAAPEAXI@Z
pdata	ENDS
;	COMDAT pdata
pdata	SEGMENT
$pdata$??0bad_alloc@std@@AEAA@QEBD@Z DD imagerel $LN3
	DD	imagerel $LN3+60
	DD	imagerel $unwind$??0bad_alloc@std@@AEAA@QEBD@Z
pdata	ENDS
;	COMDAT pdata
pdata	SEGMENT
$pdata$??1bad_alloc@std@@UEAA@XZ DD imagerel $LN3
	DD	imagerel $LN3+24
	DD	imagerel $unwind$??1bad_alloc@std@@UEAA@XZ
pdata	ENDS
;	COMDAT pdata
pdata	SEGMENT
$pdata$??0bad_alloc@std@@QEAA@AEBV01@@Z DD imagerel $LN3
	DD	imagerel $LN3+54
	DD	imagerel $unwind$??0bad_alloc@std@@QEAA@AEBV01@@Z
pdata	ENDS
;	COMDAT pdata
pdata	SEGMENT
$pdata$??_Gbad_alloc@std@@UEAAPEAXI@Z DD imagerel $LN4
	DD	imagerel $LN4+59
	DD	imagerel $unwind$??_Gbad_alloc@std@@UEAAPEAXI@Z
pdata	ENDS
;	COMDAT pdata
pdata	SEGMENT
$pdata$??0bad_array_new_length@std@@QEAA@XZ DD imagerel $LN3
	DD	imagerel $LN3+51
	DD	imagerel $unwind$??0bad_array_new_length@std@@QEAA@XZ
pdata	ENDS
;	COMDAT pdata
pdata	SEGMENT
$pdata$??1bad_array_new_length@std@@UEAA@XZ DD imagerel $LN3
	DD	imagerel $LN3+24
	DD	imagerel $unwind$??1bad_array_new_length@std@@UEAA@XZ
pdata	ENDS
;	COMDAT pdata
pdata	SEGMENT
$pdata$??0bad_array_new_length@std@@QEAA@AEBV01@@Z DD imagerel $LN3
	DD	imagerel $LN3+54
	DD	imagerel $unwind$??0bad_array_new_length@std@@QEAA@AEBV01@@Z
pdata	ENDS
;	COMDAT pdata
pdata	SEGMENT
$pdata$??_Gbad_array_new_length@std@@UEAAPEAXI@Z DD imagerel $LN4
	DD	imagerel $LN4+59
	DD	imagerel $unwind$??_Gbad_array_new_length@std@@UEAAPEAXI@Z
pdata	ENDS
;	COMDAT pdata
pdata	SEGMENT
$pdata$?_Throw_bad_array_new_length@std@@YAXXZ DD imagerel $LN3
	DD	imagerel $LN3+36
	DD	imagerel $unwind$?_Throw_bad_array_new_length@std@@YAXXZ
pdata	ENDS
;	COMDAT pdata
pdata	SEGMENT
$pdata$?_Allocate@_Default_allocate_traits@std@@SAPEAX_K@Z DD imagerel $LN3
	DD	imagerel $LN3+24
	DD	imagerel $unwind$?_Allocate@_Default_allocate_traits@std@@SAPEAX_K@Z
pdata	ENDS
;	COMDAT pdata
pdata	SEGMENT
$pdata$?_Adjust_manually_vector_aligned@std@@YAXAEAPEAXAEA_K@Z DD imagerel $LN11
	DD	imagerel $LN11+153
	DD	imagerel $unwind$?_Adjust_manually_vector_aligned@std@@YAXAEAPEAXAEA_K@Z
pdata	ENDS
;	COMDAT pdata
pdata	SEGMENT
$pdata$?copy@?$_Char_traits@DH@std@@SAPEADQEADQEBD_K@Z DD imagerel $LN3
	DD	imagerel $LN3+49
	DD	imagerel $unwind$?copy@?$_Char_traits@DH@std@@SAPEADQEADQEBD_K@Z
pdata	ENDS
;	COMDAT pdata
pdata	SEGMENT
$pdata$?move@?$_Char_traits@DH@std@@SAPEADQEADQEBD_K@Z DD imagerel $LN3
	DD	imagerel $LN3+49
	DD	imagerel $unwind$?move@?$_Char_traits@DH@std@@SAPEADQEADQEBD_K@Z
pdata	ENDS
;	COMDAT pdata
pdata	SEGMENT
$pdata$?length@?$_Narrow_char_traits@DH@std@@SA_KQEBD@Z DD imagerel $LN3
	DD	imagerel $LN3+24
	DD	imagerel $unwind$?length@?$_Narrow_char_traits@DH@std@@SA_KQEBD@Z
pdata	ENDS
;	COMDAT pdata
pdata	SEGMENT
$pdata$?eq_int_type@?$_Narrow_char_traits@DH@std@@SA_NHH@Z DD imagerel $LN5
	DD	imagerel $LN5+47
	DD	imagerel $unwind$?eq_int_type@?$_Narrow_char_traits@DH@std@@SA_NHH@Z
pdata	ENDS
;	COMDAT pdata
pdata	SEGMENT
$pdata$?_Xlen_string@std@@YAXXZ DD imagerel $LN3
	DD	imagerel $LN3+21
	DD	imagerel $unwind$?_Xlen_string@std@@YAXXZ
pdata	ENDS
;	COMDAT pdata
pdata	SEGMENT
$pdata$?deallocate@?$allocator@D@std@@QEAAXQEAD_K@Z DD imagerel $LN3
	DD	imagerel $LN3+39
	DD	imagerel $unwind$?deallocate@?$allocator@D@std@@QEAAXQEAD_K@Z
pdata	ENDS
;	COMDAT pdata
pdata	SEGMENT
$pdata$?allocate@?$allocator@D@std@@QEAAPEAD_K@Z DD imagerel $LN3
	DD	imagerel $LN3+37
	DD	imagerel $unwind$?allocate@?$allocator@D@std@@QEAAPEAD_K@Z
pdata	ENDS
;	COMDAT pdata
pdata	SEGMENT
$pdata$??0?$_String_val@U?$_Simple_types@D@std@@@std@@QEAA@XZ DD imagerel $LN3
	DD	imagerel $LN3+58
	DD	imagerel $unwind$??0?$_String_val@U?$_Simple_types@D@std@@@std@@QEAA@XZ
pdata	ENDS
;	COMDAT pdata
pdata	SEGMENT
$pdata$?_Myptr@?$_String_val@U?$_Simple_types@D@std@@@std@@QEAAPEADXZ DD imagerel $LN4
	DD	imagerel $LN4+64
	DD	imagerel $unwind$?_Myptr@?$_String_val@U?$_Simple_types@D@std@@@std@@QEAAPEADXZ
pdata	ENDS
;	COMDAT pdata
pdata	SEGMENT
$pdata$?_Myptr@?$_String_val@U?$_Simple_types@D@std@@@std@@QEBAPEBDXZ DD imagerel $LN4
	DD	imagerel $LN4+64
	DD	imagerel $unwind$?_Myptr@?$_String_val@U?$_Simple_types@D@std@@@std@@QEBAPEBDXZ
pdata	ENDS
;	COMDAT pdata
pdata	SEGMENT
$pdata$?_Large_mode_engaged@?$_String_val@U?$_Simple_types@D@std@@@std@@QEBA_NXZ DD imagerel $LN5
	DD	imagerel $LN5+46
	DD	imagerel $unwind$?_Large_mode_engaged@?$_String_val@U?$_Simple_types@D@std@@@std@@QEBA_NXZ
pdata	ENDS
;	COMDAT pdata
pdata	SEGMENT
$pdata$??0_Bxty@?$_String_val@U?$_Simple_types@D@std@@@std@@QEAA@XZ DD imagerel $LN3
	DD	imagerel $LN3+32
	DD	imagerel $unwind$??0_Bxty@?$_String_val@U?$_Simple_types@D@std@@@std@@QEAA@XZ
pdata	ENDS
;	COMDAT pdata
pdata	SEGMENT
$pdata$??1?$_String_val@U?$_Simple_types@D@std@@@std@@QEAA@XZ DD imagerel $LN3
	DD	imagerel $LN3+27
	DD	imagerel $unwind$??1?$_String_val@U?$_Simple_types@D@std@@@std@@QEAA@XZ
pdata	ENDS
;	COMDAT pdata
pdata	SEGMENT
$pdata$??0?$basic_string@DU?$char_traits@D@std@@V?$allocator@D@2@@std@@QEAA@AEBV01@@Z DD imagerel $LN4
	DD	imagerel $LN4+102
	DD	imagerel $unwind$??0?$basic_string@DU?$char_traits@D@std@@V?$allocator@D@2@@std@@QEAA@AEBV01@@Z
pdata	ENDS
;	COMDAT pdata
pdata	SEGMENT
$pdata$?dtor$0@?0???0?$basic_string@DU?$char_traits@D@std@@V?$allocator@D@2@@std@@QEAA@AEBV01@@Z@4HA DD imagerel ?dtor$0@?0???0?$basic_string@DU?$char_traits@D@std@@V?$allocator@D@2@@std@@QEAA@AEBV01@@Z@4HA
	DD	imagerel ?dtor$0@?0???0?$basic_string@DU?$char_traits@D@std@@V?$allocator@D@2@@std@@QEAA@AEBV01@@Z@4HA+24
	DD	imagerel $unwind$?dtor$0@?0???0?$basic_string@DU?$char_traits@D@std@@V?$allocator@D@2@@std@@QEAA@AEBV01@@Z@4HA
pdata	ENDS
;	COMDAT pdata
pdata	SEGMENT
$pdata$??0?$basic_string@DU?$char_traits@D@std@@V?$allocator@D@2@@std@@QEAA@QEBD_K@Z DD imagerel $LN4
	DD	imagerel $LN4+69
	DD	imagerel $unwind$??0?$basic_string@DU?$char_traits@D@std@@V?$allocator@D@2@@std@@QEAA@QEBD_K@Z
pdata	ENDS
;	COMDAT pdata
pdata	SEGMENT
$pdata$?dtor$0@?0???0?$basic_string@DU?$char_traits@D@std@@V?$allocator@D@2@@std@@QEAA@QEBD_K@Z@4HA DD imagerel ?dtor$0@?0???0?$basic_string@DU?$char_traits@D@std@@V?$allocator@D@2@@std@@QEAA@QEBD_K@Z@4HA
	DD	imagerel ?dtor$0@?0???0?$basic_string@DU?$char_traits@D@std@@V?$allocator@D@2@@std@@QEAA@QEBD_K@Z@4HA+24
	DD	imagerel $unwind$?dtor$0@?0???0?$basic_string@DU?$char_traits@D@std@@V?$allocator@D@2@@std@@QEAA@QEBD_K@Z@4HA
pdata	ENDS
;	COMDAT pdata
pdata	SEGMENT
$pdata$??0?$basic_string@DU?$char_traits@D@std@@V?$allocator@D@2@@std@@QEAA@QEBD@Z DD imagerel $LN4
	DD	imagerel $LN4+80
	DD	imagerel $unwind$??0?$basic_string@DU?$char_traits@D@std@@V?$allocator@D@2@@std@@QEAA@QEBD@Z
pdata	ENDS
;	COMDAT pdata
pdata	SEGMENT
$pdata$?dtor$0@?0???0?$basic_string@DU?$char_traits@D@std@@V?$allocator@D@2@@std@@QEAA@QEBD@Z@4HA DD imagerel ?dtor$0@?0???0?$basic_string@DU?$char_traits@D@std@@V?$allocator@D@2@@std@@QEAA@QEBD@Z@4HA
	DD	imagerel ?dtor$0@?0???0?$basic_string@DU?$char_traits@D@std@@V?$allocator@D@2@@std@@QEAA@QEBD@Z@4HA+24
	DD	imagerel $unwind$?dtor$0@?0???0?$basic_string@DU?$char_traits@D@std@@V?$allocator@D@2@@std@@QEAA@QEBD@Z@4HA
pdata	ENDS
;	COMDAT pdata
pdata	SEGMENT
$pdata$?_Deallocate_for_capacity@?$basic_string@DU?$char_traits@D@std@@V?$allocator@D@2@@std@@CAXAEAV?$allocator@D@2@QEAD_K@Z DD imagerel $LN3
	DD	imagerel $LN3+51
	DD	imagerel $unwind$?_Deallocate_for_capacity@?$basic_string@DU?$char_traits@D@std@@V?$allocator@D@2@@std@@CAXAEAV?$allocator@D@2@QEAD_K@Z
pdata	ENDS
;	COMDAT pdata
pdata	SEGMENT
$pdata$??0?$basic_string@DU?$char_traits@D@std@@V?$allocator@D@2@@std@@QEAA@$$QEAV01@@Z DD imagerel $LN3
	DD	imagerel $LN3+95
	DD	imagerel $unwind$??0?$basic_string@DU?$char_traits@D@std@@V?$allocator@D@2@@std@@QEAA@$$QEAV01@@Z
pdata	ENDS
;	COMDAT pdata
pdata	SEGMENT
$pdata$?_Memcpy_val_from@?$basic_string@DU?$char_traits@D@std@@V?$allocator@D@2@@std@@AEAAXAEBV12@@Z DD imagerel $LN3
	DD	imagerel $LN3+76
	DD	imagerel $unwind$?_Memcpy_val_from@?$basic_string@DU?$char_traits@D@std@@V?$allocator@D@2@@std@@AEAAXAEBV12@@Z
pdata	ENDS
;	COMDAT pdata
pdata	SEGMENT
$pdata$?_Take_contents@?$basic_string@DU?$char_traits@D@std@@V?$allocator@D@2@@std@@AEAAXAEAV12@@Z DD imagerel $LN5
	DD	imagerel $LN5+245
	DD	imagerel $unwind$?_Take_contents@?$basic_string@DU?$char_traits@D@std@@V?$allocator@D@2@@std@@AEAAXAEAV12@@Z
pdata	ENDS
;	COMDAT pdata
pdata	SEGMENT
$pdata$??1?$basic_string@DU?$char_traits@D@std@@V?$allocator@D@2@@std@@QEAA@XZ DD imagerel $LN3
	DD	imagerel $LN3+37
	DD	imagerel $unwind$??1?$basic_string@DU?$char_traits@D@std@@V?$allocator@D@2@@std@@QEAA@XZ
pdata	ENDS
;	COMDAT pdata
pdata	SEGMENT
$pdata$?append@?$basic_string@DU?$char_traits@D@std@@V?$allocator@D@2@@std@@QEAAAEAV12@AEBV12@@Z DD imagerel $LN3
	DD	imagerel $LN3+54
	DD	imagerel $unwind$?append@?$basic_string@DU?$char_traits@D@std@@V?$allocator@D@2@@std@@QEAAAEAV12@AEBV12@@Z
pdata	ENDS
;	COMDAT pdata
pdata	SEGMENT
$pdata$?append@?$basic_string@DU?$char_traits@D@std@@V?$allocator@D@2@@std@@QEAAAEAV12@QEBD_K@Z DD imagerel $LN4
	DD	imagerel $LN4+250
	DD	imagerel $unwind$?append@?$basic_string@DU?$char_traits@D@std@@V?$allocator@D@2@@std@@QEAAAEAV12@QEBD_K@Z
pdata	ENDS
;	COMDAT pdata
pdata	SEGMENT
$pdata$?append@?$basic_string@DU?$char_traits@D@std@@V?$allocator@D@2@@std@@QEAAAEAV12@QEBD@Z DD imagerel $LN3
	DD	imagerel $LN3+55
	DD	imagerel $unwind$?append@?$basic_string@DU?$char_traits@D@std@@V?$allocator@D@2@@std@@QEAAAEAV12@QEBD@Z
pdata	ENDS
;	COMDAT pdata
pdata	SEGMENT
$pdata$?c_str@?$basic_string@DU?$char_traits@D@std@@V?$allocator@D@2@@std@@QEBAPEBDXZ DD imagerel $LN3
	DD	imagerel $LN3+27
	DD	imagerel $unwind$?c_str@?$basic_string@DU?$char_traits@D@std@@V?$allocator@D@2@@std@@QEBAPEBDXZ
pdata	ENDS
;	COMDAT pdata
pdata	SEGMENT
$pdata$?max_size@?$basic_string@DU?$char_traits@D@std@@V?$allocator@D@2@@std@@QEBA_KXZ DD imagerel $LN3
	DD	imagerel $LN3+110
	DD	imagerel $unwind$?max_size@?$basic_string@DU?$char_traits@D@std@@V?$allocator@D@2@@std@@QEBA_KXZ
pdata	ENDS
;	COMDAT pdata
pdata	SEGMENT
$pdata$?empty@?$basic_string@DU?$char_traits@D@std@@V?$allocator@D@2@@std@@QEBA_NXZ DD imagerel $LN5
	DD	imagerel $LN5+46
	DD	imagerel $unwind$?empty@?$basic_string@DU?$char_traits@D@std@@V?$allocator@D@2@@std@@QEBA_NXZ
pdata	ENDS
;	COMDAT pdata
pdata	SEGMENT
$pdata$?_Calculate_growth@?$basic_string@DU?$char_traits@D@std@@V?$allocator@D@2@@std@@CA_K_K00@Z DD imagerel $LN5
	DD	imagerel $LN5+146
	DD	imagerel $unwind$?_Calculate_growth@?$basic_string@DU?$char_traits@D@std@@V?$allocator@D@2@@std@@CA_K_K00@Z
pdata	ENDS
;	COMDAT pdata
pdata	SEGMENT
$pdata$?_Calculate_growth@?$basic_string@DU?$char_traits@D@std@@V?$allocator@D@2@@std@@AEBA_K_K@Z DD imagerel $LN3
	DD	imagerel $LN3+51
	DD	imagerel $unwind$?_Calculate_growth@?$basic_string@DU?$char_traits@D@std@@V?$allocator@D@2@@std@@AEBA_K_K@Z
pdata	ENDS
;	COMDAT pdata
pdata	SEGMENT
$pdata$?_Tidy_init@?$basic_string@DU?$char_traits@D@std@@V?$allocator@D@2@@std@@AEAAXXZ DD imagerel $LN3
	DD	imagerel $LN3+98
	DD	imagerel $unwind$?_Tidy_init@?$basic_string@DU?$char_traits@D@std@@V?$allocator@D@2@@std@@AEAAXXZ
pdata	ENDS
;	COMDAT pdata
pdata	SEGMENT
$pdata$?_Tidy_deallocate@?$basic_string@DU?$char_traits@D@std@@V?$allocator@D@2@@std@@AEAAXXZ DD imagerel $LN4
	DD	imagerel $LN4+190
	DD	imagerel $unwind$?_Tidy_deallocate@?$basic_string@DU?$char_traits@D@std@@V?$allocator@D@2@@std@@AEAAXXZ
pdata	ENDS
;	COMDAT pdata
pdata	SEGMENT
$pdata$?_Swap_proxy_and_iterators@?$basic_string@DU?$char_traits@D@std@@V?$allocator@D@2@@std@@AEAAXAEAV12@@Z DD imagerel $LN3
	DD	imagerel $LN3+37
	DD	imagerel $unwind$?_Swap_proxy_and_iterators@?$basic_string@DU?$char_traits@D@std@@V?$allocator@D@2@@std@@AEAAXAEAV12@@Z
pdata	ENDS
;	COMDAT pdata
pdata	SEGMENT
$pdata$?_Getal@?$basic_string@DU?$char_traits@D@std@@V?$allocator@D@2@@std@@AEAAAEAV?$allocator@D@2@XZ DD imagerel $LN3
	DD	imagerel $LN3+27
	DD	imagerel $unwind$?_Getal@?$basic_string@DU?$char_traits@D@std@@V?$allocator@D@2@@std@@AEAAAEAV?$allocator@D@2@XZ
pdata	ENDS
;	COMDAT pdata
pdata	SEGMENT
$pdata$?_Getal@?$basic_string@DU?$char_traits@D@std@@V?$allocator@D@2@@std@@AEBAAEBV?$allocator@D@2@XZ DD imagerel $LN3
	DD	imagerel $LN3+27
	DD	imagerel $unwind$?_Getal@?$basic_string@DU?$char_traits@D@std@@V?$allocator@D@2@@std@@AEBAAEBV?$allocator@D@2@XZ
pdata	ENDS
;	COMDAT pdata
pdata	SEGMENT
$pdata$??1?$_Compressed_pair@V?$allocator@D@std@@V?$_String_val@U?$_Simple_types@D@std@@@2@$00@std@@QEAA@XZ DD imagerel $LN3
	DD	imagerel $LN3+27
	DD	imagerel $unwind$??1?$_Compressed_pair@V?$allocator@D@std@@V?$_String_val@U?$_Simple_types@D@std@@@2@$00@std@@QEAA@XZ
pdata	ENDS
;	COMDAT pdata
pdata	SEGMENT
$pdata$??0runtime_error@std@@QEAA@AEBV?$basic_string@DU?$char_traits@D@std@@V?$allocator@D@2@@1@@Z DD imagerel $LN4
	DD	imagerel $LN4+62
	DD	imagerel $unwind$??0runtime_error@std@@QEAA@AEBV?$basic_string@DU?$char_traits@D@std@@V?$allocator@D@2@@1@@Z
pdata	ENDS
;	COMDAT pdata
pdata	SEGMENT
$pdata$??1runtime_error@std@@UEAA@XZ DD imagerel $LN3
	DD	imagerel $LN3+24
	DD	imagerel $unwind$??1runtime_error@std@@UEAA@XZ
pdata	ENDS
;	COMDAT pdata
pdata	SEGMENT
$pdata$??0runtime_error@std@@QEAA@AEBV01@@Z DD imagerel $LN3
	DD	imagerel $LN3+54
	DD	imagerel $unwind$??0runtime_error@std@@QEAA@AEBV01@@Z
pdata	ENDS
;	COMDAT pdata
pdata	SEGMENT
$pdata$??_Gruntime_error@std@@UEAAPEAXI@Z DD imagerel $LN4
	DD	imagerel $LN4+59
	DD	imagerel $unwind$??_Gruntime_error@std@@UEAAPEAXI@Z
pdata	ENDS
;	COMDAT pdata
pdata	SEGMENT
$pdata$?iostream_category@std@@YAAEBVerror_category@1@XZ DD imagerel $LN3
	DD	imagerel $LN3+14
	DD	imagerel $unwind$?iostream_category@std@@YAAEBVerror_category@1@XZ
pdata	ENDS
;	COMDAT pdata
pdata	SEGMENT
$pdata$?default_error_condition@error_category@std@@UEBA?AVerror_condition@2@H@Z DD imagerel $LN3
	DD	imagerel $LN3+48
	DD	imagerel $unwind$?default_error_condition@error_category@std@@UEBA?AVerror_condition@2@H@Z
pdata	ENDS
;	COMDAT pdata
pdata	SEGMENT
$pdata$?equivalent@error_category@std@@UEBA_NHAEBVerror_condition@2@@Z DD imagerel $LN3
	DD	imagerel $LN3+62
	DD	imagerel $unwind$?equivalent@error_category@std@@UEBA_NHAEBVerror_condition@2@@Z
pdata	ENDS
;	COMDAT pdata
pdata	SEGMENT
$pdata$?equivalent@error_category@std@@UEBA_NAEBVerror_code@2@H@Z DD imagerel $LN5
	DD	imagerel $LN5+93
	DD	imagerel $unwind$?equivalent@error_category@std@@UEBA_NAEBVerror_code@2@H@Z
pdata	ENDS
;	COMDAT pdata
pdata	SEGMENT
$pdata$??8error_category@std@@QEBA_NAEBV01@@Z DD imagerel $LN5
	DD	imagerel $LN5+88
	DD	imagerel $unwind$??8error_category@std@@QEBA_NAEBV01@@Z
pdata	ENDS
;	COMDAT pdata
pdata	SEGMENT
$pdata$??$_Bit_cast@_KT_Addr_storage@error_category@std@@$0A@@std@@YA_KAEBT_Addr_storage@error_category@0@@Z DD imagerel $LN3
	DD	imagerel $LN3+30
	DD	imagerel $unwind$??$_Bit_cast@_KT_Addr_storage@error_category@std@@$0A@@std@@YA_KAEBT_Addr_storage@error_category@0@@Z
pdata	ENDS
;	COMDAT pdata
pdata	SEGMENT
$pdata$?message@error_code@std@@QEBA?AV?$basic_string@DU?$char_traits@D@std@@V?$allocator@D@2@@2@XZ DD imagerel $LN5
	DD	imagerel $LN5+102
	DD	imagerel $unwind$?message@error_code@std@@QEBA?AV?$basic_string@DU?$char_traits@D@std@@V?$allocator@D@2@@2@XZ
pdata	ENDS
;	COMDAT pdata
pdata	SEGMENT
$pdata$??8std@@YA_NAEBVerror_condition@0@0@Z DD imagerel $LN5
	DD	imagerel $LN5+122
	DD	imagerel $unwind$??8std@@YA_NAEBVerror_condition@0@0@Z
pdata	ENDS
;	COMDAT pdata
pdata	SEGMENT
$pdata$?make_error_code@std@@YA?AVerror_code@1@W4io_errc@1@@Z DD imagerel $LN3
	DD	imagerel $LN3+45
	DD	imagerel $unwind$?make_error_code@std@@YA?AVerror_code@1@W4io_errc@1@@Z
pdata	ENDS
;	COMDAT pdata
pdata	SEGMENT
$pdata$?_Makestr@_System_error@std@@CA?AV?$basic_string@DU?$char_traits@D@std@@V?$allocator@D@2@@2@Verror_code@2@V32@@Z DD imagerel $LN8
	DD	imagerel $LN8+206
	DD	imagerel $unwind$?_Makestr@_System_error@std@@CA?AV?$basic_string@DU?$char_traits@D@std@@V?$allocator@D@2@@2@Verror_code@2@V32@@Z
pdata	ENDS
;	COMDAT pdata
pdata	SEGMENT
$pdata$?dtor$0@?0??_Makestr@_System_error@std@@CA?AV?$basic_string@DU?$char_traits@D@std@@V?$allocator@D@2@@2@Verror_code@2@V32@@Z@4HA DD imagerel ?dtor$0@?0??_Makestr@_System_error@std@@CA?AV?$basic_string@DU?$char_traits@D@std@@V?$allocator@D@2@@2@Verror_code@2@V32@@Z@4HA
	DD	imagerel ?dtor$0@?0??_Makestr@_System_error@std@@CA?AV?$basic_string@DU?$char_traits@D@std@@V?$allocator@D@2@@2@Verror_code@2@V32@@Z@4HA+27
	DD	imagerel $unwind$?dtor$0@?0??_Makestr@_System_error@std@@CA?AV?$basic_string@DU?$char_traits@D@std@@V?$allocator@D@2@@2@Verror_code@2@V32@@Z@4HA
pdata	ENDS
;	COMDAT pdata
pdata	SEGMENT
$pdata$?dtor$1@?0??_Makestr@_System_error@std@@CA?AV?$basic_string@DU?$char_traits@D@std@@V?$allocator@D@2@@2@Verror_code@2@V32@@Z@4HA DD imagerel ?dtor$1@?0??_Makestr@_System_error@std@@CA?AV?$basic_string@DU?$char_traits@D@std@@V?$allocator@D@2@@2@Verror_code@2@V32@@Z@4HA
	DD	imagerel ?dtor$1@?0??_Makestr@_System_error@std@@CA?AV?$basic_string@DU?$char_traits@D@std@@V?$allocator@D@2@@2@Verror_code@2@V32@@Z@4HA+24
	DD	imagerel $unwind$?dtor$1@?0??_Makestr@_System_error@std@@CA?AV?$basic_string@DU?$char_traits@D@std@@V?$allocator@D@2@@2@Verror_code@2@V32@@Z@4HA
pdata	ENDS
;	COMDAT pdata
pdata	SEGMENT
$pdata$??0_System_error@std@@IEAA@Verror_code@1@AEBV?$basic_string@DU?$char_traits@D@std@@V?$allocator@D@2@@1@@Z DD imagerel $LN6
	DD	imagerel $LN6+241
	DD	imagerel $unwind$??0_System_error@std@@IEAA@Verror_code@1@AEBV?$basic_string@DU?$char_traits@D@std@@V?$allocator@D@2@@1@@Z
pdata	ENDS
;	COMDAT pdata
pdata	SEGMENT
$pdata$?dtor$1@?0???0_System_error@std@@IEAA@Verror_code@1@AEBV?$basic_string@DU?$char_traits@D@std@@V?$allocator@D@2@@1@@Z@4HA DD imagerel ?dtor$1@?0???0_System_error@std@@IEAA@Verror_code@1@AEBV?$basic_string@DU?$char_traits@D@std@@V?$allocator@D@2@@1@@Z@4HA
	DD	imagerel ?dtor$1@?0???0_System_error@std@@IEAA@Verror_code@1@AEBV?$basic_string@DU?$char_traits@D@std@@V?$allocator@D@2@@1@@Z@4HA+24
	DD	imagerel $unwind$?dtor$1@?0???0_System_error@std@@IEAA@Verror_code@1@AEBV?$basic_string@DU?$char_traits@D@std@@V?$allocator@D@2@@1@@Z@4HA
pdata	ENDS
;	COMDAT pdata
pdata	SEGMENT
$pdata$??1_System_error@std@@UEAA@XZ DD imagerel $LN3
	DD	imagerel $LN3+24
	DD	imagerel $unwind$??1_System_error@std@@UEAA@XZ
pdata	ENDS
;	COMDAT pdata
pdata	SEGMENT
$pdata$??0_System_error@std@@QEAA@AEBV01@@Z DD imagerel $LN3
	DD	imagerel $LN3+83
	DD	imagerel $unwind$??0_System_error@std@@QEAA@AEBV01@@Z
pdata	ENDS
;	COMDAT pdata
pdata	SEGMENT
$pdata$??_G_System_error@std@@UEAAPEAXI@Z DD imagerel $LN4
	DD	imagerel $LN4+59
	DD	imagerel $unwind$??_G_System_error@std@@UEAAPEAXI@Z
pdata	ENDS
;	COMDAT pdata
pdata	SEGMENT
$pdata$??0system_error@std@@QEAA@Verror_code@1@PEBD@Z DD imagerel $LN5
	DD	imagerel $LN5+158
	DD	imagerel $unwind$??0system_error@std@@QEAA@Verror_code@1@PEBD@Z
pdata	ENDS
;	COMDAT pdata
pdata	SEGMENT
$pdata$?dtor$0@?0???0system_error@std@@QEAA@Verror_code@1@PEBD@Z@4HA DD imagerel ?dtor$0@?0???0system_error@std@@QEAA@Verror_code@1@PEBD@Z@4HA
	DD	imagerel ?dtor$0@?0???0system_error@std@@QEAA@Verror_code@1@PEBD@Z@4HA+24
	DD	imagerel $unwind$?dtor$0@?0???0system_error@std@@QEAA@Verror_code@1@PEBD@Z@4HA
pdata	ENDS
;	COMDAT pdata
pdata	SEGMENT
$pdata$??1system_error@std@@UEAA@XZ DD imagerel $LN3
	DD	imagerel $LN3+24
	DD	imagerel $unwind$??1system_error@std@@UEAA@XZ
pdata	ENDS
;	COMDAT pdata
pdata	SEGMENT
$pdata$??0system_error@std@@QEAA@AEBV01@@Z DD imagerel $LN3
	DD	imagerel $LN3+54
	DD	imagerel $unwind$??0system_error@std@@QEAA@AEBV01@@Z
pdata	ENDS
;	COMDAT pdata
pdata	SEGMENT
$pdata$??_Gsystem_error@std@@UEAAPEAXI@Z DD imagerel $LN4
	DD	imagerel $LN4+59
	DD	imagerel $unwind$??_Gsystem_error@std@@UEAAPEAXI@Z
pdata	ENDS
;	COMDAT pdata
pdata	SEGMENT
$pdata$?message@_Iostream_error_category2@std@@UEBA?AV?$basic_string@DU?$char_traits@D@std@@V?$allocator@D@2@@2@H@Z DD imagerel $LN7
	DD	imagerel $LN7+129
	DD	imagerel $unwind$?message@_Iostream_error_category2@std@@UEBA?AV?$basic_string@DU?$char_traits@D@std@@V?$allocator@D@2@@2@H@Z
pdata	ENDS
;	COMDAT pdata
pdata	SEGMENT
$pdata$??1_Iostream_error_category2@std@@UEAA@XZ DD imagerel $LN3
	DD	imagerel $LN3+24
	DD	imagerel $unwind$??1_Iostream_error_category2@std@@UEAA@XZ
pdata	ENDS
;	COMDAT pdata
pdata	SEGMENT
$pdata$??_G_Iostream_error_category2@std@@UEAAPEAXI@Z DD imagerel $LN4
	DD	imagerel $LN4+59
	DD	imagerel $unwind$??_G_Iostream_error_category2@std@@UEAAPEAXI@Z
pdata	ENDS
;	COMDAT pdata
pdata	SEGMENT
$pdata$??0bad_cast@std@@QEAA@XZ DD imagerel $LN3
	DD	imagerel $LN3+57
	DD	imagerel $unwind$??0bad_cast@std@@QEAA@XZ
pdata	ENDS
;	COMDAT pdata
pdata	SEGMENT
$pdata$??1bad_cast@std@@UEAA@XZ DD imagerel $LN3
	DD	imagerel $LN3+24
	DD	imagerel $unwind$??1bad_cast@std@@UEAA@XZ
pdata	ENDS
;	COMDAT pdata
pdata	SEGMENT
$pdata$??0bad_cast@std@@QEAA@AEBV01@@Z DD imagerel $LN3
	DD	imagerel $LN3+54
	DD	imagerel $unwind$??0bad_cast@std@@QEAA@AEBV01@@Z
pdata	ENDS
;	COMDAT pdata
pdata	SEGMENT
$pdata$??_Gbad_cast@std@@UEAAPEAXI@Z DD imagerel $LN4
	DD	imagerel $LN4+59
	DD	imagerel $unwind$??_Gbad_cast@std@@UEAAPEAXI@Z
pdata	ENDS
;	COMDAT pdata
pdata	SEGMENT
$pdata$?_Throw_bad_cast@std@@YAXXZ DD imagerel $LN3
	DD	imagerel $LN3+36
	DD	imagerel $unwind$?_Throw_bad_cast@std@@YAXXZ
pdata	ENDS
;	COMDAT pdata
pdata	SEGMENT
$pdata$??_G_Facet_base@std@@UEAAPEAXI@Z DD imagerel $LN4
	DD	imagerel $LN4+59
	DD	imagerel $unwind$??_G_Facet_base@std@@UEAAPEAXI@Z
pdata	ENDS
;	COMDAT pdata
pdata	SEGMENT
$pdata$??0_Locinfo@std@@QEAA@PEBD@Z DD imagerel $LN12
	DD	imagerel $LN12+186
	DD	imagerel $unwind$??0_Locinfo@std@@QEAA@PEBD@Z
pdata	ENDS
;	COMDAT pdata
pdata	SEGMENT
$pdata$?dtor$0@?0???0_Locinfo@std@@QEAA@PEBD@Z@4HA DD imagerel ?dtor$0@?0???0_Locinfo@std@@QEAA@PEBD@Z@4HA
	DD	imagerel ?dtor$0@?0???0_Locinfo@std@@QEAA@PEBD@Z@4HA+24
	DD	imagerel $unwind$?dtor$0@?0???0_Locinfo@std@@QEAA@PEBD@Z@4HA
pdata	ENDS
;	COMDAT pdata
pdata	SEGMENT
$pdata$?dtor$1@?0???0_Locinfo@std@@QEAA@PEBD@Z@4HA DD imagerel ?dtor$1@?0???0_Locinfo@std@@QEAA@PEBD@Z@4HA
	DD	imagerel ?dtor$1@?0???0_Locinfo@std@@QEAA@PEBD@Z@4HA+28
	DD	imagerel $unwind$?dtor$1@?0???0_Locinfo@std@@QEAA@PEBD@Z@4HA
pdata	ENDS
;	COMDAT pdata
pdata	SEGMENT
$pdata$?dtor$2@?0???0_Locinfo@std@@QEAA@PEBD@Z@4HA DD imagerel ?dtor$2@?0???0_Locinfo@std@@QEAA@PEBD@Z@4HA
	DD	imagerel ?dtor$2@?0???0_Locinfo@std@@QEAA@PEBD@Z@4HA+28
	DD	imagerel $unwind$?dtor$2@?0???0_Locinfo@std@@QEAA@PEBD@Z@4HA
pdata	ENDS
;	COMDAT pdata
pdata	SEGMENT
$pdata$?dtor$3@?0???0_Locinfo@std@@QEAA@PEBD@Z@4HA DD imagerel ?dtor$3@?0???0_Locinfo@std@@QEAA@PEBD@Z@4HA
	DD	imagerel ?dtor$3@?0???0_Locinfo@std@@QEAA@PEBD@Z@4HA+28
	DD	imagerel $unwind$?dtor$3@?0???0_Locinfo@std@@QEAA@PEBD@Z@4HA
pdata	ENDS
;	COMDAT pdata
pdata	SEGMENT
$pdata$?dtor$4@?0???0_Locinfo@std@@QEAA@PEBD@Z@4HA DD imagerel ?dtor$4@?0???0_Locinfo@std@@QEAA@PEBD@Z@4HA
	DD	imagerel ?dtor$4@?0???0_Locinfo@std@@QEAA@PEBD@Z@4HA+28
	DD	imagerel $unwind$?dtor$4@?0???0_Locinfo@std@@QEAA@PEBD@Z@4HA
pdata	ENDS
;	COMDAT pdata
pdata	SEGMENT
$pdata$?dtor$5@?0???0_Locinfo@std@@QEAA@PEBD@Z@4HA DD imagerel ?dtor$5@?0???0_Locinfo@std@@QEAA@PEBD@Z@4HA
	DD	imagerel ?dtor$5@?0???0_Locinfo@std@@QEAA@PEBD@Z@4HA+28
	DD	imagerel $unwind$?dtor$5@?0???0_Locinfo@std@@QEAA@PEBD@Z@4HA
pdata	ENDS
;	COMDAT pdata
pdata	SEGMENT
$pdata$?dtor$6@?0???0_Locinfo@std@@QEAA@PEBD@Z@4HA DD imagerel ?dtor$6@?0???0_Locinfo@std@@QEAA@PEBD@Z@4HA
	DD	imagerel ?dtor$6@?0???0_Locinfo@std@@QEAA@PEBD@Z@4HA+28
	DD	imagerel $unwind$?dtor$6@?0???0_Locinfo@std@@QEAA@PEBD@Z@4HA
pdata	ENDS
;	COMDAT pdata
pdata	SEGMENT
$pdata$??1_Locinfo@std@@QEAA@XZ DD imagerel $LN3
	DD	imagerel $LN3+140
	DD	imagerel $unwind$??1_Locinfo@std@@QEAA@XZ
pdata	ENDS
;	COMDAT pdata
pdata	SEGMENT
$pdata$?_Getctype@_Locinfo@std@@QEBA?AU_Ctypevec@@XZ DD imagerel $LN3
	DD	imagerel $LN3+82
	DD	imagerel $unwind$?_Getctype@_Locinfo@std@@QEBA?AU_Ctypevec@@XZ
pdata	ENDS
;	COMDAT pdata
pdata	SEGMENT
$pdata$??1?$_Yarn@D@std@@QEAA@XZ DD imagerel $LN3
	DD	imagerel $LN3+24
	DD	imagerel $unwind$??1?$_Yarn@D@std@@QEAA@XZ
pdata	ENDS
;	COMDAT pdata
pdata	SEGMENT
$pdata$?c_str@?$_Yarn@D@std@@QEBAPEBDXZ DD imagerel $LN5
	DD	imagerel $LN5+56
	DD	imagerel $unwind$?c_str@?$_Yarn@D@std@@QEBAPEBDXZ
pdata	ENDS
;	COMDAT pdata
pdata	SEGMENT
$pdata$?_Tidy@?$_Yarn@D@std@@AEAAXXZ DD imagerel $LN4
	DD	imagerel $LN4+50
	DD	imagerel $unwind$?_Tidy@?$_Yarn@D@std@@AEAAXXZ
pdata	ENDS
;	COMDAT pdata
pdata	SEGMENT
$pdata$??1?$_Yarn@_W@std@@QEAA@XZ DD imagerel $LN3
	DD	imagerel $LN3+24
	DD	imagerel $unwind$??1?$_Yarn@_W@std@@QEAA@XZ
pdata	ENDS
;	COMDAT pdata
pdata	SEGMENT
$pdata$?_Tidy@?$_Yarn@_W@std@@AEAAXXZ DD imagerel $LN4
	DD	imagerel $LN4+50
	DD	imagerel $unwind$?_Tidy@?$_Yarn@_W@std@@AEAAXXZ
pdata	ENDS
;	COMDAT pdata
pdata	SEGMENT
$pdata$??Bid@locale@std@@QEAA_KXZ DD imagerel $LN6
	DD	imagerel $LN6+95
	DD	imagerel $unwind$??Bid@locale@std@@QEAA_KXZ
pdata	ENDS
;	COMDAT pdata
pdata	SEGMENT
$pdata$??0facet@locale@std@@IEAA@_K@Z DD imagerel $LN3
	DD	imagerel $LN3+61
	DD	imagerel $unwind$??0facet@locale@std@@IEAA@_K@Z
pdata	ENDS
;	COMDAT pdata
pdata	SEGMENT
$pdata$??1facet@locale@std@@MEAA@XZ DD imagerel $LN3
	DD	imagerel $LN3+39
	DD	imagerel $unwind$??1facet@locale@std@@MEAA@XZ
pdata	ENDS
;	COMDAT pdata
pdata	SEGMENT
$pdata$??_Gfacet@locale@std@@MEAAPEAXI@Z DD imagerel $LN4
	DD	imagerel $LN4+59
	DD	imagerel $unwind$??_Gfacet@locale@std@@MEAAPEAXI@Z
pdata	ENDS
;	COMDAT pdata
pdata	SEGMENT
$pdata$??0locale@std@@QEAA@AEBV01@@Z DD imagerel $LN3
	DD	imagerel $LN3+66
	DD	imagerel $unwind$??0locale@std@@QEAA@AEBV01@@Z
pdata	ENDS
;	COMDAT pdata
pdata	SEGMENT
$pdata$??1locale@std@@QEAA@XZ DD imagerel $LN6
	DD	imagerel $LN6+99
	DD	imagerel $unwind$??1locale@std@@QEAA@XZ
pdata	ENDS
;	COMDAT pdata
pdata	SEGMENT
$pdata$?_C_str@locale@std@@QEBAPEBDXZ DD imagerel $LN5
	DD	imagerel $LN5+71
	DD	imagerel $unwind$?_C_str@locale@std@@QEBAPEBDXZ
pdata	ENDS
;	COMDAT pdata
pdata	SEGMENT
$pdata$?_Getfacet@locale@std@@QEBAPEBVfacet@12@_K@Z DD imagerel $LN8
	DD	imagerel $LN8+167
	DD	imagerel $unwind$?_Getfacet@locale@std@@QEBAPEBVfacet@12@_K@Z
pdata	ENDS
;	COMDAT pdata
pdata	SEGMENT
$pdata$??0ctype_base@std@@QEAA@_K@Z DD imagerel $LN3
	DD	imagerel $LN3+54
	DD	imagerel $unwind$??0ctype_base@std@@QEAA@_K@Z
pdata	ENDS
;	COMDAT pdata
pdata	SEGMENT
$pdata$??1ctype_base@std@@UEAA@XZ DD imagerel $LN3
	DD	imagerel $LN3+39
	DD	imagerel $unwind$??1ctype_base@std@@UEAA@XZ
pdata	ENDS
;	COMDAT pdata
pdata	SEGMENT
$pdata$??_Gctype_base@std@@UEAAPEAXI@Z DD imagerel $LN4
	DD	imagerel $LN4+59
	DD	imagerel $unwind$??_Gctype_base@std@@UEAAPEAXI@Z
pdata	ENDS
;	COMDAT pdata
pdata	SEGMENT
$pdata$?widen@?$ctype@D@std@@QEBADD@Z DD imagerel $LN3
	DD	imagerel $LN3+39
	DD	imagerel $unwind$?widen@?$ctype@D@std@@QEBADD@Z
pdata	ENDS
;	COMDAT pdata
pdata	SEGMENT
$pdata$??0?$ctype@D@std@@QEAA@AEBV_Locinfo@1@_K@Z DD imagerel $LN4
	DD	imagerel $LN4+76
	DD	imagerel $unwind$??0?$ctype@D@std@@QEAA@AEBV_Locinfo@1@_K@Z
pdata	ENDS
;	COMDAT pdata
pdata	SEGMENT
$pdata$?dtor$0@?0???0?$ctype@D@std@@QEAA@AEBV_Locinfo@1@_K@Z@4HA DD imagerel ?dtor$0@?0???0?$ctype@D@std@@QEAA@AEBV_Locinfo@1@_K@Z@4HA
	DD	imagerel ?dtor$0@?0???0?$ctype@D@std@@QEAA@AEBV_Locinfo@1@_K@Z@4HA+24
	DD	imagerel $unwind$?dtor$0@?0???0?$ctype@D@std@@QEAA@AEBV_Locinfo@1@_K@Z@4HA
pdata	ENDS
;	COMDAT pdata
pdata	SEGMENT
$pdata$?_Getcat@?$ctype@D@std@@SA_KPEAPEBVfacet@locale@2@PEBV42@@Z DD imagerel $LN10
	DD	imagerel $LN10+232
	DD	imagerel $unwind$?_Getcat@?$ctype@D@std@@SA_KPEAPEBVfacet@locale@2@PEBV42@@Z
pdata	ENDS
;	COMDAT pdata
pdata	SEGMENT
$pdata$?dtor$0@?0??_Getcat@?$ctype@D@std@@SA_KPEAPEBVfacet@locale@2@PEBV42@@Z@4HA DD imagerel ?dtor$0@?0??_Getcat@?$ctype@D@std@@SA_KPEAPEBVfacet@locale@2@PEBV42@@Z@4HA
	DD	imagerel ?dtor$0@?0??_Getcat@?$ctype@D@std@@SA_KPEAPEBVfacet@locale@2@PEBV42@@Z@4HA+29
	DD	imagerel $unwind$?dtor$0@?0??_Getcat@?$ctype@D@std@@SA_KPEAPEBVfacet@locale@2@PEBV42@@Z@4HA
pdata	ENDS
;	COMDAT pdata
pdata	SEGMENT
$pdata$?dtor$1@?0??_Getcat@?$ctype@D@std@@SA_KPEAPEBVfacet@locale@2@PEBV42@@Z@4HA DD imagerel ?dtor$1@?0??_Getcat@?$ctype@D@std@@SA_KPEAPEBVfacet@locale@2@PEBV42@@Z@4HA
	DD	imagerel ?dtor$1@?0??_Getcat@?$ctype@D@std@@SA_KPEAPEBVfacet@locale@2@PEBV42@@Z@4HA+38
	DD	imagerel $unwind$?dtor$1@?0??_Getcat@?$ctype@D@std@@SA_KPEAPEBVfacet@locale@2@PEBV42@@Z@4HA
pdata	ENDS
;	COMDAT pdata
pdata	SEGMENT
$pdata$??1?$ctype@D@std@@MEAA@XZ DD imagerel $LN3
	DD	imagerel $LN3+49
	DD	imagerel $unwind$??1?$ctype@D@std@@MEAA@XZ
pdata	ENDS
;	COMDAT pdata
pdata	SEGMENT
$pdata$?_Init@?$ctype@D@std@@IEAAXAEBV_Locinfo@2@@Z DD imagerel $LN3
	DD	imagerel $LN3+57
	DD	imagerel $unwind$?_Init@?$ctype@D@std@@IEAAXAEBV_Locinfo@2@@Z
pdata	ENDS
;	COMDAT pdata
pdata	SEGMENT
$pdata$?_Tidy@?$ctype@D@std@@IEAAXXZ DD imagerel $LN6
	DD	imagerel $LN6+90
	DD	imagerel $unwind$?_Tidy@?$ctype@D@std@@IEAAXXZ
pdata	ENDS
;	COMDAT pdata
pdata	SEGMENT
$pdata$?do_tolower@?$ctype@D@std@@MEBADD@Z DD imagerel $LN3
	DD	imagerel $LN3+40
	DD	imagerel $unwind$?do_tolower@?$ctype@D@std@@MEBADD@Z
pdata	ENDS
;	COMDAT pdata
pdata	SEGMENT
$pdata$?do_tolower@?$ctype@D@std@@MEBAPEBDPEADPEBD@Z DD imagerel $LN6
	DD	imagerel $LN6+105
	DD	imagerel $unwind$?do_tolower@?$ctype@D@std@@MEBAPEBDPEADPEBD@Z
pdata	ENDS
;	COMDAT pdata
pdata	SEGMENT
$pdata$?do_toupper@?$ctype@D@std@@MEBADD@Z DD imagerel $LN3
	DD	imagerel $LN3+40
	DD	imagerel $unwind$?do_toupper@?$ctype@D@std@@MEBADD@Z
pdata	ENDS
;	COMDAT pdata
pdata	SEGMENT
$pdata$?do_toupper@?$ctype@D@std@@MEBAPEBDPEADPEBD@Z DD imagerel $LN6
	DD	imagerel $LN6+105
	DD	imagerel $unwind$?do_toupper@?$ctype@D@std@@MEBAPEBDPEADPEBD@Z
pdata	ENDS
;	COMDAT pdata
pdata	SEGMENT
$pdata$?do_widen@?$ctype@D@std@@MEBAPEBDPEBD0PEAD@Z DD imagerel $LN3
	DD	imagerel $LN3+83
	DD	imagerel $unwind$?do_widen@?$ctype@D@std@@MEBAPEBDPEBD0PEAD@Z
pdata	ENDS
;	COMDAT pdata
pdata	SEGMENT
$pdata$?do_narrow@?$ctype@D@std@@MEBAPEBDPEBD0DPEAD@Z DD imagerel $LN3
	DD	imagerel $LN3+83
	DD	imagerel $unwind$?do_narrow@?$ctype@D@std@@MEBAPEBDPEBD0DPEAD@Z
pdata	ENDS
;	COMDAT pdata
pdata	SEGMENT
$pdata$??_G?$ctype@D@std@@MEAAPEAXI@Z DD imagerel $LN4
	DD	imagerel $LN4+59
	DD	imagerel $unwind$??_G?$ctype@D@std@@MEAAPEAXI@Z
pdata	ENDS
;	COMDAT pdata
pdata	SEGMENT
$pdata$??$use_facet@V?$ctype@D@std@@@std@@YAAEBV?$ctype@D@0@AEBVlocale@0@@Z DD imagerel $LN11
	DD	imagerel $LN11+257
	DD	imagerel $unwind$??$use_facet@V?$ctype@D@std@@@std@@YAAEBV?$ctype@D@0@AEBVlocale@0@@Z
pdata	ENDS
;	COMDAT pdata
pdata	SEGMENT
$pdata$?dtor$0@?0???$use_facet@V?$ctype@D@std@@@std@@YAAEBV?$ctype@D@0@AEBVlocale@0@@Z@4HA DD imagerel ?dtor$0@?0???$use_facet@V?$ctype@D@std@@@std@@YAAEBV?$ctype@D@0@AEBVlocale@0@@Z@4HA
	DD	imagerel ?dtor$0@?0???$use_facet@V?$ctype@D@std@@@std@@YAAEBV?$ctype@D@0@AEBVlocale@0@@Z@4HA+24
	DD	imagerel $unwind$?dtor$0@?0???$use_facet@V?$ctype@D@std@@@std@@YAAEBV?$ctype@D@0@AEBVlocale@0@@Z@4HA
pdata	ENDS
;	COMDAT pdata
pdata	SEGMENT
$pdata$?dtor$1@?0???$use_facet@V?$ctype@D@std@@@std@@YAAEBV?$ctype@D@0@AEBVlocale@0@@Z@4HA DD imagerel ?dtor$1@?0???$use_facet@V?$ctype@D@std@@@std@@YAAEBV?$ctype@D@0@AEBVlocale@0@@Z@4HA
	DD	imagerel ?dtor$1@?0???$use_facet@V?$ctype@D@std@@@std@@YAAEBV?$ctype@D@0@AEBVlocale@0@@Z@4HA+24
	DD	imagerel $unwind$?dtor$1@?0???$use_facet@V?$ctype@D@std@@@std@@YAAEBV?$ctype@D@0@AEBVlocale@0@@Z@4HA
pdata	ENDS
;	COMDAT pdata
pdata	SEGMENT
$pdata$??0failure@ios_base@std@@QEAA@PEBDAEBVerror_code@2@@Z DD imagerel $LN4
	DD	imagerel $LN4+88
	DD	imagerel $unwind$??0failure@ios_base@std@@QEAA@PEBDAEBVerror_code@2@@Z
pdata	ENDS
;	COMDAT pdata
pdata	SEGMENT
$pdata$??1failure@ios_base@std@@UEAA@XZ DD imagerel $LN3
	DD	imagerel $LN3+24
	DD	imagerel $unwind$??1failure@ios_base@std@@UEAA@XZ
pdata	ENDS
;	COMDAT pdata
pdata	SEGMENT
$pdata$??0failure@ios_base@std@@QEAA@AEBV012@@Z DD imagerel $LN3
	DD	imagerel $LN3+54
	DD	imagerel $unwind$??0failure@ios_base@std@@QEAA@AEBV012@@Z
pdata	ENDS
;	COMDAT pdata
pdata	SEGMENT
$pdata$??_Gfailure@ios_base@std@@UEAAPEAXI@Z DD imagerel $LN4
	DD	imagerel $LN4+59
	DD	imagerel $unwind$??_Gfailure@ios_base@std@@UEAAPEAXI@Z
pdata	ENDS
;	COMDAT pdata
pdata	SEGMENT
$pdata$?clear@ios_base@std@@QEAAXH_N@Z DD imagerel $LN9
	DD	imagerel $LN9+228
	DD	imagerel $unwind$?clear@ios_base@std@@QEAAXH_N@Z
pdata	ENDS
;	COMDAT pdata
pdata	SEGMENT
$pdata$?good@ios_base@std@@QEBA_NXZ DD imagerel $LN5
	DD	imagerel $LN5+51
	DD	imagerel $unwind$?good@ios_base@std@@QEBA_NXZ
pdata	ENDS
;	COMDAT pdata
pdata	SEGMENT
$pdata$?width@ios_base@std@@QEAA_J_J@Z DD imagerel $LN3
	DD	imagerel $LN3+50
	DD	imagerel $unwind$?width@ios_base@std@@QEAA_J_J@Z
pdata	ENDS
;	COMDAT pdata
pdata	SEGMENT
$pdata$?getloc@ios_base@std@@QEBA?AVlocale@2@XZ DD imagerel $LN3
	DD	imagerel $LN3+43
	DD	imagerel $unwind$?getloc@ios_base@std@@QEBA?AVlocale@2@XZ
pdata	ENDS
pdata	SEGMENT
$pdata$main DD	imagerel $LN3
	DD	imagerel $LN3+45
	DD	imagerel $unwind$main
pdata	ENDS
;	COMDAT pdata
pdata	SEGMENT
$pdata$?clear@?$basic_ios@DU?$char_traits@D@std@@@std@@QEAAXH_N@Z DD imagerel $LN5
	DD	imagerel $LN5+83
	DD	imagerel $unwind$?clear@?$basic_ios@DU?$char_traits@D@std@@@std@@QEAAXH_N@Z
pdata	ENDS
;	COMDAT pdata
pdata	SEGMENT
$pdata$?setstate@?$basic_ios@DU?$char_traits@D@std@@@std@@QEAAXH_N@Z DD imagerel $LN3
	DD	imagerel $LN3+55
	DD	imagerel $unwind$?setstate@?$basic_ios@DU?$char_traits@D@std@@@std@@QEAAXH_N@Z
pdata	ENDS
;	COMDAT pdata
pdata	SEGMENT
$pdata$?widen@?$basic_ios@DU?$char_traits@D@std@@@std@@QEBADD@Z DD imagerel $LN4
	DD	imagerel $LN4+90
	DD	imagerel $unwind$?widen@?$basic_ios@DU?$char_traits@D@std@@@std@@QEBADD@Z
pdata	ENDS
;	COMDAT pdata
pdata	SEGMENT
$pdata$?dtor$0@?0??widen@?$basic_ios@DU?$char_traits@D@std@@@std@@QEBADD@Z@4HA DD imagerel ?dtor$0@?0??widen@?$basic_ios@DU?$char_traits@D@std@@@std@@QEBADD@Z@4HA
	DD	imagerel ?dtor$0@?0??widen@?$basic_ios@DU?$char_traits@D@std@@@std@@QEBADD@Z@4HA+24
	DD	imagerel $unwind$?dtor$0@?0??widen@?$basic_ios@DU?$char_traits@D@std@@@std@@QEBADD@Z@4HA
pdata	ENDS
;	COMDAT pdata
pdata	SEGMENT
$pdata$?_Osfx@?$basic_ostream@DU?$char_traits@D@std@@@std@@QEAAXXZ DD imagerel $LN11
	DD	imagerel $LN11+186
	DD	imagerel $unwind$?_Osfx@?$basic_ostream@DU?$char_traits@D@std@@@std@@QEAAXXZ
pdata	ENDS
;	COMDAT pdata
pdata	SEGMENT
$pdata$?catch$0@?0??_Osfx@?$basic_ostream@DU?$char_traits@D@std@@@std@@QEAAXXZ@4HA DD imagerel ?catch$0@?0??_Osfx@?$basic_ostream@DU?$char_traits@D@std@@@std@@QEAAXXZ@4HA
	DD	imagerel ?catch$0@?0??_Osfx@?$basic_ostream@DU?$char_traits@D@std@@@std@@QEAAXXZ@4HA+27
	DD	imagerel $unwind$?catch$0@?0??_Osfx@?$basic_ostream@DU?$char_traits@D@std@@@std@@QEAAXXZ@4HA
pdata	ENDS
;	COMDAT pdata
pdata	SEGMENT
$pdata$??6?$basic_ostream@DU?$char_traits@D@std@@@std@@QEAAAEAV01@P6AAEAV01@AEAV01@@Z@Z DD imagerel $LN3
	DD	imagerel $LN3+28
	DD	imagerel $unwind$??6?$basic_ostream@DU?$char_traits@D@std@@@std@@QEAAAEAV01@P6AAEAV01@AEAV01@@Z@Z
pdata	ENDS
;	COMDAT pdata
pdata	SEGMENT
$pdata$?put@?$basic_ostream@DU?$char_traits@D@std@@@std@@QEAAAEAV12@D@Z DD imagerel $LN13
	DD	imagerel $LN13+219
	DD	imagerel $unwind$?put@?$basic_ostream@DU?$char_traits@D@std@@@std@@QEAAAEAV12@D@Z
pdata	ENDS
;	COMDAT pdata
pdata	SEGMENT
$pdata$?dtor$0@?0??put@?$basic_ostream@DU?$char_traits@D@std@@@std@@QEAAAEAV12@D@Z@4HA DD imagerel ?dtor$0@?0??put@?$basic_ostream@DU?$char_traits@D@std@@@std@@QEAAAEAV12@D@Z@4HA
	DD	imagerel ?dtor$0@?0??put@?$basic_ostream@DU?$char_traits@D@std@@@std@@QEAAAEAV12@D@Z@4HA+24
	DD	imagerel $unwind$?dtor$0@?0??put@?$basic_ostream@DU?$char_traits@D@std@@@std@@QEAAAEAV12@D@Z@4HA
pdata	ENDS
;	COMDAT pdata
pdata	SEGMENT
$pdata$?catch$1@?0??put@?$basic_ostream@DU?$char_traits@D@std@@@std@@QEAAAEAV12@D@Z@4HA DD imagerel ?catch$1@?0??put@?$basic_ostream@DU?$char_traits@D@std@@@std@@QEAAAEAV12@D@Z@4HA
	DD	imagerel ?catch$1@?0??put@?$basic_ostream@DU?$char_traits@D@std@@@std@@QEAAAEAV12@D@Z@4HA+65
	DD	imagerel $unwind$?catch$1@?0??put@?$basic_ostream@DU?$char_traits@D@std@@@std@@QEAAAEAV12@D@Z@4HA
pdata	ENDS
;	COMDAT pdata
pdata	SEGMENT
$pdata$?flush@?$basic_ostream@DU?$char_traits@D@std@@@std@@QEAAAEAV12@XZ DD imagerel $LN13
	DD	imagerel $LN13+187
	DD	imagerel $unwind$?flush@?$basic_ostream@DU?$char_traits@D@std@@@std@@QEAAAEAV12@XZ
pdata	ENDS
;	COMDAT pdata
pdata	SEGMENT
$pdata$?dtor$0@?0??flush@?$basic_ostream@DU?$char_traits@D@std@@@std@@QEAAAEAV12@XZ@4HA DD imagerel ?dtor$0@?0??flush@?$basic_ostream@DU?$char_traits@D@std@@@std@@QEAAAEAV12@XZ@4HA
	DD	imagerel ?dtor$0@?0??flush@?$basic_ostream@DU?$char_traits@D@std@@@std@@QEAAAEAV12@XZ@4HA+24
	DD	imagerel $unwind$?dtor$0@?0??flush@?$basic_ostream@DU?$char_traits@D@std@@@std@@QEAAAEAV12@XZ@4HA
pdata	ENDS
;	COMDAT pdata
pdata	SEGMENT
$pdata$?catch$1@?0??flush@?$basic_ostream@DU?$char_traits@D@std@@@std@@QEAAAEAV12@XZ@4HA DD imagerel ?catch$1@?0??flush@?$basic_ostream@DU?$char_traits@D@std@@@std@@QEAAAEAV12@XZ@4HA
	DD	imagerel ?catch$1@?0??flush@?$basic_ostream@DU?$char_traits@D@std@@@std@@QEAAAEAV12@XZ@4HA+65
	DD	imagerel $unwind$?catch$1@?0??flush@?$basic_ostream@DU?$char_traits@D@std@@@std@@QEAAAEAV12@XZ@4HA
pdata	ENDS
;	COMDAT pdata
pdata	SEGMENT
$pdata$??$?6U?$char_traits@D@std@@@std@@YAAEAV?$basic_ostream@DU?$char_traits@D@std@@@0@AEAV10@PEBD@Z DD imagerel $LN25
	DD	imagerel $LN25+846
	DD	imagerel $unwind$??$?6U?$char_traits@D@std@@@std@@YAAEAV?$basic_ostream@DU?$char_traits@D@std@@@0@AEAV10@PEBD@Z
pdata	ENDS
;	COMDAT pdata
pdata	SEGMENT
$pdata$?dtor$0@?0???$?6U?$char_traits@D@std@@@std@@YAAEAV?$basic_ostream@DU?$char_traits@D@std@@@0@AEAV10@PEBD@Z@4HA DD imagerel ?dtor$0@?0???$?6U?$char_traits@D@std@@@std@@YAAEAV?$basic_ostream@DU?$char_traits@D@std@@@0@AEAV10@PEBD@Z@4HA
	DD	imagerel ?dtor$0@?0???$?6U?$char_traits@D@std@@@std@@YAAEAV?$basic_ostream@DU?$char_traits@D@std@@@0@AEAV10@PEBD@Z@4HA+24
	DD	imagerel $unwind$?dtor$0@?0???$?6U?$char_traits@D@std@@@std@@YAAEAV?$basic_ostream@DU?$char_traits@D@std@@@0@AEAV10@PEBD@Z@4HA
pdata	ENDS
;	COMDAT pdata
pdata	SEGMENT
$pdata$?catch$1@?0???$?6U?$char_traits@D@std@@@std@@YAAEAV?$basic_ostream@DU?$char_traits@D@std@@@0@AEAV10@PEBD@Z@4HA DD imagerel ?catch$1@?0???$?6U?$char_traits@D@std@@@std@@YAAEAV?$basic_ostream@DU?$char_traits@D@std@@@0@AEAV10@PEBD@Z@4HA
	DD	imagerel ?catch$1@?0???$?6U?$char_traits@D@std@@@std@@YAAEAV?$basic_ostream@DU?$char_traits@D@std@@@0@AEAV10@PEBD@Z@4HA+71
	DD	imagerel $unwind$?catch$1@?0???$?6U?$char_traits@D@std@@@std@@YAAEAV?$basic_ostream@DU?$char_traits@D@std@@@0@AEAV10@PEBD@Z@4HA
pdata	ENDS
;	COMDAT pdata
pdata	SEGMENT
$pdata$??$endl@DU?$char_traits@D@std@@@std@@YAAEAV?$basic_ostream@DU?$char_traits@D@std@@@0@AEAV10@@Z DD imagerel $LN3
	DD	imagerel $LN3+75
	DD	imagerel $unwind$??$endl@DU?$char_traits@D@std@@@std@@YAAEAV?$basic_ostream@DU?$char_traits@D@std@@@0@AEAV10@@Z
pdata	ENDS
;	COMDAT pdata
pdata	SEGMENT
$pdata$??$?0V?$allocator@D@std@@$$V@?$_Compressed_pair@V?$allocator@D@std@@V?$_String_val@U?$_Simple_types@D@std@@@2@$00@std@@QEAA@U_One_then_variadic_args_t@1@$$QEAV?$allocator@D@1@@Z DD imagerel $LN3
	DD	imagerel $LN3+51
	DD	imagerel $unwind$??$?0V?$allocator@D@std@@$$V@?$_Compressed_pair@V?$allocator@D@std@@V?$_String_val@U?$_Simple_types@D@std@@@2@$00@std@@QEAA@U_One_then_variadic_args_t@1@$$QEAV?$allocator@D@1@@Z
pdata	ENDS
;	COMDAT pdata
pdata	SEGMENT
$pdata$??$?0$$V@?$_Compressed_pair@V?$allocator@D@std@@V?$_String_val@U?$_Simple_types@D@std@@@2@$00@std@@QEAA@U_Zero_then_variadic_args_t@1@@Z DD imagerel $LN3
	DD	imagerel $LN3+46
	DD	imagerel $unwind$??$?0$$V@?$_Compressed_pair@V?$allocator@D@std@@V?$_String_val@U?$_Simple_types@D@std@@@2@$00@std@@QEAA@U_Zero_then_variadic_args_t@1@@Z
pdata	ENDS
;	COMDAT pdata
pdata	SEGMENT
$pdata$??$_Construct@$00PEBD@?$basic_string@DU?$char_traits@D@std@@V?$allocator@D@2@@std@@AEAAXQEBD_K@Z DD imagerel $LN5
	DD	imagerel $LN5+380
	DD	imagerel $unwind$??$_Construct@$00PEBD@?$basic_string@DU?$char_traits@D@std@@V?$allocator@D@2@@std@@AEAAXQEBD_K@Z
pdata	ENDS
;	COMDAT pdata
pdata	SEGMENT
$pdata$??$_Construct@$01PEBD@?$basic_string@DU?$char_traits@D@std@@V?$allocator@D@2@@std@@AEAAXQEBD_K@Z DD imagerel $LN5
	DD	imagerel $LN5+348
	DD	imagerel $unwind$??$_Construct@$01PEBD@?$basic_string@DU?$char_traits@D@std@@V?$allocator@D@2@@std@@AEAAXQEBD_K@Z
pdata	ENDS
;	COMDAT pdata
pdata	SEGMENT
$pdata$??R<lambda_65e615be2a453ca0576c979606f46740>@@QEBA@QEADQEBD_K12@Z DD imagerel $LN3
	DD	imagerel $LN3+128
	DD	imagerel $unwind$??R<lambda_65e615be2a453ca0576c979606f46740>@@QEBA@QEADQEBD_K12@Z
pdata	ENDS
;	COMDAT pdata
pdata	SEGMENT
$pdata$??$_Reallocate_grow_by@V<lambda_65e615be2a453ca0576c979606f46740>@@PEBD_K@?$basic_string@DU?$char_traits@D@std@@V?$allocator@D@2@@std@@AEAAAEAV01@_KV<lambda_65e615be2a453ca0576c979606f46740>@@PEBD_K@Z DD imagerel $LN6
	DD	imagerel $LN6+448
	DD	imagerel $unwind$??$_Reallocate_grow_by@V<lambda_65e615be2a453ca0576c979606f46740>@@PEBD_K@?$basic_string@DU?$char_traits@D@std@@V?$allocator@D@2@@std@@AEAAAEAV01@_KV<lambda_65e615be2a453ca0576c979606f46740>@@PEBD_K@Z
pdata	ENDS
;	COMDAT pdata
pdata	SEGMENT
$pdata$??$_Construct_in_place@PEADAEAPEAD@std@@YAXAEAPEAD0@Z DD imagerel $LN3
	DD	imagerel $LN3+68
	DD	imagerel $unwind$??$_Construct_in_place@PEADAEAPEAD@std@@YAXAEAPEAD0@Z
pdata	ENDS
;	COMDAT pdata
pdata	SEGMENT
$pdata$??$max@_K@std@@YAAEB_KAEB_K0@Z DD imagerel $LN5
	DD	imagerel $LN5+71
	DD	imagerel $unwind$??$max@_K@std@@YAAEB_KAEB_K0@Z
pdata	ENDS
;	COMDAT pdata
pdata	SEGMENT
$pdata$??$_Deallocate@$0BA@$0A@@std@@YAXPEAX_K@Z DD imagerel $LN4
	DD	imagerel $LN4+61
	DD	imagerel $unwind$??$_Deallocate@$0BA@$0A@@std@@YAXPEAX_K@Z
pdata	ENDS
;	COMDAT pdata
pdata	SEGMENT
$pdata$??$min@_K@std@@YAAEB_KAEB_K0@Z DD imagerel $LN5
	DD	imagerel $LN5+71
	DD	imagerel $unwind$??$min@_K@std@@YAAEB_KAEB_K0@Z
pdata	ENDS
;	COMDAT pdata
pdata	SEGMENT
$pdata$??R?$default_delete@V_Facet_base@std@@@std@@QEBAXPEAV_Facet_base@1@@Z DD imagerel $LN5
	DD	imagerel $LN5+73
	DD	imagerel $unwind$??R?$default_delete@V_Facet_base@std@@@std@@QEBAXPEAV_Facet_base@1@@Z
pdata	ENDS
;	COMDAT pdata
pdata	SEGMENT
$pdata$??1?$unique_ptr@V_Facet_base@std@@U?$default_delete@V_Facet_base@std@@@2@@std@@QEAA@XZ DD imagerel $LN4
	DD	imagerel $LN4+54
	DD	imagerel $unwind$??1?$unique_ptr@V_Facet_base@std@@U?$default_delete@V_Facet_base@std@@@2@@std@@QEAA@XZ
pdata	ENDS
;	COMDAT pdata
pdata	SEGMENT
$pdata$?release@?$unique_ptr@V_Facet_base@std@@U?$default_delete@V_Facet_base@std@@@2@@std@@QEAAPEAV_Facet_base@2@XZ DD imagerel $LN3
	DD	imagerel $LN3+41
	DD	imagerel $unwind$?release@?$unique_ptr@V_Facet_base@std@@U?$default_delete@V_Facet_base@std@@@2@@std@@QEAAPEAV_Facet_base@2@XZ
pdata	ENDS
;	COMDAT pdata
pdata	SEGMENT
$pdata$??$?0U?$default_delete@V_Facet_base@std@@@std@@$0A@@?$unique_ptr@V_Facet_base@std@@U?$default_delete@V_Facet_base@std@@@2@@std@@QEAA@PEAV_Facet_base@1@@Z DD imagerel $LN3
	DD	imagerel $LN3+47
	DD	imagerel $unwind$??$?0U?$default_delete@V_Facet_base@std@@@std@@$0A@@?$unique_ptr@V_Facet_base@std@@U?$default_delete@V_Facet_base@std@@@2@@std@@QEAA@PEAV_Facet_base@1@@Z
pdata	ENDS
;	COMDAT pdata
pdata	SEGMENT
$pdata$??0_Sentry_base@?$basic_ostream@DU?$char_traits@D@std@@@std@@QEAA@AEAV12@@Z DD imagerel $LN4
	DD	imagerel $LN4+110
	DD	imagerel $unwind$??0_Sentry_base@?$basic_ostream@DU?$char_traits@D@std@@@std@@QEAA@AEAV12@@Z
pdata	ENDS
;	COMDAT pdata
pdata	SEGMENT
$pdata$??1_Sentry_base@?$basic_ostream@DU?$char_traits@D@std@@@std@@QEAA@XZ DD imagerel $LN4
	DD	imagerel $LN4+88
	DD	imagerel $unwind$??1_Sentry_base@?$basic_ostream@DU?$char_traits@D@std@@@std@@QEAA@XZ
pdata	ENDS
;	COMDAT pdata
pdata	SEGMENT
$pdata$??0sentry@?$basic_ostream@DU?$char_traits@D@std@@@std@@QEAA@AEAV12@@Z DD imagerel $LN7
	DD	imagerel $LN7+205
	DD	imagerel $unwind$??0sentry@?$basic_ostream@DU?$char_traits@D@std@@@std@@QEAA@AEAV12@@Z
pdata	ENDS
;	COMDAT pdata
pdata	SEGMENT
$pdata$?dtor$0@?0???0sentry@?$basic_ostream@DU?$char_traits@D@std@@@std@@QEAA@AEAV12@@Z@4HA DD imagerel ?dtor$0@?0???0sentry@?$basic_ostream@DU?$char_traits@D@std@@@std@@QEAA@AEAV12@@Z@4HA
	DD	imagerel ?dtor$0@?0???0sentry@?$basic_ostream@DU?$char_traits@D@std@@@std@@QEAA@AEAV12@@Z@4HA+24
	DD	imagerel $unwind$?dtor$0@?0???0sentry@?$basic_ostream@DU?$char_traits@D@std@@@std@@QEAA@AEAV12@@Z@4HA
pdata	ENDS
;	COMDAT pdata
pdata	SEGMENT
$pdata$??1sentry@?$basic_ostream@DU?$char_traits@D@std@@@std@@QEAA@XZ DD imagerel $LN6
	DD	imagerel $LN6+79
	DD	imagerel $unwind$??1sentry@?$basic_ostream@DU?$char_traits@D@std@@@std@@QEAA@XZ
pdata	ENDS
;	COMDAT pdata
pdata	SEGMENT
$pdata$?pubsync@?$basic_streambuf@DU?$char_traits@D@std@@@std@@QEAAHXZ DD imagerel $LN3
	DD	imagerel $LN3+30
	DD	imagerel $unwind$?pubsync@?$basic_streambuf@DU?$char_traits@D@std@@@std@@QEAAHXZ
pdata	ENDS
;	COMDAT pdata
pdata	SEGMENT
$pdata$?sputc@?$basic_streambuf@DU?$char_traits@D@std@@@std@@QEAAHD@Z DD imagerel $LN5
	DD	imagerel $LN5+112
	DD	imagerel $unwind$?sputc@?$basic_streambuf@DU?$char_traits@D@std@@@std@@QEAAHD@Z
pdata	ENDS
;	COMDAT pdata
pdata	SEGMENT
$pdata$?sputn@?$basic_streambuf@DU?$char_traits@D@std@@@std@@QEAA_JPEBD_J@Z DD imagerel $LN3
	DD	imagerel $LN3+50
	DD	imagerel $unwind$?sputn@?$basic_streambuf@DU?$char_traits@D@std@@@std@@QEAA_JPEBD_J@Z
pdata	ENDS
;	COMDAT pdata
pdata	SEGMENT
$pdata$?_Pninc@?$basic_streambuf@DU?$char_traits@D@std@@@std@@IEAAPEADXZ DD imagerel $LN3
	DD	imagerel $LN3+85
	DD	imagerel $unwind$?_Pninc@?$basic_streambuf@DU?$char_traits@D@std@@@std@@IEAAPEADXZ
pdata	ENDS
;	COMDAT pdata
pdata	SEGMENT
$pdata$?_Pnavail@?$basic_streambuf@DU?$char_traits@D@std@@@std@@IEBA_JXZ DD imagerel $LN5
	DD	imagerel $LN5+56
	DD	imagerel $unwind$?_Pnavail@?$basic_streambuf@DU?$char_traits@D@std@@@std@@IEBA_JXZ
pdata	ENDS
;	COMDAT pdata
pdata	SEGMENT
$pdata$??$_Allocate_for_capacity@$0A@@?$basic_string@DU?$char_traits@D@std@@V?$allocator@D@2@@std@@CAPEADAEAV?$allocator@D@1@AEA_K@Z DD imagerel $LN3
	DD	imagerel $LN3+82
	DD	imagerel $unwind$??$_Allocate_for_capacity@$0A@@?$basic_string@DU?$char_traits@D@std@@V?$allocator@D@2@@std@@CAPEADAEAV?$allocator@D@1@AEA_K@Z
pdata	ENDS
;	COMDAT pdata
pdata	SEGMENT
$pdata$??$_Construct_in_place@PEADAEBQEAD@std@@YAXAEAPEADAEBQEAD@Z DD imagerel $LN3
	DD	imagerel $LN3+68
	DD	imagerel $unwind$??$_Construct_in_place@PEADAEBQEAD@std@@YAXAEAPEADAEBQEAD@Z
pdata	ENDS
;	COMDAT pdata
pdata	SEGMENT
$pdata$??$exchange@PEAV_Facet_base@std@@$$T@std@@YAPEAV_Facet_base@0@AEAPEAV10@$$QEA$$T@Z DD imagerel $LN3
	DD	imagerel $LN3+51
	DD	imagerel $unwind$??$exchange@PEAV_Facet_base@std@@$$T@std@@YAPEAV_Facet_base@0@AEAPEAV10@$$QEA$$T@Z
pdata	ENDS
;	COMDAT pdata
pdata	SEGMENT
$pdata$??$?0AEAPEAV_Facet_base@std@@@?$_Compressed_pair@U?$default_delete@V_Facet_base@std@@@std@@PEAV_Facet_base@2@$00@std@@QEAA@U_Zero_then_variadic_args_t@1@AEAPEAV_Facet_base@1@@Z DD imagerel $LN3
	DD	imagerel $LN3+49
	DD	imagerel $unwind$??$?0AEAPEAV_Facet_base@std@@@?$_Compressed_pair@U?$default_delete@V_Facet_base@std@@@std@@PEAV_Facet_base@2@$00@std@@QEAA@U_Zero_then_variadic_args_t@1@AEAPEAV_Facet_base@1@@Z
pdata	ENDS
;	COMDAT pdata
pdata	SEGMENT
$pdata$??$_Allocate_at_least_helper@V?$allocator@D@std@@@std@@YAPEADAEAV?$allocator@D@0@AEA_K@Z DD imagerel $LN3
	DD	imagerel $LN3+37
	DD	imagerel $unwind$??$_Allocate_at_least_helper@V?$allocator@D@std@@@std@@YAPEADAEAV?$allocator@D@0@AEA_K@Z
pdata	ENDS
;	COMDAT pdata
pdata	SEGMENT
$pdata$??$_Allocate@$0BA@U_Default_allocate_traits@std@@$0A@@std@@YAPEAX_K@Z DD imagerel $LN5
	DD	imagerel $LN5+59
	DD	imagerel $unwind$??$_Allocate@$0BA@U_Default_allocate_traits@std@@$0A@@std@@YAPEAX_K@Z
pdata	ENDS
;	COMDAT pdata
pdata	SEGMENT
$pdata$??$_Get_size_of_n@$00@std@@YA_K_K@Z DD imagerel $LN3
	DD	imagerel $LN3+23
	DD	imagerel $unwind$??$_Get_size_of_n@$00@std@@YA_K_K@Z
pdata	ENDS
;	COMDAT pdata
pdata	SEGMENT
$pdata$??$_Allocate_manually_vector_aligned@U_Default_allocate_traits@std@@@std@@YAPEAX_K@Z DD imagerel $LN12
	DD	imagerel $LN12+133
	DD	imagerel $unwind$??$_Allocate_manually_vector_aligned@U_Default_allocate_traits@std@@@std@@YAPEAX_K@Z
pdata	ENDS
;	COMDAT ??_R1A@?0A@EA@failure@ios_base@std@@8
rdata$r	SEGMENT
??_R1A@?0A@EA@failure@ios_base@std@@8 DD imagerel ??_R0?AVfailure@ios_base@std@@@8 ; std::ios_base::failure::`RTTI Base Class Descriptor at (0,-1,0,64)'
	DD	04H
	DD	00H
	DD	0ffffffffH
	DD	00H
	DD	040H
	DD	imagerel ??_R3failure@ios_base@std@@8
rdata$r	ENDS
;	COMDAT ??_R2failure@ios_base@std@@8
rdata$r	SEGMENT
??_R2failure@ios_base@std@@8 DD imagerel ??_R1A@?0A@EA@failure@ios_base@std@@8 ; std::ios_base::failure::`RTTI Base Class Array'
	DD	imagerel ??_R1A@?0A@EA@system_error@std@@8
	DD	imagerel ??_R1A@?0A@EA@_System_error@std@@8
	DD	imagerel ??_R1A@?0A@EA@runtime_error@std@@8
	DD	imagerel ??_R1A@?0A@EA@exception@std@@8
	ORG $+3
rdata$r	ENDS
;	COMDAT ??_R3failure@ios_base@std@@8
rdata$r	SEGMENT
??_R3failure@ios_base@std@@8 DD 00H			; std::ios_base::failure::`RTTI Class Hierarchy Descriptor'
	DD	00H
	DD	05H
	DD	imagerel ??_R2failure@ios_base@std@@8
rdata$r	ENDS
;	COMDAT ??_R4failure@ios_base@std@@6B@
rdata$r	SEGMENT
??_R4failure@ios_base@std@@6B@ DD 01H			; std::ios_base::failure::`RTTI Complete Object Locator'
	DD	00H
	DD	00H
	DD	imagerel ??_R0?AVfailure@ios_base@std@@@8
	DD	imagerel ??_R3failure@ios_base@std@@8
	DD	imagerel ??_R4failure@ios_base@std@@6B@
rdata$r	ENDS
;	COMDAT ??_R1A@?0A@EA@?$ctype@D@std@@8
rdata$r	SEGMENT
??_R1A@?0A@EA@?$ctype@D@std@@8 DD imagerel ??_R0?AV?$ctype@D@std@@@8 ; std::ctype<char>::`RTTI Base Class Descriptor at (0,-1,0,64)'
	DD	04H
	DD	00H
	DD	0ffffffffH
	DD	00H
	DD	040H
	DD	imagerel ??_R3?$ctype@D@std@@8
rdata$r	ENDS
;	COMDAT ??_R2?$ctype@D@std@@8
rdata$r	SEGMENT
??_R2?$ctype@D@std@@8 DD imagerel ??_R1A@?0A@EA@?$ctype@D@std@@8 ; std::ctype<char>::`RTTI Base Class Array'
	DD	imagerel ??_R1A@?0A@EA@ctype_base@std@@8
	DD	imagerel ??_R1A@?0A@EA@facet@locale@std@@8
	DD	imagerel ??_R1A@?0A@EA@_Facet_base@std@@8
	DD	imagerel ??_R17?0A@EA@_Crt_new_delete@std@@8
	ORG $+3
rdata$r	ENDS
;	COMDAT ??_R3?$ctype@D@std@@8
rdata$r	SEGMENT
??_R3?$ctype@D@std@@8 DD 00H				; std::ctype<char>::`RTTI Class Hierarchy Descriptor'
	DD	01H
	DD	05H
	DD	imagerel ??_R2?$ctype@D@std@@8
rdata$r	ENDS
;	COMDAT ??_R0?AV?$ctype@D@std@@@8
data$rs	SEGMENT
??_R0?AV?$ctype@D@std@@@8 DQ FLAT:??_7type_info@@6B@	; std::ctype<char> `RTTI Type Descriptor'
	DQ	0000000000000000H
	DB	'.?AV?$ctype@D@std@@', 00H
data$rs	ENDS
;	COMDAT ??_R4?$ctype@D@std@@6B@
rdata$r	SEGMENT
??_R4?$ctype@D@std@@6B@ DD 01H				; std::ctype<char>::`RTTI Complete Object Locator'
	DD	00H
	DD	00H
	DD	imagerel ??_R0?AV?$ctype@D@std@@@8
	DD	imagerel ??_R3?$ctype@D@std@@8
	DD	imagerel ??_R4?$ctype@D@std@@6B@
rdata$r	ENDS
;	COMDAT ??_R1A@?0A@EA@ctype_base@std@@8
rdata$r	SEGMENT
??_R1A@?0A@EA@ctype_base@std@@8 DD imagerel ??_R0?AUctype_base@std@@@8 ; std::ctype_base::`RTTI Base Class Descriptor at (0,-1,0,64)'
	DD	03H
	DD	00H
	DD	0ffffffffH
	DD	00H
	DD	040H
	DD	imagerel ??_R3ctype_base@std@@8
rdata$r	ENDS
;	COMDAT ??_R2ctype_base@std@@8
rdata$r	SEGMENT
??_R2ctype_base@std@@8 DD imagerel ??_R1A@?0A@EA@ctype_base@std@@8 ; std::ctype_base::`RTTI Base Class Array'
	DD	imagerel ??_R1A@?0A@EA@facet@locale@std@@8
	DD	imagerel ??_R1A@?0A@EA@_Facet_base@std@@8
	DD	imagerel ??_R17?0A@EA@_Crt_new_delete@std@@8
	ORG $+3
rdata$r	ENDS
;	COMDAT ??_R3ctype_base@std@@8
rdata$r	SEGMENT
??_R3ctype_base@std@@8 DD 00H				; std::ctype_base::`RTTI Class Hierarchy Descriptor'
	DD	01H
	DD	04H
	DD	imagerel ??_R2ctype_base@std@@8
rdata$r	ENDS
;	COMDAT ??_R0?AUctype_base@std@@@8
data$rs	SEGMENT
??_R0?AUctype_base@std@@@8 DQ FLAT:??_7type_info@@6B@	; std::ctype_base `RTTI Type Descriptor'
	DQ	0000000000000000H
	DB	'.?AUctype_base@std@@', 00H
data$rs	ENDS
;	COMDAT ??_R4ctype_base@std@@6B@
rdata$r	SEGMENT
??_R4ctype_base@std@@6B@ DD 01H				; std::ctype_base::`RTTI Complete Object Locator'
	DD	00H
	DD	00H
	DD	imagerel ??_R0?AUctype_base@std@@@8
	DD	imagerel ??_R3ctype_base@std@@8
	DD	imagerel ??_R4ctype_base@std@@6B@
rdata$r	ENDS
;	COMDAT ??_R1A@?0A@EA@_Crt_new_delete@std@@8
rdata$r	SEGMENT
??_R1A@?0A@EA@_Crt_new_delete@std@@8 DD imagerel ??_R0?AU_Crt_new_delete@std@@@8 ; std::_Crt_new_delete::`RTTI Base Class Descriptor at (0,-1,0,64)'
	DD	00H
	DD	00H
	DD	0ffffffffH
	DD	00H
	DD	040H
	DD	imagerel ??_R3_Crt_new_delete@std@@8
rdata$r	ENDS
;	COMDAT ??_R2_Crt_new_delete@std@@8
rdata$r	SEGMENT
??_R2_Crt_new_delete@std@@8 DD imagerel ??_R1A@?0A@EA@_Crt_new_delete@std@@8 ; std::_Crt_new_delete::`RTTI Base Class Array'
	ORG $+3
rdata$r	ENDS
;	COMDAT ??_R3_Crt_new_delete@std@@8
rdata$r	SEGMENT
??_R3_Crt_new_delete@std@@8 DD 00H			; std::_Crt_new_delete::`RTTI Class Hierarchy Descriptor'
	DD	00H
	DD	01H
	DD	imagerel ??_R2_Crt_new_delete@std@@8
rdata$r	ENDS
;	COMDAT ??_R0?AU_Crt_new_delete@std@@@8
data$rs	SEGMENT
??_R0?AU_Crt_new_delete@std@@@8 DQ FLAT:??_7type_info@@6B@ ; std::_Crt_new_delete `RTTI Type Descriptor'
	DQ	0000000000000000H
	DB	'.?AU_Crt_new_delete@std@@', 00H
data$rs	ENDS
;	COMDAT ??_R17?0A@EA@_Crt_new_delete@std@@8
rdata$r	SEGMENT
??_R17?0A@EA@_Crt_new_delete@std@@8 DD imagerel ??_R0?AU_Crt_new_delete@std@@@8 ; std::_Crt_new_delete::`RTTI Base Class Descriptor at (8,-1,0,64)'
	DD	00H
	DD	08H
	DD	0ffffffffH
	DD	00H
	DD	040H
	DD	imagerel ??_R3_Crt_new_delete@std@@8
rdata$r	ENDS
;	COMDAT ??_R1A@?0A@EA@facet@locale@std@@8
rdata$r	SEGMENT
??_R1A@?0A@EA@facet@locale@std@@8 DD imagerel ??_R0?AVfacet@locale@std@@@8 ; std::locale::facet::`RTTI Base Class Descriptor at (0,-1,0,64)'
	DD	02H
	DD	00H
	DD	0ffffffffH
	DD	00H
	DD	040H
	DD	imagerel ??_R3facet@locale@std@@8
rdata$r	ENDS
;	COMDAT ??_R2facet@locale@std@@8
rdata$r	SEGMENT
??_R2facet@locale@std@@8 DD imagerel ??_R1A@?0A@EA@facet@locale@std@@8 ; std::locale::facet::`RTTI Base Class Array'
	DD	imagerel ??_R1A@?0A@EA@_Facet_base@std@@8
	DD	imagerel ??_R17?0A@EA@_Crt_new_delete@std@@8
	ORG $+3
rdata$r	ENDS
;	COMDAT ??_R3facet@locale@std@@8
rdata$r	SEGMENT
??_R3facet@locale@std@@8 DD 00H				; std::locale::facet::`RTTI Class Hierarchy Descriptor'
	DD	01H
	DD	03H
	DD	imagerel ??_R2facet@locale@std@@8
rdata$r	ENDS
;	COMDAT ??_R0?AVfacet@locale@std@@@8
data$rs	SEGMENT
??_R0?AVfacet@locale@std@@@8 DQ FLAT:??_7type_info@@6B@	; std::locale::facet `RTTI Type Descriptor'
	DQ	0000000000000000H
	DB	'.?AVfacet@locale@std@@', 00H
data$rs	ENDS
;	COMDAT ??_R4facet@locale@std@@6B@
rdata$r	SEGMENT
??_R4facet@locale@std@@6B@ DD 01H			; std::locale::facet::`RTTI Complete Object Locator'
	DD	00H
	DD	00H
	DD	imagerel ??_R0?AVfacet@locale@std@@@8
	DD	imagerel ??_R3facet@locale@std@@8
	DD	imagerel ??_R4facet@locale@std@@6B@
rdata$r	ENDS
;	COMDAT ??_R1A@?0A@EA@_Facet_base@std@@8
rdata$r	SEGMENT
??_R1A@?0A@EA@_Facet_base@std@@8 DD imagerel ??_R0?AV_Facet_base@std@@@8 ; std::_Facet_base::`RTTI Base Class Descriptor at (0,-1,0,64)'
	DD	00H
	DD	00H
	DD	0ffffffffH
	DD	00H
	DD	040H
	DD	imagerel ??_R3_Facet_base@std@@8
rdata$r	ENDS
;	COMDAT ??_R2_Facet_base@std@@8
rdata$r	SEGMENT
??_R2_Facet_base@std@@8 DD imagerel ??_R1A@?0A@EA@_Facet_base@std@@8 ; std::_Facet_base::`RTTI Base Class Array'
	ORG $+3
rdata$r	ENDS
;	COMDAT ??_R3_Facet_base@std@@8
rdata$r	SEGMENT
??_R3_Facet_base@std@@8 DD 00H				; std::_Facet_base::`RTTI Class Hierarchy Descriptor'
	DD	00H
	DD	01H
	DD	imagerel ??_R2_Facet_base@std@@8
rdata$r	ENDS
;	COMDAT ??_R0?AV_Facet_base@std@@@8
data$rs	SEGMENT
??_R0?AV_Facet_base@std@@@8 DQ FLAT:??_7type_info@@6B@	; std::_Facet_base `RTTI Type Descriptor'
	DQ	0000000000000000H
	DB	'.?AV_Facet_base@std@@', 00H
data$rs	ENDS
;	COMDAT ??_R4_Facet_base@std@@6B@
rdata$r	SEGMENT
??_R4_Facet_base@std@@6B@ DD 01H			; std::_Facet_base::`RTTI Complete Object Locator'
	DD	00H
	DD	00H
	DD	imagerel ??_R0?AV_Facet_base@std@@@8
	DD	imagerel ??_R3_Facet_base@std@@8
	DD	imagerel ??_R4_Facet_base@std@@6B@
rdata$r	ENDS
;	COMDAT ??_R1A@?0A@EA@bad_cast@std@@8
rdata$r	SEGMENT
??_R1A@?0A@EA@bad_cast@std@@8 DD imagerel ??_R0?AVbad_cast@std@@@8 ; std::bad_cast::`RTTI Base Class Descriptor at (0,-1,0,64)'
	DD	01H
	DD	00H
	DD	0ffffffffH
	DD	00H
	DD	040H
	DD	imagerel ??_R3bad_cast@std@@8
rdata$r	ENDS
;	COMDAT ??_R2bad_cast@std@@8
rdata$r	SEGMENT
??_R2bad_cast@std@@8 DD imagerel ??_R1A@?0A@EA@bad_cast@std@@8 ; std::bad_cast::`RTTI Base Class Array'
	DD	imagerel ??_R1A@?0A@EA@exception@std@@8
	ORG $+3
rdata$r	ENDS
;	COMDAT ??_R3bad_cast@std@@8
rdata$r	SEGMENT
??_R3bad_cast@std@@8 DD 00H				; std::bad_cast::`RTTI Class Hierarchy Descriptor'
	DD	00H
	DD	02H
	DD	imagerel ??_R2bad_cast@std@@8
rdata$r	ENDS
;	COMDAT ??_R4bad_cast@std@@6B@
rdata$r	SEGMENT
??_R4bad_cast@std@@6B@ DD 01H				; std::bad_cast::`RTTI Complete Object Locator'
	DD	00H
	DD	00H
	DD	imagerel ??_R0?AVbad_cast@std@@@8
	DD	imagerel ??_R3bad_cast@std@@8
	DD	imagerel ??_R4bad_cast@std@@6B@
rdata$r	ENDS
;	COMDAT ??_R1A@?0A@EA@_Iostream_error_category2@std@@8
rdata$r	SEGMENT
??_R1A@?0A@EA@_Iostream_error_category2@std@@8 DD imagerel ??_R0?AV_Iostream_error_category2@std@@@8 ; std::_Iostream_error_category2::`RTTI Base Class Descriptor at (0,-1,0,64)'
	DD	01H
	DD	00H
	DD	0ffffffffH
	DD	00H
	DD	040H
	DD	imagerel ??_R3_Iostream_error_category2@std@@8
rdata$r	ENDS
;	COMDAT ??_R2_Iostream_error_category2@std@@8
rdata$r	SEGMENT
??_R2_Iostream_error_category2@std@@8 DD imagerel ??_R1A@?0A@EA@_Iostream_error_category2@std@@8 ; std::_Iostream_error_category2::`RTTI Base Class Array'
	DD	imagerel ??_R1A@?0A@EA@error_category@std@@8
	ORG $+3
rdata$r	ENDS
;	COMDAT ??_R3_Iostream_error_category2@std@@8
rdata$r	SEGMENT
??_R3_Iostream_error_category2@std@@8 DD 00H		; std::_Iostream_error_category2::`RTTI Class Hierarchy Descriptor'
	DD	00H
	DD	02H
	DD	imagerel ??_R2_Iostream_error_category2@std@@8
rdata$r	ENDS
;	COMDAT ??_R0?AV_Iostream_error_category2@std@@@8
data$rs	SEGMENT
??_R0?AV_Iostream_error_category2@std@@@8 DQ FLAT:??_7type_info@@6B@ ; std::_Iostream_error_category2 `RTTI Type Descriptor'
	DQ	0000000000000000H
	DB	'.?AV_Iostream_error_category2@std@@', 00H
data$rs	ENDS
;	COMDAT ??_R4_Iostream_error_category2@std@@6B@
rdata$r	SEGMENT
??_R4_Iostream_error_category2@std@@6B@ DD 01H		; std::_Iostream_error_category2::`RTTI Complete Object Locator'
	DD	00H
	DD	00H
	DD	imagerel ??_R0?AV_Iostream_error_category2@std@@@8
	DD	imagerel ??_R3_Iostream_error_category2@std@@8
	DD	imagerel ??_R4_Iostream_error_category2@std@@6B@
rdata$r	ENDS
;	COMDAT ??_R1A@?0A@EA@system_error@std@@8
rdata$r	SEGMENT
??_R1A@?0A@EA@system_error@std@@8 DD imagerel ??_R0?AVsystem_error@std@@@8 ; std::system_error::`RTTI Base Class Descriptor at (0,-1,0,64)'
	DD	03H
	DD	00H
	DD	0ffffffffH
	DD	00H
	DD	040H
	DD	imagerel ??_R3system_error@std@@8
rdata$r	ENDS
;	COMDAT ??_R2system_error@std@@8
rdata$r	SEGMENT
??_R2system_error@std@@8 DD imagerel ??_R1A@?0A@EA@system_error@std@@8 ; std::system_error::`RTTI Base Class Array'
	DD	imagerel ??_R1A@?0A@EA@_System_error@std@@8
	DD	imagerel ??_R1A@?0A@EA@runtime_error@std@@8
	DD	imagerel ??_R1A@?0A@EA@exception@std@@8
	ORG $+3
rdata$r	ENDS
;	COMDAT ??_R3system_error@std@@8
rdata$r	SEGMENT
??_R3system_error@std@@8 DD 00H				; std::system_error::`RTTI Class Hierarchy Descriptor'
	DD	00H
	DD	04H
	DD	imagerel ??_R2system_error@std@@8
rdata$r	ENDS
;	COMDAT ??_R4system_error@std@@6B@
rdata$r	SEGMENT
??_R4system_error@std@@6B@ DD 01H			; std::system_error::`RTTI Complete Object Locator'
	DD	00H
	DD	00H
	DD	imagerel ??_R0?AVsystem_error@std@@@8
	DD	imagerel ??_R3system_error@std@@8
	DD	imagerel ??_R4system_error@std@@6B@
rdata$r	ENDS
;	COMDAT ??_R1A@?0A@EA@_System_error@std@@8
rdata$r	SEGMENT
??_R1A@?0A@EA@_System_error@std@@8 DD imagerel ??_R0?AV_System_error@std@@@8 ; std::_System_error::`RTTI Base Class Descriptor at (0,-1,0,64)'
	DD	02H
	DD	00H
	DD	0ffffffffH
	DD	00H
	DD	040H
	DD	imagerel ??_R3_System_error@std@@8
rdata$r	ENDS
;	COMDAT ??_R2_System_error@std@@8
rdata$r	SEGMENT
??_R2_System_error@std@@8 DD imagerel ??_R1A@?0A@EA@_System_error@std@@8 ; std::_System_error::`RTTI Base Class Array'
	DD	imagerel ??_R1A@?0A@EA@runtime_error@std@@8
	DD	imagerel ??_R1A@?0A@EA@exception@std@@8
	ORG $+3
rdata$r	ENDS
;	COMDAT ??_R3_System_error@std@@8
rdata$r	SEGMENT
??_R3_System_error@std@@8 DD 00H			; std::_System_error::`RTTI Class Hierarchy Descriptor'
	DD	00H
	DD	03H
	DD	imagerel ??_R2_System_error@std@@8
rdata$r	ENDS
;	COMDAT ??_R4_System_error@std@@6B@
rdata$r	SEGMENT
??_R4_System_error@std@@6B@ DD 01H			; std::_System_error::`RTTI Complete Object Locator'
	DD	00H
	DD	00H
	DD	imagerel ??_R0?AV_System_error@std@@@8
	DD	imagerel ??_R3_System_error@std@@8
	DD	imagerel ??_R4_System_error@std@@6B@
rdata$r	ENDS
;	COMDAT ??_R1A@?0A@EA@error_category@std@@8
rdata$r	SEGMENT
??_R1A@?0A@EA@error_category@std@@8 DD imagerel ??_R0?AVerror_category@std@@@8 ; std::error_category::`RTTI Base Class Descriptor at (0,-1,0,64)'
	DD	00H
	DD	00H
	DD	0ffffffffH
	DD	00H
	DD	040H
	DD	imagerel ??_R3error_category@std@@8
rdata$r	ENDS
;	COMDAT ??_R2error_category@std@@8
rdata$r	SEGMENT
??_R2error_category@std@@8 DD imagerel ??_R1A@?0A@EA@error_category@std@@8 ; std::error_category::`RTTI Base Class Array'
	ORG $+3
rdata$r	ENDS
;	COMDAT ??_R3error_category@std@@8
rdata$r	SEGMENT
??_R3error_category@std@@8 DD 00H			; std::error_category::`RTTI Class Hierarchy Descriptor'
	DD	00H
	DD	01H
	DD	imagerel ??_R2error_category@std@@8
rdata$r	ENDS
;	COMDAT ??_R0?AVerror_category@std@@@8
data$rs	SEGMENT
??_R0?AVerror_category@std@@@8 DQ FLAT:??_7type_info@@6B@ ; std::error_category `RTTI Type Descriptor'
	DQ	0000000000000000H
	DB	'.?AVerror_category@std@@', 00H
data$rs	ENDS
;	COMDAT ??_R1A@?0A@EA@runtime_error@std@@8
rdata$r	SEGMENT
??_R1A@?0A@EA@runtime_error@std@@8 DD imagerel ??_R0?AVruntime_error@std@@@8 ; std::runtime_error::`RTTI Base Class Descriptor at (0,-1,0,64)'
	DD	01H
	DD	00H
	DD	0ffffffffH
	DD	00H
	DD	040H
	DD	imagerel ??_R3runtime_error@std@@8
rdata$r	ENDS
;	COMDAT ??_R2runtime_error@std@@8
rdata$r	SEGMENT
??_R2runtime_error@std@@8 DD imagerel ??_R1A@?0A@EA@runtime_error@std@@8 ; std::runtime_error::`RTTI Base Class Array'
	DD	imagerel ??_R1A@?0A@EA@exception@std@@8
	ORG $+3
rdata$r	ENDS
;	COMDAT ??_R3runtime_error@std@@8
rdata$r	SEGMENT
??_R3runtime_error@std@@8 DD 00H			; std::runtime_error::`RTTI Class Hierarchy Descriptor'
	DD	00H
	DD	02H
	DD	imagerel ??_R2runtime_error@std@@8
rdata$r	ENDS
;	COMDAT ??_R4runtime_error@std@@6B@
rdata$r	SEGMENT
??_R4runtime_error@std@@6B@ DD 01H			; std::runtime_error::`RTTI Complete Object Locator'
	DD	00H
	DD	00H
	DD	imagerel ??_R0?AVruntime_error@std@@@8
	DD	imagerel ??_R3runtime_error@std@@8
	DD	imagerel ??_R4runtime_error@std@@6B@
rdata$r	ENDS
;	COMDAT ??_R1A@?0A@EA@bad_array_new_length@std@@8
rdata$r	SEGMENT
??_R1A@?0A@EA@bad_array_new_length@std@@8 DD imagerel ??_R0?AVbad_array_new_length@std@@@8 ; std::bad_array_new_length::`RTTI Base Class Descriptor at (0,-1,0,64)'
	DD	02H
	DD	00H
	DD	0ffffffffH
	DD	00H
	DD	040H
	DD	imagerel ??_R3bad_array_new_length@std@@8
rdata$r	ENDS
;	COMDAT ??_R2bad_array_new_length@std@@8
rdata$r	SEGMENT
??_R2bad_array_new_length@std@@8 DD imagerel ??_R1A@?0A@EA@bad_array_new_length@std@@8 ; std::bad_array_new_length::`RTTI Base Class Array'
	DD	imagerel ??_R1A@?0A@EA@bad_alloc@std@@8
	DD	imagerel ??_R1A@?0A@EA@exception@std@@8
	ORG $+3
rdata$r	ENDS
;	COMDAT ??_R3bad_array_new_length@std@@8
rdata$r	SEGMENT
??_R3bad_array_new_length@std@@8 DD 00H			; std::bad_array_new_length::`RTTI Class Hierarchy Descriptor'
	DD	00H
	DD	03H
	DD	imagerel ??_R2bad_array_new_length@std@@8
rdata$r	ENDS
;	COMDAT ??_R4bad_array_new_length@std@@6B@
rdata$r	SEGMENT
??_R4bad_array_new_length@std@@6B@ DD 01H		; std::bad_array_new_length::`RTTI Complete Object Locator'
	DD	00H
	DD	00H
	DD	imagerel ??_R0?AVbad_array_new_length@std@@@8
	DD	imagerel ??_R3bad_array_new_length@std@@8
	DD	imagerel ??_R4bad_array_new_length@std@@6B@
rdata$r	ENDS
;	COMDAT ??_R1A@?0A@EA@bad_alloc@std@@8
rdata$r	SEGMENT
??_R1A@?0A@EA@bad_alloc@std@@8 DD imagerel ??_R0?AVbad_alloc@std@@@8 ; std::bad_alloc::`RTTI Base Class Descriptor at (0,-1,0,64)'
	DD	01H
	DD	00H
	DD	0ffffffffH
	DD	00H
	DD	040H
	DD	imagerel ??_R3bad_alloc@std@@8
rdata$r	ENDS
;	COMDAT ??_R2bad_alloc@std@@8
rdata$r	SEGMENT
??_R2bad_alloc@std@@8 DD imagerel ??_R1A@?0A@EA@bad_alloc@std@@8 ; std::bad_alloc::`RTTI Base Class Array'
	DD	imagerel ??_R1A@?0A@EA@exception@std@@8
	ORG $+3
rdata$r	ENDS
;	COMDAT ??_R3bad_alloc@std@@8
rdata$r	SEGMENT
??_R3bad_alloc@std@@8 DD 00H				; std::bad_alloc::`RTTI Class Hierarchy Descriptor'
	DD	00H
	DD	02H
	DD	imagerel ??_R2bad_alloc@std@@8
rdata$r	ENDS
;	COMDAT ??_R4bad_alloc@std@@6B@
rdata$r	SEGMENT
??_R4bad_alloc@std@@6B@ DD 01H				; std::bad_alloc::`RTTI Complete Object Locator'
	DD	00H
	DD	00H
	DD	imagerel ??_R0?AVbad_alloc@std@@@8
	DD	imagerel ??_R3bad_alloc@std@@8
	DD	imagerel ??_R4bad_alloc@std@@6B@
rdata$r	ENDS
;	COMDAT ??_R1A@?0A@EA@exception@std@@8
rdata$r	SEGMENT
??_R1A@?0A@EA@exception@std@@8 DD imagerel ??_R0?AVexception@std@@@8 ; std::exception::`RTTI Base Class Descriptor at (0,-1,0,64)'
	DD	00H
	DD	00H
	DD	0ffffffffH
	DD	00H
	DD	040H
	DD	imagerel ??_R3exception@std@@8
rdata$r	ENDS
;	COMDAT ??_R2exception@std@@8
rdata$r	SEGMENT
??_R2exception@std@@8 DD imagerel ??_R1A@?0A@EA@exception@std@@8 ; std::exception::`RTTI Base Class Array'
	ORG $+3
rdata$r	ENDS
;	COMDAT ??_R3exception@std@@8
rdata$r	SEGMENT
??_R3exception@std@@8 DD 00H				; std::exception::`RTTI Class Hierarchy Descriptor'
	DD	00H
	DD	01H
	DD	imagerel ??_R2exception@std@@8
rdata$r	ENDS
;	COMDAT ??_R4exception@std@@6B@
rdata$r	SEGMENT
??_R4exception@std@@6B@ DD 01H				; std::exception::`RTTI Complete Object Locator'
	DD	00H
	DD	00H
	DD	imagerel ??_R0?AVexception@std@@@8
	DD	imagerel ??_R3exception@std@@8
	DD	imagerel ??_R4exception@std@@6B@
rdata$r	ENDS
;	COMDAT ?_Static@?1???$_Immortalize_memcpy_image@V_Iostream_error_category2@std@@@std@@YAAEBV_Iostream_error_category2@1@XZ@4U?$_Constexpr_immortalize_impl@V_Iostream_error_category2@std@@@1@A
_DATA	SEGMENT
?_Static@?1???$_Immortalize_memcpy_image@V_Iostream_error_category2@std@@@std@@YAAEBV_Iostream_error_category2@1@XZ@4U?$_Constexpr_immortalize_impl@V_Iostream_error_category2@std@@@1@A DQ FLAT:??_7_Iostream_error_category2@std@@6B@ ; `std::_Immortalize_memcpy_image<std::_Iostream_error_category2>'::`2'::_Static
	DQ	0000000000000005H
_DATA	ENDS
;	COMDAT _CT??_R0?AVfailure@ios_base@std@@@8??0failure@ios_base@std@@QEAA@AEBV012@@Z40
xdata$x	SEGMENT
_CT??_R0?AVfailure@ios_base@std@@@8??0failure@ios_base@std@@QEAA@AEBV012@@Z40 DD 00H
	DD	imagerel ??_R0?AVfailure@ios_base@std@@@8
	DD	00H
	DD	0ffffffffH
	ORG $+4
	DD	028H
	DD	imagerel ??0failure@ios_base@std@@QEAA@AEBV012@@Z
xdata$x	ENDS
;	COMDAT ??_R0?AVfailure@ios_base@std@@@8
data$r	SEGMENT
??_R0?AVfailure@ios_base@std@@@8 DQ FLAT:??_7type_info@@6B@ ; std::ios_base::failure `RTTI Type Descriptor'
	DQ	0000000000000000H
	DB	'.?AVfailure@ios_base@std@@', 00H
data$r	ENDS
;	COMDAT _CTA5?AVfailure@ios_base@std@@
xdata$x	SEGMENT
_CTA5?AVfailure@ios_base@std@@ DD 05H
	DD	imagerel _CT??_R0?AVfailure@ios_base@std@@@8??0failure@ios_base@std@@QEAA@AEBV012@@Z40
	DD	imagerel _CT??_R0?AVsystem_error@std@@@8??0system_error@std@@QEAA@AEBV01@@Z40
	DD	imagerel _CT??_R0?AV_System_error@std@@@8??0_System_error@std@@QEAA@AEBV01@@Z40
	DD	imagerel _CT??_R0?AVruntime_error@std@@@8??0runtime_error@std@@QEAA@AEBV01@@Z24
	DD	imagerel _CT??_R0?AVexception@std@@@8??0exception@std@@QEAA@AEBV01@@Z24
xdata$x	ENDS
;	COMDAT _TI5?AVfailure@ios_base@std@@
xdata$x	SEGMENT
_TI5?AVfailure@ios_base@std@@ DD 00H
	DD	imagerel ??1failure@ios_base@std@@UEAA@XZ
	DD	00H
	DD	imagerel _CTA5?AVfailure@ios_base@std@@
xdata$x	ENDS
;	COMDAT ??_C@_0BF@OOHOMBOF@ios_base?3?3eofbit?5set@
CONST	SEGMENT
??_C@_0BF@OOHOMBOF@ios_base?3?3eofbit?5set@ DB 'ios_base::eofbit set', 00H ; `string'
CONST	ENDS
;	COMDAT ??_C@_0BG@FMKFHCIL@ios_base?3?3failbit?5set@
CONST	SEGMENT
??_C@_0BG@FMKFHCIL@ios_base?3?3failbit?5set@ DB 'ios_base::failbit set', 00H ; `string'
CONST	ENDS
;	COMDAT ??_C@_0BF@PHHKMMFD@ios_base?3?3badbit?5set@
CONST	SEGMENT
??_C@_0BF@PHHKMMFD@ios_base?3?3badbit?5set@ DB 'ios_base::badbit set', 00H ; `string'
CONST	ENDS
;	COMDAT ??_7failure@ios_base@std@@6B@
CONST	SEGMENT
??_7failure@ios_base@std@@6B@ DQ FLAT:??_R4failure@ios_base@std@@6B@ ; std::ios_base::failure::`vftable'
	DQ	FLAT:??_Efailure@ios_base@std@@UEAAPEAXI@Z
	DQ	FLAT:?what@exception@std@@UEBAPEBDXZ
CONST	ENDS
;	COMDAT ??_7?$ctype@D@std@@6B@
CONST	SEGMENT
??_7?$ctype@D@std@@6B@ DQ FLAT:??_R4?$ctype@D@std@@6B@	; std::ctype<char>::`vftable'
	DQ	FLAT:??_E?$ctype@D@std@@MEAAPEAXI@Z
	DQ	FLAT:?_Incref@facet@locale@std@@UEAAXXZ
	DQ	FLAT:?_Decref@facet@locale@std@@UEAAPEAV_Facet_base@3@XZ
	DQ	FLAT:?do_tolower@?$ctype@D@std@@MEBAPEBDPEADPEBD@Z
	DQ	FLAT:?do_tolower@?$ctype@D@std@@MEBADD@Z
	DQ	FLAT:?do_toupper@?$ctype@D@std@@MEBAPEBDPEADPEBD@Z
	DQ	FLAT:?do_toupper@?$ctype@D@std@@MEBADD@Z
	DQ	FLAT:?do_widen@?$ctype@D@std@@MEBAPEBDPEBD0PEAD@Z
	DQ	FLAT:?do_widen@?$ctype@D@std@@MEBADD@Z
	DQ	FLAT:?do_narrow@?$ctype@D@std@@MEBAPEBDPEBD0DPEAD@Z
	DQ	FLAT:?do_narrow@?$ctype@D@std@@MEBADDD@Z
CONST	ENDS
;	COMDAT ??_7ctype_base@std@@6B@
CONST	SEGMENT
??_7ctype_base@std@@6B@ DQ FLAT:??_R4ctype_base@std@@6B@ ; std::ctype_base::`vftable'
	DQ	FLAT:??_Ectype_base@std@@UEAAPEAXI@Z
	DQ	FLAT:?_Incref@facet@locale@std@@UEAAXXZ
	DQ	FLAT:?_Decref@facet@locale@std@@UEAAPEAV_Facet_base@3@XZ
CONST	ENDS
;	COMDAT ??_C@_00CNPNBAHC@@
CONST	SEGMENT
??_C@_00CNPNBAHC@@ DB 00H				; `string'
CONST	ENDS
;	COMDAT ??_7facet@locale@std@@6B@
CONST	SEGMENT
??_7facet@locale@std@@6B@ DQ FLAT:??_R4facet@locale@std@@6B@ ; std::locale::facet::`vftable'
	DQ	FLAT:??_Efacet@locale@std@@MEAAPEAXI@Z
	DQ	FLAT:?_Incref@facet@locale@std@@UEAAXXZ
	DQ	FLAT:?_Decref@facet@locale@std@@UEAAPEAV_Facet_base@3@XZ
CONST	ENDS
;	COMDAT ??_C@_0BA@ELKIONDK@bad?5locale?5name@
CONST	SEGMENT
??_C@_0BA@ELKIONDK@bad?5locale?5name@ DB 'bad locale name', 00H ; `string'
CONST	ENDS
;	COMDAT ??_7_Facet_base@std@@6B@
CONST	SEGMENT
??_7_Facet_base@std@@6B@ DQ FLAT:??_R4_Facet_base@std@@6B@ ; std::_Facet_base::`vftable'
	DQ	FLAT:??_E_Facet_base@std@@UEAAPEAXI@Z
	DQ	FLAT:_purecall
	DQ	FLAT:_purecall
CONST	ENDS
;	COMDAT _CT??_R0?AVbad_cast@std@@@8??0bad_cast@std@@QEAA@AEBV01@@Z24
xdata$x	SEGMENT
_CT??_R0?AVbad_cast@std@@@8??0bad_cast@std@@QEAA@AEBV01@@Z24 DD 00H
	DD	imagerel ??_R0?AVbad_cast@std@@@8
	DD	00H
	DD	0ffffffffH
	ORG $+4
	DD	018H
	DD	imagerel ??0bad_cast@std@@QEAA@AEBV01@@Z
xdata$x	ENDS
;	COMDAT ??_R0?AVbad_cast@std@@@8
data$r	SEGMENT
??_R0?AVbad_cast@std@@@8 DQ FLAT:??_7type_info@@6B@	; std::bad_cast `RTTI Type Descriptor'
	DQ	0000000000000000H
	DB	'.?AVbad_cast@std@@', 00H
data$r	ENDS
;	COMDAT _CTA2?AVbad_cast@std@@
xdata$x	SEGMENT
_CTA2?AVbad_cast@std@@ DD 02H
	DD	imagerel _CT??_R0?AVbad_cast@std@@@8??0bad_cast@std@@QEAA@AEBV01@@Z24
	DD	imagerel _CT??_R0?AVexception@std@@@8??0exception@std@@QEAA@AEBV01@@Z24
xdata$x	ENDS
;	COMDAT _TI2?AVbad_cast@std@@
xdata$x	SEGMENT
_TI2?AVbad_cast@std@@ DD 00H
	DD	imagerel ??1bad_cast@std@@UEAA@XZ
	DD	00H
	DD	imagerel _CTA2?AVbad_cast@std@@
xdata$x	ENDS
;	COMDAT ??_C@_08EPJLHIJG@bad?5cast@
CONST	SEGMENT
??_C@_08EPJLHIJG@bad?5cast@ DB 'bad cast', 00H		; `string'
CONST	ENDS
;	COMDAT ??_7bad_cast@std@@6B@
CONST	SEGMENT
??_7bad_cast@std@@6B@ DQ FLAT:??_R4bad_cast@std@@6B@	; std::bad_cast::`vftable'
	DQ	FLAT:??_Ebad_cast@std@@UEAAPEAXI@Z
	DQ	FLAT:?what@exception@std@@UEBAPEBDXZ
CONST	ENDS
;	COMDAT ?_Iostream_error@?4??message@_Iostream_error_category2@std@@UEBA?AV?$basic_string@DU?$char_traits@D@std@@V?$allocator@D@2@@3@H@Z@4QBDB
CONST	SEGMENT
?_Iostream_error@?4??message@_Iostream_error_category2@std@@UEBA?AV?$basic_string@DU?$char_traits@D@std@@V?$allocator@D@2@@3@H@Z@4QBDB DB 069H ; `std::_Iostream_error_category2::message'::`5'::_Iostream_error
	DB	06fH
	DB	073H
	DB	074H
	DB	072H
	DB	065H
	DB	061H
	DB	06dH
	DB	020H
	DB	073H
	DB	074H
	DB	072H
	DB	065H
	DB	061H
	DB	06dH
	DB	020H
	DB	065H
	DB	072H
	DB	072H
	DB	06fH
	DB	072H
	DB	00H
CONST	ENDS
;	COMDAT ??_C@_08LLGCOLLL@iostream@
CONST	SEGMENT
??_C@_08LLGCOLLL@iostream@ DB 'iostream', 00H		; `string'
CONST	ENDS
;	COMDAT ??_7_Iostream_error_category2@std@@6B@
CONST	SEGMENT
??_7_Iostream_error_category2@std@@6B@ DQ FLAT:??_R4_Iostream_error_category2@std@@6B@ ; std::_Iostream_error_category2::`vftable'
	DQ	FLAT:??_E_Iostream_error_category2@std@@UEAAPEAXI@Z
	DQ	FLAT:?name@_Iostream_error_category2@std@@UEBAPEBDXZ
	DQ	FLAT:?message@_Iostream_error_category2@std@@UEBA?AV?$basic_string@DU?$char_traits@D@std@@V?$allocator@D@2@@2@H@Z
	DQ	FLAT:?default_error_condition@error_category@std@@UEBA?AVerror_condition@2@H@Z
	DQ	FLAT:?equivalent@error_category@std@@UEBA_NAEBVerror_code@2@H@Z
	DQ	FLAT:?equivalent@error_category@std@@UEBA_NHAEBVerror_condition@2@@Z
CONST	ENDS
;	COMDAT _CT??_R0?AV_System_error@std@@@8??0_System_error@std@@QEAA@AEBV01@@Z40
xdata$x	SEGMENT
_CT??_R0?AV_System_error@std@@@8??0_System_error@std@@QEAA@AEBV01@@Z40 DD 00H
	DD	imagerel ??_R0?AV_System_error@std@@@8
	DD	00H
	DD	0ffffffffH
	ORG $+4
	DD	028H
	DD	imagerel ??0_System_error@std@@QEAA@AEBV01@@Z
xdata$x	ENDS
;	COMDAT ??_R0?AV_System_error@std@@@8
data$r	SEGMENT
??_R0?AV_System_error@std@@@8 DQ FLAT:??_7type_info@@6B@ ; std::_System_error `RTTI Type Descriptor'
	DQ	0000000000000000H
	DB	'.?AV_System_error@std@@', 00H
data$r	ENDS
;	COMDAT _CT??_R0?AVsystem_error@std@@@8??0system_error@std@@QEAA@AEBV01@@Z40
xdata$x	SEGMENT
_CT??_R0?AVsystem_error@std@@@8??0system_error@std@@QEAA@AEBV01@@Z40 DD 00H
	DD	imagerel ??_R0?AVsystem_error@std@@@8
	DD	00H
	DD	0ffffffffH
	ORG $+4
	DD	028H
	DD	imagerel ??0system_error@std@@QEAA@AEBV01@@Z
xdata$x	ENDS
;	COMDAT ??_R0?AVsystem_error@std@@@8
data$r	SEGMENT
??_R0?AVsystem_error@std@@@8 DQ FLAT:??_7type_info@@6B@	; std::system_error `RTTI Type Descriptor'
	DQ	0000000000000000H
	DB	'.?AVsystem_error@std@@', 00H
data$r	ENDS
;	COMDAT ??_7system_error@std@@6B@
CONST	SEGMENT
??_7system_error@std@@6B@ DQ FLAT:??_R4system_error@std@@6B@ ; std::system_error::`vftable'
	DQ	FLAT:??_Esystem_error@std@@UEAAPEAXI@Z
	DQ	FLAT:?what@exception@std@@UEBAPEBDXZ
CONST	ENDS
;	COMDAT ??_C@_02LMMGGCAJ@?3?5@
CONST	SEGMENT
??_C@_02LMMGGCAJ@?3?5@ DB ': ', 00H			; `string'
CONST	ENDS
;	COMDAT ??_7_System_error@std@@6B@
CONST	SEGMENT
??_7_System_error@std@@6B@ DQ FLAT:??_R4_System_error@std@@6B@ ; std::_System_error::`vftable'
	DQ	FLAT:??_E_System_error@std@@UEAAPEAXI@Z
	DQ	FLAT:?what@exception@std@@UEBAPEBDXZ
CONST	ENDS
;	COMDAT _CT??_R0?AVruntime_error@std@@@8??0runtime_error@std@@QEAA@AEBV01@@Z24
xdata$x	SEGMENT
_CT??_R0?AVruntime_error@std@@@8??0runtime_error@std@@QEAA@AEBV01@@Z24 DD 00H
	DD	imagerel ??_R0?AVruntime_error@std@@@8
	DD	00H
	DD	0ffffffffH
	ORG $+4
	DD	018H
	DD	imagerel ??0runtime_error@std@@QEAA@AEBV01@@Z
xdata$x	ENDS
;	COMDAT ??_R0?AVruntime_error@std@@@8
data$r	SEGMENT
??_R0?AVruntime_error@std@@@8 DQ FLAT:??_7type_info@@6B@ ; std::runtime_error `RTTI Type Descriptor'
	DQ	0000000000000000H
	DB	'.?AVruntime_error@std@@', 00H
data$r	ENDS
;	COMDAT ??_7runtime_error@std@@6B@
CONST	SEGMENT
??_7runtime_error@std@@6B@ DQ FLAT:??_R4runtime_error@std@@6B@ ; std::runtime_error::`vftable'
	DQ	FLAT:??_Eruntime_error@std@@UEAAPEAXI@Z
	DQ	FLAT:?what@exception@std@@UEBAPEBDXZ
CONST	ENDS
;	COMDAT ??_C@_0BA@JFNIOLAK@string?5too?5long@
CONST	SEGMENT
??_C@_0BA@JFNIOLAK@string?5too?5long@ DB 'string too long', 00H ; `string'
CONST	ENDS
;	COMDAT _CT??_R0?AVexception@std@@@8??0exception@std@@QEAA@AEBV01@@Z24
xdata$x	SEGMENT
_CT??_R0?AVexception@std@@@8??0exception@std@@QEAA@AEBV01@@Z24 DD 00H
	DD	imagerel ??_R0?AVexception@std@@@8
	DD	00H
	DD	0ffffffffH
	ORG $+4
	DD	018H
	DD	imagerel ??0exception@std@@QEAA@AEBV01@@Z
xdata$x	ENDS
;	COMDAT ??_R0?AVexception@std@@@8
data$r	SEGMENT
??_R0?AVexception@std@@@8 DQ FLAT:??_7type_info@@6B@	; std::exception `RTTI Type Descriptor'
	DQ	0000000000000000H
	DB	'.?AVexception@std@@', 00H
data$r	ENDS
;	COMDAT _CT??_R0?AVbad_alloc@std@@@8??0bad_alloc@std@@QEAA@AEBV01@@Z24
xdata$x	SEGMENT
_CT??_R0?AVbad_alloc@std@@@8??0bad_alloc@std@@QEAA@AEBV01@@Z24 DD 010H
	DD	imagerel ??_R0?AVbad_alloc@std@@@8
	DD	00H
	DD	0ffffffffH
	ORG $+4
	DD	018H
	DD	imagerel ??0bad_alloc@std@@QEAA@AEBV01@@Z
xdata$x	ENDS
;	COMDAT ??_R0?AVbad_alloc@std@@@8
data$r	SEGMENT
??_R0?AVbad_alloc@std@@@8 DQ FLAT:??_7type_info@@6B@	; std::bad_alloc `RTTI Type Descriptor'
	DQ	0000000000000000H
	DB	'.?AVbad_alloc@std@@', 00H
data$r	ENDS
;	COMDAT _CT??_R0?AVbad_array_new_length@std@@@8??0bad_array_new_length@std@@QEAA@AEBV01@@Z24
xdata$x	SEGMENT
_CT??_R0?AVbad_array_new_length@std@@@8??0bad_array_new_length@std@@QEAA@AEBV01@@Z24 DD 00H
	DD	imagerel ??_R0?AVbad_array_new_length@std@@@8
	DD	00H
	DD	0ffffffffH
	ORG $+4
	DD	018H
	DD	imagerel ??0bad_array_new_length@std@@QEAA@AEBV01@@Z
xdata$x	ENDS
;	COMDAT ??_R0?AVbad_array_new_length@std@@@8
data$r	SEGMENT
??_R0?AVbad_array_new_length@std@@@8 DQ FLAT:??_7type_info@@6B@ ; std::bad_array_new_length `RTTI Type Descriptor'
	DQ	0000000000000000H
	DB	'.?AVbad_array_new_length@std@@', 00H
data$r	ENDS
;	COMDAT _CTA3?AVbad_array_new_length@std@@
xdata$x	SEGMENT
_CTA3?AVbad_array_new_length@std@@ DD 03H
	DD	imagerel _CT??_R0?AVbad_array_new_length@std@@@8??0bad_array_new_length@std@@QEAA@AEBV01@@Z24
	DD	imagerel _CT??_R0?AVbad_alloc@std@@@8??0bad_alloc@std@@QEAA@AEBV01@@Z24
	DD	imagerel _CT??_R0?AVexception@std@@@8??0exception@std@@QEAA@AEBV01@@Z24
xdata$x	ENDS
;	COMDAT _TI3?AVbad_array_new_length@std@@
xdata$x	SEGMENT
_TI3?AVbad_array_new_length@std@@ DD 00H
	DD	imagerel ??1bad_array_new_length@std@@UEAA@XZ
	DD	00H
	DD	imagerel _CTA3?AVbad_array_new_length@std@@
xdata$x	ENDS
;	COMDAT ??_C@_0BF@KINCDENJ@bad?5array?5new?5length@
CONST	SEGMENT
??_C@_0BF@KINCDENJ@bad?5array?5new?5length@ DB 'bad array new length', 00H ; `string'
CONST	ENDS
;	COMDAT ??_7bad_array_new_length@std@@6B@
CONST	SEGMENT
??_7bad_array_new_length@std@@6B@ DQ FLAT:??_R4bad_array_new_length@std@@6B@ ; std::bad_array_new_length::`vftable'
	DQ	FLAT:??_Ebad_array_new_length@std@@UEAAPEAXI@Z
	DQ	FLAT:?what@exception@std@@UEBAPEBDXZ
CONST	ENDS
;	COMDAT ??_7bad_alloc@std@@6B@
CONST	SEGMENT
??_7bad_alloc@std@@6B@ DQ FLAT:??_R4bad_alloc@std@@6B@	; std::bad_alloc::`vftable'
	DQ	FLAT:??_Ebad_alloc@std@@UEAAPEAXI@Z
	DQ	FLAT:?what@exception@std@@UEBAPEBDXZ
CONST	ENDS
;	COMDAT ??_C@_0BC@EOODALEL@Unknown?5exception@
CONST	SEGMENT
??_C@_0BC@EOODALEL@Unknown?5exception@ DB 'Unknown exception', 00H ; `string'
CONST	ENDS
;	COMDAT ??_7exception@std@@6B@
CONST	SEGMENT
??_7exception@std@@6B@ DQ FLAT:??_R4exception@std@@6B@	; std::exception::`vftable'
	DQ	FLAT:??_Eexception@std@@UEAAPEAXI@Z
	DQ	FLAT:?what@exception@std@@UEBAPEBDXZ
CONST	ENDS
;	COMDAT xdata
xdata	SEGMENT
$unwind$??$_Allocate_manually_vector_aligned@U_Default_allocate_traits@std@@@std@@YAPEAX_K@Z DD 010901H
	DD	08209H
xdata	ENDS
;	COMDAT xdata
xdata	SEGMENT
$unwind$??$_Get_size_of_n@$00@std@@YA_K_K@Z DD 010901H
	DD	02209H
xdata	ENDS
;	COMDAT xdata
xdata	SEGMENT
$unwind$??$_Allocate@$0BA@U_Default_allocate_traits@std@@$0A@@std@@YAPEAX_K@Z DD 010901H
	DD	04209H
xdata	ENDS
;	COMDAT xdata
xdata	SEGMENT
$unwind$??$_Allocate_at_least_helper@V?$allocator@D@std@@@std@@YAPEADAEAV?$allocator@D@0@AEA_K@Z DD 010e01H
	DD	0420eH
xdata	ENDS
;	COMDAT xdata
xdata	SEGMENT
$unwind$??$?0AEAPEAV_Facet_base@std@@@?$_Compressed_pair@U?$default_delete@V_Facet_base@std@@@std@@PEAV_Facet_base@2@$00@std@@QEAA@U_Zero_then_variadic_args_t@1@AEAPEAV_Facet_base@1@@Z DD 011201H
	DD	04212H
xdata	ENDS
;	COMDAT xdata
xdata	SEGMENT
$unwind$??$exchange@PEAV_Facet_base@std@@$$T@std@@YAPEAV_Facet_base@0@AEAPEAV10@$$QEA$$T@Z DD 010e01H
	DD	0220eH
xdata	ENDS
;	COMDAT xdata
xdata	SEGMENT
$unwind$??$_Construct_in_place@PEADAEBQEAD@std@@YAXAEAPEADAEBQEAD@Z DD 010e01H
	DD	0620eH
xdata	ENDS
;	COMDAT xdata
xdata	SEGMENT
$unwind$??$_Allocate_for_capacity@$0A@@?$basic_string@DU?$char_traits@D@std@@V?$allocator@D@2@@std@@CAPEADAEAV?$allocator@D@1@AEA_K@Z DD 010e01H
	DD	0620eH
xdata	ENDS
;	COMDAT xdata
xdata	SEGMENT
$unwind$?_Pnavail@?$basic_streambuf@DU?$char_traits@D@std@@@std@@IEBA_JXZ DD 010901H
	DD	02209H
xdata	ENDS
;	COMDAT xdata
xdata	SEGMENT
$unwind$?_Pninc@?$basic_streambuf@DU?$char_traits@D@std@@@std@@IEAAPEADXZ DD 010901H
	DD	02209H
xdata	ENDS
;	COMDAT xdata
xdata	SEGMENT
$unwind$?sputn@?$basic_streambuf@DU?$char_traits@D@std@@@std@@QEAA_JPEBD_J@Z DD 011301H
	DD	04213H
xdata	ENDS
;	COMDAT xdata
xdata	SEGMENT
$unwind$?sputc@?$basic_streambuf@DU?$char_traits@D@std@@@std@@QEAAHD@Z DD 010d01H
	DD	0620dH
xdata	ENDS
;	COMDAT xdata
xdata	SEGMENT
$unwind$?pubsync@?$basic_streambuf@DU?$char_traits@D@std@@@std@@QEAAHXZ DD 010901H
	DD	04209H
xdata	ENDS
;	COMDAT xdata
xdata	SEGMENT
$unwind$??1sentry@?$basic_ostream@DU?$char_traits@D@std@@@std@@QEAA@XZ DD 010901H
	DD	06209H
xdata	ENDS
;	COMDAT xdata
xdata	SEGMENT
$unwind$?dtor$0@?0???0sentry@?$basic_ostream@DU?$char_traits@D@std@@@std@@QEAA@AEAV12@@Z@4HA DD 020601H
	DD	050023206H
xdata	ENDS
;	COMDAT xdata
xdata	SEGMENT
$ip2state$??0sentry@?$basic_ostream@DU?$char_traits@D@std@@@std@@QEAA@AEAV12@@Z DB 06H
	DB	00H
	DB	00H
	DB	'<'
	DB	02H
	DB	095H, 02H
	DB	00H
xdata	ENDS
;	COMDAT xdata
xdata	SEGMENT
$stateUnwindMap$??0sentry@?$basic_ostream@DU?$char_traits@D@std@@@std@@QEAA@AEAV12@@Z DB 02H
	DB	0eH
	DD	imagerel ?dtor$0@?0???0sentry@?$basic_ostream@DU?$char_traits@D@std@@@std@@QEAA@AEAV12@@Z@4HA
xdata	ENDS
;	COMDAT xdata
xdata	SEGMENT
$cppxdata$??0sentry@?$basic_ostream@DU?$char_traits@D@std@@@std@@QEAA@AEAV12@@Z DB 028H
	DD	imagerel $stateUnwindMap$??0sentry@?$basic_ostream@DU?$char_traits@D@std@@@std@@QEAA@AEAV12@@Z
	DD	imagerel $ip2state$??0sentry@?$basic_ostream@DU?$char_traits@D@std@@@std@@QEAA@AEAV12@@Z
xdata	ENDS
;	COMDAT xdata
xdata	SEGMENT
$unwind$??0sentry@?$basic_ostream@DU?$char_traits@D@std@@@std@@QEAA@AEAV12@@Z DD 010e11H
	DD	0620eH
	DD	imagerel __CxxFrameHandler4
	DD	imagerel $cppxdata$??0sentry@?$basic_ostream@DU?$char_traits@D@std@@@std@@QEAA@AEAV12@@Z
xdata	ENDS
;	COMDAT xdata
xdata	SEGMENT
$ip2state$??1_Sentry_base@?$basic_ostream@DU?$char_traits@D@std@@@std@@QEAA@XZ DB 02H
	DB	00H
	DB	00H
xdata	ENDS
;	COMDAT xdata
xdata	SEGMENT
$cppxdata$??1_Sentry_base@?$basic_ostream@DU?$char_traits@D@std@@@std@@QEAA@XZ DB 060H
	DD	imagerel $ip2state$??1_Sentry_base@?$basic_ostream@DU?$char_traits@D@std@@@std@@QEAA@XZ
xdata	ENDS
;	COMDAT xdata
xdata	SEGMENT
$unwind$??1_Sentry_base@?$basic_ostream@DU?$char_traits@D@std@@@std@@QEAA@XZ DD 010919H
	DD	06209H
	DD	imagerel __CxxFrameHandler4
	DD	imagerel $cppxdata$??1_Sentry_base@?$basic_ostream@DU?$char_traits@D@std@@@std@@QEAA@XZ
xdata	ENDS
;	COMDAT xdata
xdata	SEGMENT
$unwind$??0_Sentry_base@?$basic_ostream@DU?$char_traits@D@std@@@std@@QEAA@AEAV12@@Z DD 010e01H
	DD	0620eH
xdata	ENDS
;	COMDAT xdata
xdata	SEGMENT
$unwind$??$?0U?$default_delete@V_Facet_base@std@@@std@@$0A@@?$unique_ptr@V_Facet_base@std@@U?$default_delete@V_Facet_base@std@@@2@@std@@QEAA@PEAV_Facet_base@1@@Z DD 010e01H
	DD	0620eH
xdata	ENDS
;	COMDAT xdata
xdata	SEGMENT
$unwind$?release@?$unique_ptr@V_Facet_base@std@@U?$default_delete@V_Facet_base@std@@@2@@std@@QEAAPEAV_Facet_base@2@XZ DD 010901H
	DD	06209H
xdata	ENDS
;	COMDAT xdata
xdata	SEGMENT
$unwind$??1?$unique_ptr@V_Facet_base@std@@U?$default_delete@V_Facet_base@std@@@2@@std@@QEAA@XZ DD 010901H
	DD	04209H
xdata	ENDS
;	COMDAT xdata
xdata	SEGMENT
$unwind$??R?$default_delete@V_Facet_base@std@@@std@@QEBAXPEAV_Facet_base@1@@Z DD 010e01H
	DD	0620eH
xdata	ENDS
;	COMDAT xdata
xdata	SEGMENT
$unwind$??$min@_K@std@@YAAEB_KAEB_K0@Z DD 010e01H
	DD	0220eH
xdata	ENDS
;	COMDAT xdata
xdata	SEGMENT
$ip2state$??$_Deallocate@$0BA@$0A@@std@@YAXPEAX_K@Z DB 02H
	DB	00H
	DB	00H
xdata	ENDS
;	COMDAT xdata
xdata	SEGMENT
$cppxdata$??$_Deallocate@$0BA@$0A@@std@@YAXPEAX_K@Z DB 060H
	DD	imagerel $ip2state$??$_Deallocate@$0BA@$0A@@std@@YAXPEAX_K@Z
xdata	ENDS
;	COMDAT xdata
xdata	SEGMENT
$unwind$??$_Deallocate@$0BA@$0A@@std@@YAXPEAX_K@Z DD 010e19H
	DD	0420eH
	DD	imagerel __CxxFrameHandler4
	DD	imagerel $cppxdata$??$_Deallocate@$0BA@$0A@@std@@YAXPEAX_K@Z
xdata	ENDS
;	COMDAT xdata
xdata	SEGMENT
$unwind$??$max@_K@std@@YAAEB_KAEB_K0@Z DD 010e01H
	DD	0220eH
xdata	ENDS
;	COMDAT xdata
xdata	SEGMENT
$unwind$??$_Construct_in_place@PEADAEAPEAD@std@@YAXAEAPEAD0@Z DD 010e01H
	DD	0620eH
xdata	ENDS
;	COMDAT xdata
xdata	SEGMENT
$unwind$??$_Reallocate_grow_by@V<lambda_65e615be2a453ca0576c979606f46740>@@PEBD_K@?$basic_string@DU?$char_traits@D@std@@V?$allocator@D@2@@std@@AEAAAEAV01@_KV<lambda_65e615be2a453ca0576c979606f46740>@@PEBD_K@Z DD 021b01H
	DD	011011bH
xdata	ENDS
;	COMDAT xdata
xdata	SEGMENT
$unwind$??R<lambda_65e615be2a453ca0576c979606f46740>@@QEBA@QEADQEBD_K12@Z DD 011801H
	DD	06218H
xdata	ENDS
;	COMDAT xdata
xdata	SEGMENT
$unwind$??$_Construct@$01PEBD@?$basic_string@DU?$char_traits@D@std@@V?$allocator@D@2@@std@@AEAAXQEBD_K@Z DD 011301H
	DD	0c213H
xdata	ENDS
;	COMDAT xdata
xdata	SEGMENT
$unwind$??$_Construct@$00PEBD@?$basic_string@DU?$char_traits@D@std@@V?$allocator@D@2@@std@@AEAAXQEBD_K@Z DD 011301H
	DD	0a213H
xdata	ENDS
;	COMDAT xdata
xdata	SEGMENT
$unwind$??$?0$$V@?$_Compressed_pair@V?$allocator@D@std@@V?$_String_val@U?$_Simple_types@D@std@@@2@$00@std@@QEAA@U_Zero_then_variadic_args_t@1@@Z DD 010d01H
	DD	0420dH
xdata	ENDS
;	COMDAT xdata
xdata	SEGMENT
$unwind$??$?0V?$allocator@D@std@@$$V@?$_Compressed_pair@V?$allocator@D@std@@V?$_String_val@U?$_Simple_types@D@std@@@2@$00@std@@QEAA@U_One_then_variadic_args_t@1@$$QEAV?$allocator@D@1@@Z DD 011201H
	DD	04212H
xdata	ENDS
;	COMDAT xdata
xdata	SEGMENT
$unwind$??$endl@DU?$char_traits@D@std@@@std@@YAAEAV?$basic_ostream@DU?$char_traits@D@std@@@0@AEAV10@@Z DD 010901H
	DD	04209H
xdata	ENDS
;	COMDAT voltbl
voltbl	SEGMENT
_volmd	DB	00H
voltbl	ENDS
;	COMDAT xdata
xdata	SEGMENT
$unwind$?catch$1@?0???$?6U?$char_traits@D@std@@@std@@YAAEAV?$basic_ostream@DU?$char_traits@D@std@@@0@AEAV10@PEBD@Z@4HA DD 020a01H
	DD	05006320aH
xdata	ENDS
;	COMDAT xdata
xdata	SEGMENT
$unwind$?dtor$0@?0???$?6U?$char_traits@D@std@@@std@@YAAEAV?$basic_ostream@DU?$char_traits@D@std@@@0@AEAV10@PEBD@Z@4HA DD 020601H
	DD	050023206H
xdata	ENDS
;	COMDAT xdata
xdata	SEGMENT
$ip2state$??$?6U?$char_traits@D@std@@@std@@YAAEAV?$basic_ostream@DU?$char_traits@D@std@@@0@AEAV10@PEBD@Z DB 0aH
	DB	00H
	DB	00H
	DB	'U', 03H
	DB	02H
	DB	'B'
	DB	04H
	DB	'%', 08H
	DB	02H
	DB	'v'
	DB	00H
xdata	ENDS
;	COMDAT xdata
xdata	SEGMENT
$handlerMap$??$?6U?$char_traits@D@std@@@std@@YAAEAV?$basic_ostream@DU?$char_traits@D@std@@@0@AEAV10@PEBD@Z DB 02H
	DB	01H
	DB	080H
	DD	imagerel ?catch$1@?0???$?6U?$char_traits@D@std@@@std@@YAAEAV?$basic_ostream@DU?$char_traits@D@std@@@0@AEAV10@PEBD@Z@4HA
xdata	ENDS
;	COMDAT xdata
xdata	SEGMENT
$tryMap$??$?6U?$char_traits@D@std@@@std@@YAAEAV?$basic_ostream@DU?$char_traits@D@std@@@0@AEAV10@PEBD@Z DB 02H
	DB	02H
	DB	02H
	DB	04H
	DD	imagerel $handlerMap$??$?6U?$char_traits@D@std@@@std@@YAAEAV?$basic_ostream@DU?$char_traits@D@std@@@0@AEAV10@PEBD@Z
xdata	ENDS
;	COMDAT xdata
xdata	SEGMENT
$stateUnwindMap$??$?6U?$char_traits@D@std@@@std@@YAAEAV?$basic_ostream@DU?$char_traits@D@std@@@0@AEAV10@PEBD@Z DB 06H
	DB	0eH
	DD	imagerel ?dtor$0@?0???$?6U?$char_traits@D@std@@@std@@YAAEAV?$basic_ostream@DU?$char_traits@D@std@@@0@AEAV10@PEBD@Z@4HA
	DB	028H
	DB	030H
xdata	ENDS
;	COMDAT xdata
xdata	SEGMENT
$cppxdata$??$?6U?$char_traits@D@std@@@std@@YAAEAV?$basic_ostream@DU?$char_traits@D@std@@@0@AEAV10@PEBD@Z DB 038H
	DD	imagerel $stateUnwindMap$??$?6U?$char_traits@D@std@@@std@@YAAEAV?$basic_ostream@DU?$char_traits@D@std@@@0@AEAV10@PEBD@Z
	DD	imagerel $tryMap$??$?6U?$char_traits@D@std@@@std@@YAAEAV?$basic_ostream@DU?$char_traits@D@std@@@0@AEAV10@PEBD@Z
	DD	imagerel $ip2state$??$?6U?$char_traits@D@std@@@std@@YAAEAV?$basic_ostream@DU?$char_traits@D@std@@@0@AEAV10@PEBD@Z
xdata	ENDS
;	COMDAT xdata
xdata	SEGMENT
$unwind$??$?6U?$char_traits@D@std@@@std@@YAAEAV?$basic_ostream@DU?$char_traits@D@std@@@0@AEAV10@PEBD@Z DD 010e19H
	DD	0e20eH
	DD	imagerel __CxxFrameHandler4
	DD	imagerel $cppxdata$??$?6U?$char_traits@D@std@@@std@@YAAEAV?$basic_ostream@DU?$char_traits@D@std@@@0@AEAV10@PEBD@Z
xdata	ENDS
;	COMDAT voltbl
voltbl	SEGMENT
_volmd	DB	00H
voltbl	ENDS
;	COMDAT xdata
xdata	SEGMENT
$unwind$?catch$1@?0??flush@?$basic_ostream@DU?$char_traits@D@std@@@std@@QEAAAEAV12@XZ@4HA DD 020a01H
	DD	05006320aH
xdata	ENDS
;	COMDAT xdata
xdata	SEGMENT
$unwind$?dtor$0@?0??flush@?$basic_ostream@DU?$char_traits@D@std@@@std@@QEAAAEAV12@XZ@4HA DD 020601H
	DD	050023206H
xdata	ENDS
;	COMDAT xdata
xdata	SEGMENT
$ip2state$?flush@?$basic_ostream@DU?$char_traits@D@std@@@std@@QEAAAEAV12@XZ DB 0aH
	DB	00H
	DB	00H
	DB	08aH
	DB	02H
	DB	'2'
	DB	04H
	DB	'@'
	DB	02H
	DB	'R'
	DB	00H
xdata	ENDS
;	COMDAT xdata
xdata	SEGMENT
$handlerMap$?flush@?$basic_ostream@DU?$char_traits@D@std@@@std@@QEAAAEAV12@XZ DB 02H
	DB	01H
	DB	080H
	DD	imagerel ?catch$1@?0??flush@?$basic_ostream@DU?$char_traits@D@std@@@std@@QEAAAEAV12@XZ@4HA
xdata	ENDS
;	COMDAT xdata
xdata	SEGMENT
$tryMap$?flush@?$basic_ostream@DU?$char_traits@D@std@@@std@@QEAAAEAV12@XZ DB 02H
	DB	02H
	DB	02H
	DB	04H
	DD	imagerel $handlerMap$?flush@?$basic_ostream@DU?$char_traits@D@std@@@std@@QEAAAEAV12@XZ
xdata	ENDS
;	COMDAT xdata
xdata	SEGMENT
$stateUnwindMap$?flush@?$basic_ostream@DU?$char_traits@D@std@@@std@@QEAAAEAV12@XZ DB 06H
	DB	0eH
	DD	imagerel ?dtor$0@?0??flush@?$basic_ostream@DU?$char_traits@D@std@@@std@@QEAAAEAV12@XZ@4HA
	DB	028H
	DB	030H
xdata	ENDS
;	COMDAT xdata
xdata	SEGMENT
$cppxdata$?flush@?$basic_ostream@DU?$char_traits@D@std@@@std@@QEAAAEAV12@XZ DB 038H
	DD	imagerel $stateUnwindMap$?flush@?$basic_ostream@DU?$char_traits@D@std@@@std@@QEAAAEAV12@XZ
	DD	imagerel $tryMap$?flush@?$basic_ostream@DU?$char_traits@D@std@@@std@@QEAAAEAV12@XZ
	DD	imagerel $ip2state$?flush@?$basic_ostream@DU?$char_traits@D@std@@@std@@QEAAAEAV12@XZ
xdata	ENDS
;	COMDAT xdata
xdata	SEGMENT
$unwind$?flush@?$basic_ostream@DU?$char_traits@D@std@@@std@@QEAAAEAV12@XZ DD 010919H
	DD	08209H
	DD	imagerel __CxxFrameHandler4
	DD	imagerel $cppxdata$?flush@?$basic_ostream@DU?$char_traits@D@std@@@std@@QEAAAEAV12@XZ
xdata	ENDS
;	COMDAT voltbl
voltbl	SEGMENT
_volmd	DB	00H
voltbl	ENDS
;	COMDAT xdata
xdata	SEGMENT
$unwind$?catch$1@?0??put@?$basic_ostream@DU?$char_traits@D@std@@@std@@QEAAAEAV12@D@Z@4HA DD 020a01H
	DD	05006320aH
xdata	ENDS
;	COMDAT xdata
xdata	SEGMENT
$unwind$?dtor$0@?0??put@?$basic_ostream@DU?$char_traits@D@std@@@std@@QEAAAEAV12@D@Z@4HA DD 020601H
	DD	050023206H
xdata	ENDS
;	COMDAT xdata
xdata	SEGMENT
$ip2state$?put@?$basic_ostream@DU?$char_traits@D@std@@@std@@QEAAAEAV12@D@Z DB 0aH
	DB	00H
	DB	00H
	DB	'J'
	DB	02H
	DB	'<'
	DB	04H
	DB	0a4H
	DB	02H
	DB	'd'
	DB	00H
xdata	ENDS
;	COMDAT xdata
xdata	SEGMENT
$handlerMap$?put@?$basic_ostream@DU?$char_traits@D@std@@@std@@QEAAAEAV12@D@Z DB 02H
	DB	01H
	DB	080H
	DD	imagerel ?catch$1@?0??put@?$basic_ostream@DU?$char_traits@D@std@@@std@@QEAAAEAV12@D@Z@4HA
xdata	ENDS
;	COMDAT xdata
xdata	SEGMENT
$tryMap$?put@?$basic_ostream@DU?$char_traits@D@std@@@std@@QEAAAEAV12@D@Z DB 02H
	DB	02H
	DB	02H
	DB	04H
	DD	imagerel $handlerMap$?put@?$basic_ostream@DU?$char_traits@D@std@@@std@@QEAAAEAV12@D@Z
xdata	ENDS
;	COMDAT xdata
xdata	SEGMENT
$stateUnwindMap$?put@?$basic_ostream@DU?$char_traits@D@std@@@std@@QEAAAEAV12@D@Z DB 06H
	DB	0eH
	DD	imagerel ?dtor$0@?0??put@?$basic_ostream@DU?$char_traits@D@std@@@std@@QEAAAEAV12@D@Z@4HA
	DB	028H
	DB	030H
xdata	ENDS
;	COMDAT xdata
xdata	SEGMENT
$cppxdata$?put@?$basic_ostream@DU?$char_traits@D@std@@@std@@QEAAAEAV12@D@Z DB 038H
	DD	imagerel $stateUnwindMap$?put@?$basic_ostream@DU?$char_traits@D@std@@@std@@QEAAAEAV12@D@Z
	DD	imagerel $tryMap$?put@?$basic_ostream@DU?$char_traits@D@std@@@std@@QEAAAEAV12@D@Z
	DD	imagerel $ip2state$?put@?$basic_ostream@DU?$char_traits@D@std@@@std@@QEAAAEAV12@D@Z
xdata	ENDS
;	COMDAT xdata
xdata	SEGMENT
$unwind$?put@?$basic_ostream@DU?$char_traits@D@std@@@std@@QEAAAEAV12@D@Z DD 010d19H
	DD	0820dH
	DD	imagerel __CxxFrameHandler4
	DD	imagerel $cppxdata$?put@?$basic_ostream@DU?$char_traits@D@std@@@std@@QEAAAEAV12@D@Z
xdata	ENDS
;	COMDAT xdata
xdata	SEGMENT
$unwind$??6?$basic_ostream@DU?$char_traits@D@std@@@std@@QEAAAEAV01@P6AAEAV01@AEAV01@@Z@Z DD 010e01H
	DD	0420eH
xdata	ENDS
;	COMDAT voltbl
voltbl	SEGMENT
_volmd	DB	00H
voltbl	ENDS
;	COMDAT xdata
xdata	SEGMENT
$ip2state$?catch$0@?0??_Osfx@?$basic_ostream@DU?$char_traits@D@std@@@std@@QEAAXXZ@4HA DB 02H
	DB	00H
	DB	02H
xdata	ENDS
;	COMDAT xdata
xdata	SEGMENT
$stateUnwindMap$?catch$0@?0??_Osfx@?$basic_ostream@DU?$char_traits@D@std@@@std@@QEAAXXZ@4HA DB 02H
	DB	08H
xdata	ENDS
;	COMDAT xdata
xdata	SEGMENT
$cppxdata$?catch$0@?0??_Osfx@?$basic_ostream@DU?$char_traits@D@std@@@std@@QEAAXXZ@4HA DB 069H
	DD	imagerel $stateUnwindMap$?catch$0@?0??_Osfx@?$basic_ostream@DU?$char_traits@D@std@@@std@@QEAAXXZ@4HA
	DD	imagerel $ip2state$?catch$0@?0??_Osfx@?$basic_ostream@DU?$char_traits@D@std@@@std@@QEAAXXZ@4HA
	DB	'p'
xdata	ENDS
;	COMDAT xdata
xdata	SEGMENT
$unwind$?catch$0@?0??_Osfx@?$basic_ostream@DU?$char_traits@D@std@@@std@@QEAAXXZ@4HA DD 020a19H
	DD	05006320aH
	DD	imagerel __CxxFrameHandler4
	DD	imagerel $cppxdata$?catch$0@?0??_Osfx@?$basic_ostream@DU?$char_traits@D@std@@@std@@QEAAXXZ@4HA
xdata	ENDS
;	COMDAT xdata
xdata	SEGMENT
$ip2state$?_Osfx@?$basic_ostream@DU?$char_traits@D@std@@@std@@QEAAXXZ DB 06H
	DB	00H
	DB	00H
	DB	012H
	DB	02H
	DB	0a9H, 02H
	DB	00H
xdata	ENDS
;	COMDAT xdata
xdata	SEGMENT
$handlerMap$?_Osfx@?$basic_ostream@DU?$char_traits@D@std@@@std@@QEAAXXZ DB 02H
	DB	01H
	DB	080H
	DD	imagerel ?catch$0@?0??_Osfx@?$basic_ostream@DU?$char_traits@D@std@@@std@@QEAAXXZ@4HA
xdata	ENDS
;	COMDAT xdata
xdata	SEGMENT
$tryMap$?_Osfx@?$basic_ostream@DU?$char_traits@D@std@@@std@@QEAAXXZ DB 02H
	DB	00H
	DB	00H
	DB	02H
	DD	imagerel $handlerMap$?_Osfx@?$basic_ostream@DU?$char_traits@D@std@@@std@@QEAAXXZ
xdata	ENDS
;	COMDAT xdata
xdata	SEGMENT
$stateUnwindMap$?_Osfx@?$basic_ostream@DU?$char_traits@D@std@@@std@@QEAAXXZ DB 04H
	DB	08H
	DB	010H
xdata	ENDS
;	COMDAT xdata
xdata	SEGMENT
$cppxdata$?_Osfx@?$basic_ostream@DU?$char_traits@D@std@@@std@@QEAAXXZ DB 078H
	DD	imagerel $stateUnwindMap$?_Osfx@?$basic_ostream@DU?$char_traits@D@std@@@std@@QEAAXXZ
	DD	imagerel $tryMap$?_Osfx@?$basic_ostream@DU?$char_traits@D@std@@@std@@QEAAXXZ
	DD	imagerel $ip2state$?_Osfx@?$basic_ostream@DU?$char_traits@D@std@@@std@@QEAAXXZ
xdata	ENDS
;	COMDAT xdata
xdata	SEGMENT
$unwind$?_Osfx@?$basic_ostream@DU?$char_traits@D@std@@@std@@QEAAXXZ DD 010919H
	DD	06209H
	DD	imagerel __CxxFrameHandler4
	DD	imagerel $cppxdata$?_Osfx@?$basic_ostream@DU?$char_traits@D@std@@@std@@QEAAXXZ
xdata	ENDS
;	COMDAT xdata
xdata	SEGMENT
$unwind$?dtor$0@?0??widen@?$basic_ios@DU?$char_traits@D@std@@@std@@QEBADD@Z@4HA DD 020601H
	DD	050023206H
xdata	ENDS
;	COMDAT xdata
xdata	SEGMENT
$ip2state$?widen@?$basic_ios@DU?$char_traits@D@std@@@std@@QEBADD@Z DB 06H
	DB	00H
	DB	00H
	DB	'V'
	DB	02H
	DB	'6'
	DB	00H
xdata	ENDS
;	COMDAT xdata
xdata	SEGMENT
$stateUnwindMap$?widen@?$basic_ios@DU?$char_traits@D@std@@@std@@QEBADD@Z DB 02H
	DB	0eH
	DD	imagerel ?dtor$0@?0??widen@?$basic_ios@DU?$char_traits@D@std@@@std@@QEBADD@Z@4HA
xdata	ENDS
;	COMDAT xdata
xdata	SEGMENT
$cppxdata$?widen@?$basic_ios@DU?$char_traits@D@std@@@std@@QEBADD@Z DB 028H
	DD	imagerel $stateUnwindMap$?widen@?$basic_ios@DU?$char_traits@D@std@@@std@@QEBADD@Z
	DD	imagerel $ip2state$?widen@?$basic_ios@DU?$char_traits@D@std@@@std@@QEBADD@Z
xdata	ENDS
;	COMDAT xdata
xdata	SEGMENT
$unwind$?widen@?$basic_ios@DU?$char_traits@D@std@@@std@@QEBADD@Z DD 010d11H
	DD	0a20dH
	DD	imagerel __CxxFrameHandler4
	DD	imagerel $cppxdata$?widen@?$basic_ios@DU?$char_traits@D@std@@@std@@QEBADD@Z
xdata	ENDS
;	COMDAT xdata
xdata	SEGMENT
$unwind$?setstate@?$basic_ios@DU?$char_traits@D@std@@@std@@QEAAXH_N@Z DD 011201H
	DD	04212H
xdata	ENDS
;	COMDAT xdata
xdata	SEGMENT
$unwind$?clear@?$basic_ios@DU?$char_traits@D@std@@@std@@QEAAXH_N@Z DD 011201H
	DD	06212H
xdata	ENDS
xdata	SEGMENT
$unwind$main DD	010401H
	DD	04204H
xdata	ENDS
;	COMDAT xdata
xdata	SEGMENT
$unwind$?getloc@ios_base@std@@QEBA?AVlocale@2@XZ DD 010e01H
	DD	0420eH
xdata	ENDS
;	COMDAT xdata
xdata	SEGMENT
$unwind$?width@ios_base@std@@QEAA_J_J@Z DD 010e01H
	DD	0220eH
xdata	ENDS
;	COMDAT xdata
xdata	SEGMENT
$unwind$?good@ios_base@std@@QEBA_NXZ DD 010901H
	DD	06209H
xdata	ENDS
;	COMDAT xdata
xdata	SEGMENT
$unwind$?clear@ios_base@std@@QEAAXH_N@Z DD 011201H
	DD	0e212H
xdata	ENDS
;	COMDAT xdata
xdata	SEGMENT
$unwind$??_Gfailure@ios_base@std@@UEAAPEAXI@Z DD 010d01H
	DD	0420dH
xdata	ENDS
;	COMDAT xdata
xdata	SEGMENT
$unwind$??0failure@ios_base@std@@QEAA@AEBV012@@Z DD 010e01H
	DD	0420eH
xdata	ENDS
;	COMDAT xdata
xdata	SEGMENT
$unwind$??1failure@ios_base@std@@UEAA@XZ DD 010901H
	DD	04209H
xdata	ENDS
;	COMDAT xdata
xdata	SEGMENT
$unwind$??0failure@ios_base@std@@QEAA@PEBDAEBVerror_code@2@@Z DD 031501H
	DD	070116215H
	DD	06010H
xdata	ENDS
;	COMDAT xdata
xdata	SEGMENT
$unwind$?dtor$1@?0???$use_facet@V?$ctype@D@std@@@std@@YAAEBV?$ctype@D@0@AEBVlocale@0@@Z@4HA DD 020601H
	DD	050023206H
xdata	ENDS
;	COMDAT xdata
xdata	SEGMENT
$unwind$?dtor$0@?0???$use_facet@V?$ctype@D@std@@@std@@YAAEBV?$ctype@D@0@AEBVlocale@0@@Z@4HA DD 020601H
	DD	050023206H
xdata	ENDS
;	COMDAT xdata
xdata	SEGMENT
$ip2state$??$use_facet@V?$ctype@D@std@@@std@@YAAEBV?$ctype@D@0@AEBVlocale@0@@Z DB 0aH
	DB	00H
	DB	00H
	DB	','
	DB	02H
	DB	'!', 02H
	DB	04H
	DB	'v'
	DB	02H
	DB	'('
	DB	00H
xdata	ENDS
;	COMDAT xdata
xdata	SEGMENT
$stateUnwindMap$??$use_facet@V?$ctype@D@std@@@std@@YAAEBV?$ctype@D@0@AEBVlocale@0@@Z DB 04H
	DB	0eH
	DD	imagerel ?dtor$0@?0???$use_facet@V?$ctype@D@std@@@std@@YAAEBV?$ctype@D@0@AEBVlocale@0@@Z@4HA
	DB	02eH
	DD	imagerel ?dtor$1@?0???$use_facet@V?$ctype@D@std@@@std@@YAAEBV?$ctype@D@0@AEBVlocale@0@@Z@4HA
xdata	ENDS
;	COMDAT xdata
xdata	SEGMENT
$cppxdata$??$use_facet@V?$ctype@D@std@@@std@@YAAEBV?$ctype@D@0@AEBVlocale@0@@Z DB 028H
	DD	imagerel $stateUnwindMap$??$use_facet@V?$ctype@D@std@@@std@@YAAEBV?$ctype@D@0@AEBVlocale@0@@Z
	DD	imagerel $ip2state$??$use_facet@V?$ctype@D@std@@@std@@YAAEBV?$ctype@D@0@AEBVlocale@0@@Z
xdata	ENDS
;	COMDAT xdata
xdata	SEGMENT
$unwind$??$use_facet@V?$ctype@D@std@@@std@@YAAEBV?$ctype@D@0@AEBVlocale@0@@Z DD 010911H
	DD	0c209H
	DD	imagerel __CxxFrameHandler4
	DD	imagerel $cppxdata$??$use_facet@V?$ctype@D@std@@@std@@YAAEBV?$ctype@D@0@AEBVlocale@0@@Z
xdata	ENDS
;	COMDAT xdata
xdata	SEGMENT
$unwind$??_G?$ctype@D@std@@MEAAPEAXI@Z DD 010d01H
	DD	0420dH
xdata	ENDS
;	COMDAT xdata
xdata	SEGMENT
$unwind$?do_narrow@?$ctype@D@std@@MEBAPEBDPEBD0DPEAD@Z DD 011801H
	DD	04218H
xdata	ENDS
;	COMDAT xdata
xdata	SEGMENT
$unwind$?do_widen@?$ctype@D@std@@MEBAPEBDPEBD0PEAD@Z DD 011801H
	DD	04218H
xdata	ENDS
;	COMDAT xdata
xdata	SEGMENT
$unwind$?do_toupper@?$ctype@D@std@@MEBAPEBDPEADPEBD@Z DD 011301H
	DD	04213H
xdata	ENDS
;	COMDAT xdata
xdata	SEGMENT
$unwind$?do_toupper@?$ctype@D@std@@MEBADD@Z DD 010d01H
	DD	0420dH
xdata	ENDS
;	COMDAT xdata
xdata	SEGMENT
$unwind$?do_tolower@?$ctype@D@std@@MEBAPEBDPEADPEBD@Z DD 011301H
	DD	04213H
xdata	ENDS
;	COMDAT xdata
xdata	SEGMENT
$unwind$?do_tolower@?$ctype@D@std@@MEBADD@Z DD 010d01H
	DD	0420dH
xdata	ENDS
;	COMDAT xdata
xdata	SEGMENT
$unwind$?_Tidy@?$ctype@D@std@@IEAAXXZ DD 010901H
	DD	06209H
xdata	ENDS
;	COMDAT xdata
xdata	SEGMENT
$unwind$?_Init@?$ctype@D@std@@IEAAXAEBV_Locinfo@2@@Z DD 031001H
	DD	0700c8210H
	DD	0600bH
xdata	ENDS
;	COMDAT xdata
xdata	SEGMENT
$unwind$??1?$ctype@D@std@@MEAA@XZ DD 010901H
	DD	04209H
xdata	ENDS
;	COMDAT xdata
xdata	SEGMENT
$unwind$?dtor$1@?0??_Getcat@?$ctype@D@std@@SA_KPEAPEBVfacet@locale@2@PEBV42@@Z@4HA DD 020601H
	DD	050023206H
xdata	ENDS
;	COMDAT xdata
xdata	SEGMENT
$unwind$?dtor$0@?0??_Getcat@?$ctype@D@std@@SA_KPEAPEBVfacet@locale@2@PEBV42@@Z@4HA DD 020601H
	DD	050023206H
xdata	ENDS
;	COMDAT xdata
xdata	SEGMENT
$ip2state$?_Getcat@?$ctype@D@std@@SA_KPEAPEBVfacet@locale@2@PEBV42@@Z DB 0eH
	DB	00H
	DB	00H
	DB	092H
	DB	02H
	DB	'b'
	DB	04H
	DB	'H'
	DB	02H
	DB	012H
	DB	04H
	DB	014H
	DB	06H
	DB	' '
	DB	00H
xdata	ENDS
;	COMDAT xdata
xdata	SEGMENT
$stateUnwindMap$?_Getcat@?$ctype@D@std@@SA_KPEAPEBVfacet@locale@2@PEBV42@@Z DB 06H
	DB	0eH
	DD	imagerel ?dtor$0@?0??_Getcat@?$ctype@D@std@@SA_KPEAPEBVfacet@locale@2@PEBV42@@Z@4HA
	DB	02eH
	DD	imagerel ?dtor$1@?0??_Getcat@?$ctype@D@std@@SA_KPEAPEBVfacet@locale@2@PEBV42@@Z@4HA
	DB	05eH
	DD	imagerel ?dtor$1@?0??_Getcat@?$ctype@D@std@@SA_KPEAPEBVfacet@locale@2@PEBV42@@Z@4HA
xdata	ENDS
;	COMDAT xdata
xdata	SEGMENT
$cppxdata$?_Getcat@?$ctype@D@std@@SA_KPEAPEBVfacet@locale@2@PEBV42@@Z DB 028H
	DD	imagerel $stateUnwindMap$?_Getcat@?$ctype@D@std@@SA_KPEAPEBVfacet@locale@2@PEBV42@@Z
	DD	imagerel $ip2state$?_Getcat@?$ctype@D@std@@SA_KPEAPEBVfacet@locale@2@PEBV42@@Z
xdata	ENDS
;	COMDAT xdata
xdata	SEGMENT
$unwind$?_Getcat@?$ctype@D@std@@SA_KPEAPEBVfacet@locale@2@PEBV42@@Z DD 021111H
	DD	0190111H
	DD	imagerel __CxxFrameHandler4
	DD	imagerel $cppxdata$?_Getcat@?$ctype@D@std@@SA_KPEAPEBVfacet@locale@2@PEBV42@@Z
xdata	ENDS
;	COMDAT xdata
xdata	SEGMENT
$unwind$?dtor$0@?0???0?$ctype@D@std@@QEAA@AEBV_Locinfo@1@_K@Z@4HA DD 020601H
	DD	050023206H
xdata	ENDS
;	COMDAT xdata
xdata	SEGMENT
$ip2state$??0?$ctype@D@std@@QEAA@AEBV_Locinfo@1@_K@Z DB 06H
	DB	00H
	DB	00H
	DB	'F'
	DB	02H
	DB	'>'
	DB	00H
xdata	ENDS
;	COMDAT xdata
xdata	SEGMENT
$stateUnwindMap$??0?$ctype@D@std@@QEAA@AEBV_Locinfo@1@_K@Z DB 02H
	DB	0eH
	DD	imagerel ?dtor$0@?0???0?$ctype@D@std@@QEAA@AEBV_Locinfo@1@_K@Z@4HA
xdata	ENDS
;	COMDAT xdata
xdata	SEGMENT
$cppxdata$??0?$ctype@D@std@@QEAA@AEBV_Locinfo@1@_K@Z DB 028H
	DD	imagerel $stateUnwindMap$??0?$ctype@D@std@@QEAA@AEBV_Locinfo@1@_K@Z
	DD	imagerel $ip2state$??0?$ctype@D@std@@QEAA@AEBV_Locinfo@1@_K@Z
xdata	ENDS
;	COMDAT xdata
xdata	SEGMENT
$unwind$??0?$ctype@D@std@@QEAA@AEBV_Locinfo@1@_K@Z DD 011311H
	DD	04213H
	DD	imagerel __CxxFrameHandler4
	DD	imagerel $cppxdata$??0?$ctype@D@std@@QEAA@AEBV_Locinfo@1@_K@Z
xdata	ENDS
;	COMDAT xdata
xdata	SEGMENT
$unwind$?widen@?$ctype@D@std@@QEBADD@Z DD 010d01H
	DD	0420dH
xdata	ENDS
;	COMDAT xdata
xdata	SEGMENT
$unwind$??_Gctype_base@std@@UEAAPEAXI@Z DD 010d01H
	DD	0420dH
xdata	ENDS
;	COMDAT xdata
xdata	SEGMENT
$unwind$??1ctype_base@std@@UEAA@XZ DD 010901H
	DD	04209H
xdata	ENDS
;	COMDAT xdata
xdata	SEGMENT
$unwind$??0ctype_base@std@@QEAA@_K@Z DD 010e01H
	DD	0420eH
xdata	ENDS
;	COMDAT xdata
xdata	SEGMENT
$unwind$?_Getfacet@locale@std@@QEBAPEBVfacet@12@_K@Z DD 010e01H
	DD	0820eH
xdata	ENDS
;	COMDAT xdata
xdata	SEGMENT
$unwind$?_C_str@locale@std@@QEBAPEBDXZ DD 010901H
	DD	06209H
xdata	ENDS
;	COMDAT xdata
xdata	SEGMENT
$unwind$??1locale@std@@QEAA@XZ DD 010901H
	DD	06209H
xdata	ENDS
;	COMDAT xdata
xdata	SEGMENT
$unwind$??0locale@std@@QEAA@AEBV01@@Z DD 010e01H
	DD	0420eH
xdata	ENDS
;	COMDAT xdata
xdata	SEGMENT
$unwind$??_Gfacet@locale@std@@MEAAPEAXI@Z DD 010d01H
	DD	0420dH
xdata	ENDS
;	COMDAT xdata
xdata	SEGMENT
$unwind$??1facet@locale@std@@MEAA@XZ DD 010901H
	DD	04209H
xdata	ENDS
;	COMDAT xdata
xdata	SEGMENT
$unwind$??0facet@locale@std@@IEAA@_K@Z DD 010e01H
	DD	0420eH
xdata	ENDS
;	COMDAT voltbl
voltbl	SEGMENT
_volmd	DB	013H
voltbl	ENDS
;	COMDAT voltbl
voltbl	SEGMENT
_volmd	DB	0eH
voltbl	ENDS
;	COMDAT xdata
xdata	SEGMENT
$unwind$??Bid@locale@std@@QEAA_KXZ DD 010901H
	DD	06209H
xdata	ENDS
;	COMDAT xdata
xdata	SEGMENT
$unwind$?_Tidy@?$_Yarn@_W@std@@AEAAXXZ DD 010901H
	DD	04209H
xdata	ENDS
;	COMDAT xdata
xdata	SEGMENT
$unwind$??1?$_Yarn@_W@std@@QEAA@XZ DD 010901H
	DD	04209H
xdata	ENDS
;	COMDAT xdata
xdata	SEGMENT
$unwind$?_Tidy@?$_Yarn@D@std@@AEAAXXZ DD 010901H
	DD	04209H
xdata	ENDS
;	COMDAT xdata
xdata	SEGMENT
$unwind$?c_str@?$_Yarn@D@std@@QEBAPEBDXZ DD 010901H
	DD	02209H
xdata	ENDS
;	COMDAT xdata
xdata	SEGMENT
$unwind$??1?$_Yarn@D@std@@QEAA@XZ DD 010901H
	DD	04209H
xdata	ENDS
;	COMDAT xdata
xdata	SEGMENT
$unwind$?_Getctype@_Locinfo@std@@QEBA?AU_Ctypevec@@XZ DD 031001H
	DD	0700cc210H
	DD	0600bH
xdata	ENDS
;	COMDAT xdata
xdata	SEGMENT
$ip2state$??1_Locinfo@std@@QEAA@XZ DB 02H
	DB	00H
	DB	00H
xdata	ENDS
;	COMDAT xdata
xdata	SEGMENT
$cppxdata$??1_Locinfo@std@@QEAA@XZ DB 060H
	DD	imagerel $ip2state$??1_Locinfo@std@@QEAA@XZ
xdata	ENDS
;	COMDAT xdata
xdata	SEGMENT
$unwind$??1_Locinfo@std@@QEAA@XZ DD 010919H
	DD	04209H
	DD	imagerel __CxxFrameHandler4
	DD	imagerel $cppxdata$??1_Locinfo@std@@QEAA@XZ
xdata	ENDS
;	COMDAT xdata
xdata	SEGMENT
$unwind$?dtor$6@?0???0_Locinfo@std@@QEAA@PEBD@Z@4HA DD 020601H
	DD	050023206H
xdata	ENDS
;	COMDAT xdata
xdata	SEGMENT
$unwind$?dtor$5@?0???0_Locinfo@std@@QEAA@PEBD@Z@4HA DD 020601H
	DD	050023206H
xdata	ENDS
;	COMDAT xdata
xdata	SEGMENT
$unwind$?dtor$4@?0???0_Locinfo@std@@QEAA@PEBD@Z@4HA DD 020601H
	DD	050023206H
xdata	ENDS
;	COMDAT xdata
xdata	SEGMENT
$unwind$?dtor$3@?0???0_Locinfo@std@@QEAA@PEBD@Z@4HA DD 020601H
	DD	050023206H
xdata	ENDS
;	COMDAT xdata
xdata	SEGMENT
$unwind$?dtor$2@?0???0_Locinfo@std@@QEAA@PEBD@Z@4HA DD 020601H
	DD	050023206H
xdata	ENDS
;	COMDAT xdata
xdata	SEGMENT
$unwind$?dtor$1@?0???0_Locinfo@std@@QEAA@PEBD@Z@4HA DD 020601H
	DD	050023206H
xdata	ENDS
;	COMDAT xdata
xdata	SEGMENT
$unwind$?dtor$0@?0???0_Locinfo@std@@QEAA@PEBD@Z@4HA DD 020601H
	DD	050023206H
xdata	ENDS
;	COMDAT xdata
xdata	SEGMENT
$ip2state$??0_Locinfo@std@@QEAA@PEBD@Z DB 012H
	DB	00H
	DB	00H
	DB	'<'
	DB	02H
	DB	'$'
	DB	04H
	DB	'$'
	DB	06H
	DB	'$'
	DB	08H
	DB	'$'
	DB	0aH
	DB	'$'
	DB	0cH
	DB	'$'
	DB	0eH
	DB	'L'
	DB	00H
xdata	ENDS
;	COMDAT xdata
xdata	SEGMENT
$stateUnwindMap$??0_Locinfo@std@@QEAA@PEBD@Z DB 0eH
	DB	0eH
	DD	imagerel ?dtor$0@?0???0_Locinfo@std@@QEAA@PEBD@Z@4HA
	DB	02eH
	DD	imagerel ?dtor$1@?0???0_Locinfo@std@@QEAA@PEBD@Z@4HA
	DB	02eH
	DD	imagerel ?dtor$2@?0???0_Locinfo@std@@QEAA@PEBD@Z@4HA
	DB	02eH
	DD	imagerel ?dtor$3@?0???0_Locinfo@std@@QEAA@PEBD@Z@4HA
	DB	02eH
	DD	imagerel ?dtor$4@?0???0_Locinfo@std@@QEAA@PEBD@Z@4HA
	DB	02eH
	DD	imagerel ?dtor$5@?0???0_Locinfo@std@@QEAA@PEBD@Z@4HA
	DB	02eH
	DD	imagerel ?dtor$6@?0???0_Locinfo@std@@QEAA@PEBD@Z@4HA
xdata	ENDS
;	COMDAT xdata
xdata	SEGMENT
$cppxdata$??0_Locinfo@std@@QEAA@PEBD@Z DB 028H
	DD	imagerel $stateUnwindMap$??0_Locinfo@std@@QEAA@PEBD@Z
	DD	imagerel $ip2state$??0_Locinfo@std@@QEAA@PEBD@Z
xdata	ENDS
;	COMDAT xdata
xdata	SEGMENT
$unwind$??0_Locinfo@std@@QEAA@PEBD@Z DD 010e11H
	DD	0420eH
	DD	imagerel __CxxFrameHandler4
	DD	imagerel $cppxdata$??0_Locinfo@std@@QEAA@PEBD@Z
xdata	ENDS
;	COMDAT xdata
xdata	SEGMENT
$unwind$??_G_Facet_base@std@@UEAAPEAXI@Z DD 010d01H
	DD	0420dH
xdata	ENDS
;	COMDAT xdata
xdata	SEGMENT
$unwind$?_Throw_bad_cast@std@@YAXXZ DD 010401H
	DD	08204H
xdata	ENDS
;	COMDAT xdata
xdata	SEGMENT
$unwind$??_Gbad_cast@std@@UEAAPEAXI@Z DD 010d01H
	DD	0420dH
xdata	ENDS
;	COMDAT xdata
xdata	SEGMENT
$unwind$??0bad_cast@std@@QEAA@AEBV01@@Z DD 010e01H
	DD	0420eH
xdata	ENDS
;	COMDAT xdata
xdata	SEGMENT
$unwind$??1bad_cast@std@@UEAA@XZ DD 010901H
	DD	04209H
xdata	ENDS
;	COMDAT xdata
xdata	SEGMENT
$unwind$??0bad_cast@std@@QEAA@XZ DD 010901H
	DD	04209H
xdata	ENDS
;	COMDAT xdata
xdata	SEGMENT
$unwind$??_G_Iostream_error_category2@std@@UEAAPEAXI@Z DD 010d01H
	DD	0420dH
xdata	ENDS
;	COMDAT xdata
xdata	SEGMENT
$unwind$??1_Iostream_error_category2@std@@UEAA@XZ DD 010901H
	DD	04209H
xdata	ENDS
;	COMDAT xdata
xdata	SEGMENT
$unwind$?message@_Iostream_error_category2@std@@UEBA?AV?$basic_string@DU?$char_traits@D@std@@V?$allocator@D@2@@2@H@Z DD 011301H
	DD	06213H
xdata	ENDS
;	COMDAT xdata
xdata	SEGMENT
$unwind$??_Gsystem_error@std@@UEAAPEAXI@Z DD 010d01H
	DD	0420dH
xdata	ENDS
;	COMDAT xdata
xdata	SEGMENT
$unwind$??0system_error@std@@QEAA@AEBV01@@Z DD 010e01H
	DD	0420eH
xdata	ENDS
;	COMDAT xdata
xdata	SEGMENT
$unwind$??1system_error@std@@UEAA@XZ DD 010901H
	DD	04209H
xdata	ENDS
;	COMDAT voltbl
voltbl	SEGMENT
_volmd	DB	01fH
	DB	08aH
voltbl	ENDS
;	COMDAT xdata
xdata	SEGMENT
$unwind$?dtor$0@?0???0system_error@std@@QEAA@Verror_code@1@PEBD@Z@4HA DD 020601H
	DD	050023206H
xdata	ENDS
;	COMDAT xdata
xdata	SEGMENT
$ip2state$??0system_error@std@@QEAA@Verror_code@1@PEBD@Z DB 06H
	DB	00H
	DB	00H
	DB	'n'
	DB	02H
	DB	'^'
	DB	00H
xdata	ENDS
;	COMDAT xdata
xdata	SEGMENT
$stateUnwindMap$??0system_error@std@@QEAA@Verror_code@1@PEBD@Z DB 02H
	DB	0eH
	DD	imagerel ?dtor$0@?0???0system_error@std@@QEAA@Verror_code@1@PEBD@Z@4HA
xdata	ENDS
;	COMDAT xdata
xdata	SEGMENT
$cppxdata$??0system_error@std@@QEAA@Verror_code@1@PEBD@Z DB 028H
	DD	imagerel $stateUnwindMap$??0system_error@std@@QEAA@Verror_code@1@PEBD@Z
	DD	imagerel $ip2state$??0system_error@std@@QEAA@Verror_code@1@PEBD@Z
xdata	ENDS
;	COMDAT xdata
xdata	SEGMENT
$unwind$??0system_error@std@@QEAA@Verror_code@1@PEBD@Z DD 032419H
	DD	07011c215H
	DD	06010H
	DD	imagerel __GSHandlerCheck_EH4
	DD	imagerel $cppxdata$??0system_error@std@@QEAA@Verror_code@1@PEBD@Z
	DD	052H
xdata	ENDS
;	COMDAT xdata
xdata	SEGMENT
$unwind$??_G_System_error@std@@UEAAPEAXI@Z DD 010d01H
	DD	0420dH
xdata	ENDS
;	COMDAT xdata
xdata	SEGMENT
$unwind$??0_System_error@std@@QEAA@AEBV01@@Z DD 031001H
	DD	0700c4210H
	DD	0600bH
xdata	ENDS
;	COMDAT xdata
xdata	SEGMENT
$unwind$??1_System_error@std@@UEAA@XZ DD 010901H
	DD	04209H
xdata	ENDS
;	COMDAT voltbl
voltbl	SEGMENT
_volmd	DB	022H
	DB	0d7H
voltbl	ENDS
;	COMDAT xdata
xdata	SEGMENT
$unwind$?dtor$1@?0???0_System_error@std@@IEAA@Verror_code@1@AEBV?$basic_string@DU?$char_traits@D@std@@V?$allocator@D@2@@1@@Z@4HA DD 020601H
	DD	050023206H
xdata	ENDS
;	COMDAT xdata
xdata	SEGMENT
$ip2state$??0_System_error@std@@IEAA@Verror_code@1@AEBV?$basic_string@DU?$char_traits@D@std@@V?$allocator@D@2@@1@@Z DB 06H
	DB	00H
	DB	00H
	DB	015H, 02H
	DB	02H
	DB	'&'
	DB	00H
xdata	ENDS
;	COMDAT xdata
xdata	SEGMENT
$stateUnwindMap$??0_System_error@std@@IEAA@Verror_code@1@AEBV?$basic_string@DU?$char_traits@D@std@@V?$allocator@D@2@@1@@Z DB 02H
	DB	0eH
	DD	imagerel ?dtor$1@?0???0_System_error@std@@IEAA@Verror_code@1@AEBV?$basic_string@DU?$char_traits@D@std@@V?$allocator@D@2@@1@@Z@4HA
xdata	ENDS
;	COMDAT xdata
xdata	SEGMENT
$cppxdata$??0_System_error@std@@IEAA@Verror_code@1@AEBV?$basic_string@DU?$char_traits@D@std@@V?$allocator@D@2@@1@@Z DB 028H
	DD	imagerel $stateUnwindMap$??0_System_error@std@@IEAA@Verror_code@1@AEBV?$basic_string@DU?$char_traits@D@std@@V?$allocator@D@2@@1@@Z
	DD	imagerel $ip2state$??0_System_error@std@@IEAA@Verror_code@1@AEBV?$basic_string@DU?$char_traits@D@std@@V?$allocator@D@2@@1@@Z
xdata	ENDS
;	COMDAT xdata
xdata	SEGMENT
$unwind$??0_System_error@std@@IEAA@Verror_code@1@AEBV?$basic_string@DU?$char_traits@D@std@@V?$allocator@D@2@@1@@Z DD 042a19H
	DD	0150118H
	DD	060107011H
	DD	imagerel __GSHandlerCheck_EH4
	DD	imagerel $cppxdata$??0_System_error@std@@IEAA@Verror_code@1@AEBV?$basic_string@DU?$char_traits@D@std@@V?$allocator@D@2@@1@@Z
	DD	092H
xdata	ENDS
;	COMDAT voltbl
voltbl	SEGMENT
_volmd	DB	01dH
	DB	0bcH
voltbl	ENDS
;	COMDAT xdata
xdata	SEGMENT
$unwind$?dtor$1@?0??_Makestr@_System_error@std@@CA?AV?$basic_string@DU?$char_traits@D@std@@V?$allocator@D@2@@2@Verror_code@2@V32@@Z@4HA DD 020601H
	DD	050023206H
xdata	ENDS
;	COMDAT xdata
xdata	SEGMENT
$unwind$?dtor$0@?0??_Makestr@_System_error@std@@CA?AV?$basic_string@DU?$char_traits@D@std@@V?$allocator@D@2@@2@Verror_code@2@V32@@Z@4HA DD 020601H
	DD	050023206H
xdata	ENDS
;	COMDAT xdata
xdata	SEGMENT
$ip2state$?_Makestr@_System_error@std@@CA?AV?$basic_string@DU?$char_traits@D@std@@V?$allocator@D@2@@2@Verror_code@2@V32@@Z DB 0aH
	DB	00H
	DB	00H
	DB	'T'
	DB	02H
	DB	08cH
	DB	04H
	DB	'&'
	DB	02H
	DB	'N'
	DB	00H
xdata	ENDS
;	COMDAT xdata
xdata	SEGMENT
$stateUnwindMap$?_Makestr@_System_error@std@@CA?AV?$basic_string@DU?$char_traits@D@std@@V?$allocator@D@2@@2@Verror_code@2@V32@@Z DB 04H
	DB	0eH
	DD	imagerel ?dtor$0@?0??_Makestr@_System_error@std@@CA?AV?$basic_string@DU?$char_traits@D@std@@V?$allocator@D@2@@2@Verror_code@2@V32@@Z@4HA
	DB	02eH
	DD	imagerel ?dtor$1@?0??_Makestr@_System_error@std@@CA?AV?$basic_string@DU?$char_traits@D@std@@V?$allocator@D@2@@2@Verror_code@2@V32@@Z@4HA
xdata	ENDS
;	COMDAT xdata
xdata	SEGMENT
$cppxdata$?_Makestr@_System_error@std@@CA?AV?$basic_string@DU?$char_traits@D@std@@V?$allocator@D@2@@2@Verror_code@2@V32@@Z DB 028H
	DD	imagerel $stateUnwindMap$?_Makestr@_System_error@std@@CA?AV?$basic_string@DU?$char_traits@D@std@@V?$allocator@D@2@@2@Verror_code@2@V32@@Z
	DD	imagerel $ip2state$?_Makestr@_System_error@std@@CA?AV?$basic_string@DU?$char_traits@D@std@@V?$allocator@D@2@@2@Verror_code@2@V32@@Z
xdata	ENDS
;	COMDAT xdata
xdata	SEGMENT
$unwind$?_Makestr@_System_error@std@@CA?AV?$basic_string@DU?$char_traits@D@std@@V?$allocator@D@2@@2@Verror_code@2@V32@@Z DD 012219H
	DD	0c213H
	DD	imagerel __GSHandlerCheck_EH4
	DD	imagerel $cppxdata$?_Makestr@_System_error@std@@CA?AV?$basic_string@DU?$char_traits@D@std@@V?$allocator@D@2@@2@Verror_code@2@V32@@Z
	DD	05aH
xdata	ENDS
;	COMDAT xdata
xdata	SEGMENT
$unwind$?make_error_code@std@@YA?AVerror_code@1@W4io_errc@1@@Z DD 010d01H
	DD	0420dH
xdata	ENDS
;	COMDAT xdata
xdata	SEGMENT
$unwind$??8std@@YA_NAEBVerror_condition@0@0@Z DD 010e01H
	DD	0620eH
xdata	ENDS
;	COMDAT xdata
xdata	SEGMENT
$unwind$?message@error_code@std@@QEBA?AV?$basic_string@DU?$char_traits@D@std@@V?$allocator@D@2@@2@XZ DD 010e01H
	DD	0820eH
xdata	ENDS
;	COMDAT xdata
xdata	SEGMENT
$unwind$??$_Bit_cast@_KT_Addr_storage@error_category@std@@$0A@@std@@YA_KAEBT_Addr_storage@error_category@0@@Z DD 010901H
	DD	02209H
xdata	ENDS
;	COMDAT xdata
xdata	SEGMENT
$unwind$??8error_category@std@@QEBA_NAEBV01@@Z DD 010e01H
	DD	0620eH
xdata	ENDS
;	COMDAT xdata
xdata	SEGMENT
$unwind$?equivalent@error_category@std@@UEBA_NAEBVerror_code@2@H@Z DD 011301H
	DD	06213H
xdata	ENDS
;	COMDAT xdata
xdata	SEGMENT
$unwind$?equivalent@error_category@std@@UEBA_NHAEBVerror_condition@2@@Z DD 011201H
	DD	06212H
xdata	ENDS
;	COMDAT xdata
xdata	SEGMENT
$unwind$?default_error_condition@error_category@std@@UEBA?AVerror_condition@2@H@Z DD 011301H
	DD	04213H
xdata	ENDS
;	COMDAT xdata
xdata	SEGMENT
$unwind$?iostream_category@std@@YAAEBVerror_category@1@XZ DD 010401H
	DD	04204H
xdata	ENDS
;	COMDAT xdata
xdata	SEGMENT
$unwind$??_Gruntime_error@std@@UEAAPEAXI@Z DD 010d01H
	DD	0420dH
xdata	ENDS
;	COMDAT xdata
xdata	SEGMENT
$unwind$??0runtime_error@std@@QEAA@AEBV01@@Z DD 010e01H
	DD	0420eH
xdata	ENDS
;	COMDAT xdata
xdata	SEGMENT
$unwind$??1runtime_error@std@@UEAA@XZ DD 010901H
	DD	04209H
xdata	ENDS
;	COMDAT xdata
xdata	SEGMENT
$unwind$??0runtime_error@std@@QEAA@AEBV?$basic_string@DU?$char_traits@D@std@@V?$allocator@D@2@@1@@Z DD 010e01H
	DD	0420eH
xdata	ENDS
;	COMDAT xdata
xdata	SEGMENT
$unwind$??1?$_Compressed_pair@V?$allocator@D@std@@V?$_String_val@U?$_Simple_types@D@std@@@2@$00@std@@QEAA@XZ DD 010901H
	DD	04209H
xdata	ENDS
;	COMDAT xdata
xdata	SEGMENT
$unwind$?_Getal@?$basic_string@DU?$char_traits@D@std@@V?$allocator@D@2@@std@@AEBAAEBV?$allocator@D@2@XZ DD 010901H
	DD	04209H
xdata	ENDS
;	COMDAT xdata
xdata	SEGMENT
$unwind$?_Getal@?$basic_string@DU?$char_traits@D@std@@V?$allocator@D@2@@std@@AEAAAEAV?$allocator@D@2@XZ DD 010901H
	DD	04209H
xdata	ENDS
;	COMDAT xdata
xdata	SEGMENT
$unwind$?_Swap_proxy_and_iterators@?$basic_string@DU?$char_traits@D@std@@V?$allocator@D@2@@std@@AEAAXAEAV12@@Z DD 010e01H
	DD	0420eH
xdata	ENDS
;	COMDAT xdata
xdata	SEGMENT
$unwind$?_Tidy_deallocate@?$basic_string@DU?$char_traits@D@std@@V?$allocator@D@2@@std@@AEAAXXZ DD 010901H
	DD	08209H
xdata	ENDS
;	COMDAT xdata
xdata	SEGMENT
$unwind$?_Tidy_init@?$basic_string@DU?$char_traits@D@std@@V?$allocator@D@2@@std@@AEAAXXZ DD 010901H
	DD	06209H
xdata	ENDS
;	COMDAT xdata
xdata	SEGMENT
$unwind$?_Calculate_growth@?$basic_string@DU?$char_traits@D@std@@V?$allocator@D@2@@std@@AEBA_K_K@Z DD 010e01H
	DD	0420eH
xdata	ENDS
;	COMDAT xdata
xdata	SEGMENT
$unwind$?_Calculate_growth@?$basic_string@DU?$char_traits@D@std@@V?$allocator@D@2@@std@@CA_K_K00@Z DD 011301H
	DD	06213H
xdata	ENDS
;	COMDAT xdata
xdata	SEGMENT
$unwind$?empty@?$basic_string@DU?$char_traits@D@std@@V?$allocator@D@2@@std@@QEBA_NXZ DD 010901H
	DD	02209H
xdata	ENDS
;	COMDAT xdata
xdata	SEGMENT
$unwind$?max_size@?$basic_string@DU?$char_traits@D@std@@V?$allocator@D@2@@std@@QEBA_KXZ DD 010901H
	DD	0a209H
xdata	ENDS
;	COMDAT xdata
xdata	SEGMENT
$unwind$?c_str@?$basic_string@DU?$char_traits@D@std@@V?$allocator@D@2@@std@@QEBAPEBDXZ DD 010901H
	DD	04209H
xdata	ENDS
;	COMDAT xdata
xdata	SEGMENT
$unwind$?append@?$basic_string@DU?$char_traits@D@std@@V?$allocator@D@2@@std@@QEAAAEAV12@QEBD@Z DD 010e01H
	DD	0420eH
xdata	ENDS
;	COMDAT xdata
xdata	SEGMENT
$unwind$?append@?$basic_string@DU?$char_traits@D@std@@V?$allocator@D@2@@std@@QEAAAEAV12@QEBD_K@Z DD 021401H
	DD	070109214H
xdata	ENDS
;	COMDAT xdata
xdata	SEGMENT
$unwind$?append@?$basic_string@DU?$char_traits@D@std@@V?$allocator@D@2@@std@@QEAAAEAV12@AEBV12@@Z DD 010e01H
	DD	0420eH
xdata	ENDS
;	COMDAT xdata
xdata	SEGMENT
$unwind$??1?$basic_string@DU?$char_traits@D@std@@V?$allocator@D@2@@std@@QEAA@XZ DD 010901H
	DD	04209H
xdata	ENDS
;	COMDAT xdata
xdata	SEGMENT
$unwind$?_Take_contents@?$basic_string@DU?$char_traits@D@std@@V?$allocator@D@2@@std@@AEAAXAEAV12@@Z DD 010e01H
	DD	0820eH
xdata	ENDS
;	COMDAT xdata
xdata	SEGMENT
$unwind$?_Memcpy_val_from@?$basic_string@DU?$char_traits@D@std@@V?$allocator@D@2@@std@@AEAAXAEBV12@@Z DD 010e01H
	DD	0620eH
xdata	ENDS
;	COMDAT xdata
xdata	SEGMENT
$unwind$??0?$basic_string@DU?$char_traits@D@std@@V?$allocator@D@2@@std@@QEAA@$$QEAV01@@Z DD 010e01H
	DD	0620eH
xdata	ENDS
;	COMDAT xdata
xdata	SEGMENT
$ip2state$?_Deallocate_for_capacity@?$basic_string@DU?$char_traits@D@std@@V?$allocator@D@2@@std@@CAXAEAV?$allocator@D@2@QEAD_K@Z DB 02H
	DB	00H
	DB	00H
xdata	ENDS
;	COMDAT xdata
xdata	SEGMENT
$cppxdata$?_Deallocate_for_capacity@?$basic_string@DU?$char_traits@D@std@@V?$allocator@D@2@@std@@CAXAEAV?$allocator@D@2@QEAD_K@Z DB 060H
	DD	imagerel $ip2state$?_Deallocate_for_capacity@?$basic_string@DU?$char_traits@D@std@@V?$allocator@D@2@@std@@CAXAEAV?$allocator@D@2@QEAD_K@Z
xdata	ENDS
;	COMDAT xdata
xdata	SEGMENT
$unwind$?_Deallocate_for_capacity@?$basic_string@DU?$char_traits@D@std@@V?$allocator@D@2@@std@@CAXAEAV?$allocator@D@2@QEAD_K@Z DD 011319H
	DD	04213H
	DD	imagerel __CxxFrameHandler4
	DD	imagerel $cppxdata$?_Deallocate_for_capacity@?$basic_string@DU?$char_traits@D@std@@V?$allocator@D@2@@std@@CAXAEAV?$allocator@D@2@QEAD_K@Z
xdata	ENDS
;	COMDAT xdata
xdata	SEGMENT
$unwind$?dtor$0@?0???0?$basic_string@DU?$char_traits@D@std@@V?$allocator@D@2@@std@@QEAA@QEBD@Z@4HA DD 020601H
	DD	050023206H
xdata	ENDS
;	COMDAT xdata
xdata	SEGMENT
$ip2state$??0?$basic_string@DU?$char_traits@D@std@@V?$allocator@D@2@@std@@QEAA@QEBD@Z DB 06H
	DB	00H
	DB	00H
	DB	'B'
	DB	02H
	DB	'J'
	DB	00H
xdata	ENDS
;	COMDAT xdata
xdata	SEGMENT
$stateUnwindMap$??0?$basic_string@DU?$char_traits@D@std@@V?$allocator@D@2@@std@@QEAA@QEBD@Z DB 02H
	DB	0eH
	DD	imagerel ?dtor$0@?0???0?$basic_string@DU?$char_traits@D@std@@V?$allocator@D@2@@std@@QEAA@QEBD@Z@4HA
xdata	ENDS
;	COMDAT xdata
xdata	SEGMENT
$cppxdata$??0?$basic_string@DU?$char_traits@D@std@@V?$allocator@D@2@@std@@QEAA@QEBD@Z DB 028H
	DD	imagerel $stateUnwindMap$??0?$basic_string@DU?$char_traits@D@std@@V?$allocator@D@2@@std@@QEAA@QEBD@Z
	DD	imagerel $ip2state$??0?$basic_string@DU?$char_traits@D@std@@V?$allocator@D@2@@std@@QEAA@QEBD@Z
xdata	ENDS
;	COMDAT xdata
xdata	SEGMENT
$unwind$??0?$basic_string@DU?$char_traits@D@std@@V?$allocator@D@2@@std@@QEAA@QEBD@Z DD 010e11H
	DD	0620eH
	DD	imagerel __CxxFrameHandler4
	DD	imagerel $cppxdata$??0?$basic_string@DU?$char_traits@D@std@@V?$allocator@D@2@@std@@QEAA@QEBD@Z
xdata	ENDS
;	COMDAT xdata
xdata	SEGMENT
$unwind$?dtor$0@?0???0?$basic_string@DU?$char_traits@D@std@@V?$allocator@D@2@@std@@QEAA@QEBD_K@Z@4HA DD 020601H
	DD	050023206H
xdata	ENDS
;	COMDAT xdata
xdata	SEGMENT
$ip2state$??0?$basic_string@DU?$char_traits@D@std@@V?$allocator@D@2@@std@@QEAA@QEBD_K@Z DB 06H
	DB	00H
	DB	00H
	DB	'L'
	DB	02H
	DB	'*'
	DB	00H
xdata	ENDS
;	COMDAT xdata
xdata	SEGMENT
$stateUnwindMap$??0?$basic_string@DU?$char_traits@D@std@@V?$allocator@D@2@@std@@QEAA@QEBD_K@Z DB 02H
	DB	0eH
	DD	imagerel ?dtor$0@?0???0?$basic_string@DU?$char_traits@D@std@@V?$allocator@D@2@@std@@QEAA@QEBD_K@Z@4HA
xdata	ENDS
;	COMDAT xdata
xdata	SEGMENT
$cppxdata$??0?$basic_string@DU?$char_traits@D@std@@V?$allocator@D@2@@std@@QEAA@QEBD_K@Z DB 028H
	DD	imagerel $stateUnwindMap$??0?$basic_string@DU?$char_traits@D@std@@V?$allocator@D@2@@std@@QEAA@QEBD_K@Z
	DD	imagerel $ip2state$??0?$basic_string@DU?$char_traits@D@std@@V?$allocator@D@2@@std@@QEAA@QEBD_K@Z
xdata	ENDS
;	COMDAT xdata
xdata	SEGMENT
$unwind$??0?$basic_string@DU?$char_traits@D@std@@V?$allocator@D@2@@std@@QEAA@QEBD_K@Z DD 011311H
	DD	06213H
	DD	imagerel __CxxFrameHandler4
	DD	imagerel $cppxdata$??0?$basic_string@DU?$char_traits@D@std@@V?$allocator@D@2@@std@@QEAA@QEBD_K@Z
xdata	ENDS
;	COMDAT xdata
xdata	SEGMENT
$unwind$?dtor$0@?0???0?$basic_string@DU?$char_traits@D@std@@V?$allocator@D@2@@std@@QEAA@AEBV01@@Z@4HA DD 020601H
	DD	050023206H
xdata	ENDS
;	COMDAT xdata
xdata	SEGMENT
$ip2state$??0?$basic_string@DU?$char_traits@D@std@@V?$allocator@D@2@@std@@QEAA@AEBV01@@Z DB 06H
	DB	00H
	DB	00H
	DB	'p'
	DB	02H
	DB	'H'
	DB	00H
xdata	ENDS
;	COMDAT xdata
xdata	SEGMENT
$stateUnwindMap$??0?$basic_string@DU?$char_traits@D@std@@V?$allocator@D@2@@std@@QEAA@AEBV01@@Z DB 02H
	DB	0eH
	DD	imagerel ?dtor$0@?0???0?$basic_string@DU?$char_traits@D@std@@V?$allocator@D@2@@std@@QEAA@AEBV01@@Z@4HA
xdata	ENDS
;	COMDAT xdata
xdata	SEGMENT
$cppxdata$??0?$basic_string@DU?$char_traits@D@std@@V?$allocator@D@2@@std@@QEAA@AEBV01@@Z DB 028H
	DD	imagerel $stateUnwindMap$??0?$basic_string@DU?$char_traits@D@std@@V?$allocator@D@2@@std@@QEAA@AEBV01@@Z
	DD	imagerel $ip2state$??0?$basic_string@DU?$char_traits@D@std@@V?$allocator@D@2@@std@@QEAA@AEBV01@@Z
xdata	ENDS
;	COMDAT xdata
xdata	SEGMENT
$unwind$??0?$basic_string@DU?$char_traits@D@std@@V?$allocator@D@2@@std@@QEAA@AEBV01@@Z DD 010e11H
	DD	0620eH
	DD	imagerel __CxxFrameHandler4
	DD	imagerel $cppxdata$??0?$basic_string@DU?$char_traits@D@std@@V?$allocator@D@2@@std@@QEAA@AEBV01@@Z
xdata	ENDS
;	COMDAT xdata
xdata	SEGMENT
$unwind$??1?$_String_val@U?$_Simple_types@D@std@@@std@@QEAA@XZ DD 010901H
	DD	04209H
xdata	ENDS
;	COMDAT xdata
xdata	SEGMENT
$unwind$??0_Bxty@?$_String_val@U?$_Simple_types@D@std@@@std@@QEAA@XZ DD 010601H
	DD	07006H
xdata	ENDS
;	COMDAT xdata
xdata	SEGMENT
$unwind$?_Large_mode_engaged@?$_String_val@U?$_Simple_types@D@std@@@std@@QEBA_NXZ DD 010901H
	DD	02209H
xdata	ENDS
;	COMDAT xdata
xdata	SEGMENT
$unwind$?_Myptr@?$_String_val@U?$_Simple_types@D@std@@@std@@QEBAPEBDXZ DD 010901H
	DD	06209H
xdata	ENDS
;	COMDAT xdata
xdata	SEGMENT
$unwind$?_Myptr@?$_String_val@U?$_Simple_types@D@std@@@std@@QEAAPEADXZ DD 010901H
	DD	06209H
xdata	ENDS
;	COMDAT xdata
xdata	SEGMENT
$unwind$??0?$_String_val@U?$_Simple_types@D@std@@@std@@QEAA@XZ DD 010901H
	DD	04209H
xdata	ENDS
;	COMDAT xdata
xdata	SEGMENT
$unwind$?allocate@?$allocator@D@std@@QEAAPEAD_K@Z DD 010e01H
	DD	0420eH
xdata	ENDS
;	COMDAT xdata
xdata	SEGMENT
$unwind$?deallocate@?$allocator@D@std@@QEAAXQEAD_K@Z DD 011301H
	DD	04213H
xdata	ENDS
;	COMDAT xdata
xdata	SEGMENT
$unwind$?_Xlen_string@std@@YAXXZ DD 010401H
	DD	04204H
xdata	ENDS
;	COMDAT xdata
xdata	SEGMENT
$unwind$?eq_int_type@?$_Narrow_char_traits@DH@std@@SA_NHH@Z DD 010c01H
	DD	0220cH
xdata	ENDS
;	COMDAT xdata
xdata	SEGMENT
$unwind$?length@?$_Narrow_char_traits@DH@std@@SA_KQEBD@Z DD 010901H
	DD	04209H
xdata	ENDS
;	COMDAT xdata
xdata	SEGMENT
$unwind$?move@?$_Char_traits@DH@std@@SAPEADQEADQEBD_K@Z DD 011301H
	DD	04213H
xdata	ENDS
;	COMDAT xdata
xdata	SEGMENT
$unwind$?copy@?$_Char_traits@DH@std@@SAPEADQEADQEBD_K@Z DD 011301H
	DD	04213H
xdata	ENDS
;	COMDAT xdata
xdata	SEGMENT
$unwind$?_Adjust_manually_vector_aligned@std@@YAXAEAPEAXAEA_K@Z DD 010e01H
	DD	0820eH
xdata	ENDS
;	COMDAT xdata
xdata	SEGMENT
$unwind$?_Allocate@_Default_allocate_traits@std@@SAPEAX_K@Z DD 010901H
	DD	04209H
xdata	ENDS
;	COMDAT xdata
xdata	SEGMENT
$unwind$?_Throw_bad_array_new_length@std@@YAXXZ DD 010401H
	DD	08204H
xdata	ENDS
;	COMDAT xdata
xdata	SEGMENT
$unwind$??_Gbad_array_new_length@std@@UEAAPEAXI@Z DD 010d01H
	DD	0420dH
xdata	ENDS
;	COMDAT xdata
xdata	SEGMENT
$unwind$??0bad_array_new_length@std@@QEAA@AEBV01@@Z DD 010e01H
	DD	0420eH
xdata	ENDS
;	COMDAT xdata
xdata	SEGMENT
$unwind$??1bad_array_new_length@std@@UEAA@XZ DD 010901H
	DD	04209H
xdata	ENDS
;	COMDAT xdata
xdata	SEGMENT
$unwind$??0bad_array_new_length@std@@QEAA@XZ DD 010901H
	DD	04209H
xdata	ENDS
;	COMDAT xdata
xdata	SEGMENT
$unwind$??_Gbad_alloc@std@@UEAAPEAXI@Z DD 010d01H
	DD	0420dH
xdata	ENDS
;	COMDAT xdata
xdata	SEGMENT
$unwind$??0bad_alloc@std@@QEAA@AEBV01@@Z DD 010e01H
	DD	0420eH
xdata	ENDS
;	COMDAT xdata
xdata	SEGMENT
$unwind$??1bad_alloc@std@@UEAA@XZ DD 010901H
	DD	04209H
xdata	ENDS
;	COMDAT xdata
xdata	SEGMENT
$unwind$??0bad_alloc@std@@AEAA@QEBD@Z DD 010e01H
	DD	0420eH
xdata	ENDS
;	COMDAT xdata
xdata	SEGMENT
$unwind$??_Gexception@std@@UEAAPEAXI@Z DD 010d01H
	DD	0420dH
xdata	ENDS
;	COMDAT xdata
xdata	SEGMENT
$unwind$?what@exception@std@@UEBAPEBDXZ DD 010901H
	DD	02209H
xdata	ENDS
;	COMDAT xdata
xdata	SEGMENT
$unwind$??1exception@std@@UEAA@XZ DD 010901H
	DD	04209H
xdata	ENDS
;	COMDAT xdata
xdata	SEGMENT
$unwind$??0exception@std@@QEAA@AEBV01@@Z DD 020f01H
	DD	0700b320fH
xdata	ENDS
;	COMDAT xdata
xdata	SEGMENT
$unwind$??0exception@std@@QEAA@QEBDH@Z DD 011001H
	DD	07010H
xdata	ENDS
;	COMDAT xdata
xdata	SEGMENT
$unwind$??0exception@std@@QEAA@QEBD@Z DD 020f01H
	DD	0700b520fH
xdata	ENDS
; Function compile flags: /Odtp
; File F:\software installation\Visual Studio Installation\VC\Tools\MSVC\14.38.33130\include\xmemory
;	COMDAT ??$_Allocate_manually_vector_aligned@U_Default_allocate_traits@std@@@std@@YAPEAX_K@Z
_TEXT	SEGMENT
_Ptr_container$ = 32
_Block_size$ = 40
_Ptr$ = 48
_Bytes$ = 80
??$_Allocate_manually_vector_aligned@U_Default_allocate_traits@std@@@std@@YAPEAX_K@Z PROC ; std::_Allocate_manually_vector_aligned<std::_Default_allocate_traits>, COMDAT

; 136  : __declspec(allocator) void* _Allocate_manually_vector_aligned(const size_t _Bytes) {

$LN12:
	mov	QWORD PTR [rsp+8], rcx
	sub	rsp, 72					; 00000048H

; 137  :     // allocate _Bytes manually aligned to at least _Big_allocation_alignment
; 138  :     const size_t _Block_size = _Non_user_size + _Bytes;

	mov	rax, QWORD PTR _Bytes$[rsp]
	add	rax, 39					; 00000027H
	mov	QWORD PTR _Block_size$[rsp], rax

; 139  :     if (_Block_size <= _Bytes) {

	mov	rax, QWORD PTR _Bytes$[rsp]
	cmp	QWORD PTR _Block_size$[rsp], rax
	ja	SHORT $LN8@Allocate_m

; 140  :         _Throw_bad_array_new_length(); // add overflow

	call	?_Throw_bad_array_new_length@std@@YAXXZ	; std::_Throw_bad_array_new_length
$LN8@Allocate_m:

; 141  :     }
; 142  : 
; 143  :     const uintptr_t _Ptr_container = reinterpret_cast<uintptr_t>(_Traits::_Allocate(_Block_size));

	mov	rcx, QWORD PTR _Block_size$[rsp]
	call	?_Allocate@_Default_allocate_traits@std@@SAPEAX_K@Z ; std::_Default_allocate_traits::_Allocate
	mov	QWORD PTR _Ptr_container$[rsp], rax
$LN4@Allocate_m:

; 144  :     _STL_VERIFY(_Ptr_container != 0, "invalid argument"); // validate even in release since we're doing p[-1]

	cmp	QWORD PTR _Ptr_container$[rsp], 0
	je	SHORT $LN9@Allocate_m
	jmp	SHORT $LN10@Allocate_m
$LN9@Allocate_m:
$LN7@Allocate_m:
	call	_invalid_parameter_noinfo_noreturn
	xor	eax, eax
	test	eax, eax
	jne	SHORT $LN7@Allocate_m
$LN10@Allocate_m:
	xor	eax, eax
	test	eax, eax
	jne	SHORT $LN4@Allocate_m

; 145  :     void* const _Ptr = reinterpret_cast<void*>((_Ptr_container + _Non_user_size) & ~(_Big_allocation_alignment - 1));

	mov	rax, QWORD PTR _Ptr_container$[rsp]
	add	rax, 39					; 00000027H
	and	rax, -32				; ffffffffffffffe0H
	mov	QWORD PTR _Ptr$[rsp], rax

; 146  :     static_cast<uintptr_t*>(_Ptr)[-1] = _Ptr_container;

	mov	eax, 8
	imul	rax, rax, -1
	mov	rcx, QWORD PTR _Ptr$[rsp]
	mov	rdx, QWORD PTR _Ptr_container$[rsp]
	mov	QWORD PTR [rcx+rax], rdx

; 147  : 
; 148  : #ifdef _DEBUG
; 149  :     static_cast<uintptr_t*>(_Ptr)[-2] = _Big_allocation_sentinel;
; 150  : #endif // defined(_DEBUG)
; 151  :     return _Ptr;

	mov	rax, QWORD PTR _Ptr$[rsp]
$LN11@Allocate_m:

; 152  : }

	add	rsp, 72					; 00000048H
	ret	0
??$_Allocate_manually_vector_aligned@U_Default_allocate_traits@std@@@std@@YAPEAX_K@Z ENDP ; std::_Allocate_manually_vector_aligned<std::_Default_allocate_traits>
_TEXT	ENDS
; Function compile flags: /Odtp
; File F:\software installation\Visual Studio Installation\VC\Tools\MSVC\14.38.33130\include\xmemory
;	COMDAT ??$_Get_size_of_n@$00@std@@YA_K_K@Z
_TEXT	SEGMENT
_Overflow_is_possible$ = 0
_Count$ = 32
??$_Get_size_of_n@$00@std@@YA_K_K@Z PROC		; std::_Get_size_of_n<1>, COMDAT

; 64   : _NODISCARD constexpr size_t _Get_size_of_n(const size_t _Count) {

$LN3:
	mov	QWORD PTR [rsp+8], rcx
	sub	rsp, 24

; 65   :     constexpr bool _Overflow_is_possible = _Ty_size > 1;

	mov	BYTE PTR _Overflow_is_possible$[rsp], 0

; 66   : 
; 67   :     if constexpr (_Overflow_is_possible) {
; 68   :         constexpr size_t _Max_possible = static_cast<size_t>(-1) / _Ty_size;
; 69   :         if (_Count > _Max_possible) {
; 70   :             _Throw_bad_array_new_length(); // multiply overflow
; 71   :         }
; 72   :     }
; 73   : 
; 74   :     return _Count * _Ty_size;

	mov	rax, QWORD PTR _Count$[rsp]

; 75   : }

	add	rsp, 24
	ret	0
??$_Get_size_of_n@$00@std@@YA_K_K@Z ENDP		; std::_Get_size_of_n<1>
_TEXT	ENDS
; Function compile flags: /Odtp
; File F:\software installation\Visual Studio Installation\VC\Tools\MSVC\14.38.33130\include\xmemory
;	COMDAT ??$_Allocate@$0BA@U_Default_allocate_traits@std@@$0A@@std@@YAPEAX_K@Z
_TEXT	SEGMENT
_Bytes$ = 48
??$_Allocate@$0BA@U_Default_allocate_traits@std@@$0A@@std@@YAPEAX_K@Z PROC ; std::_Allocate<16,std::_Default_allocate_traits,0>, COMDAT

; 230  : __declspec(allocator) _CONSTEXPR20 void* _Allocate(const size_t _Bytes) {

$LN5:
	mov	QWORD PTR [rsp+8], rcx
	sub	rsp, 40					; 00000028H

; 231  :     // allocate _Bytes when !_HAS_ALIGNED_NEW || _Align <= __STDCPP_DEFAULT_NEW_ALIGNMENT__
; 232  : #if defined(_M_IX86) || defined(_M_X64)
; 233  : #if _HAS_CXX20 // TRANSITION, GH-1532
; 234  :     if (!_STD is_constant_evaluated())
; 235  : #endif // _HAS_CXX20
; 236  :     {
; 237  :         if (_Bytes >= _Big_allocation_threshold) { // boost the alignment of big allocations to help autovectorization

	cmp	QWORD PTR _Bytes$[rsp], 4096		; 00001000H
	jb	SHORT $LN2@Allocate

; 238  :             return _Allocate_manually_vector_aligned<_Traits>(_Bytes);

	mov	rcx, QWORD PTR _Bytes$[rsp]
	call	??$_Allocate_manually_vector_aligned@U_Default_allocate_traits@std@@@std@@YAPEAX_K@Z ; std::_Allocate_manually_vector_aligned<std::_Default_allocate_traits>
	jmp	SHORT $LN1@Allocate
$LN2@Allocate:

; 239  :         }
; 240  :     }
; 241  : #endif // defined(_M_IX86) || defined(_M_X64)
; 242  : 
; 243  :     if (_Bytes != 0) {

	cmp	QWORD PTR _Bytes$[rsp], 0
	je	SHORT $LN3@Allocate

; 244  :         return _Traits::_Allocate(_Bytes);

	mov	rcx, QWORD PTR _Bytes$[rsp]
	call	?_Allocate@_Default_allocate_traits@std@@SAPEAX_K@Z ; std::_Default_allocate_traits::_Allocate
	jmp	SHORT $LN1@Allocate
$LN3@Allocate:

; 245  :     }
; 246  : 
; 247  :     return nullptr;

	xor	eax, eax
$LN1@Allocate:

; 248  : }

	add	rsp, 40					; 00000028H
	ret	0
??$_Allocate@$0BA@U_Default_allocate_traits@std@@$0A@@std@@YAPEAX_K@Z ENDP ; std::_Allocate<16,std::_Default_allocate_traits,0>
_TEXT	ENDS
; Function compile flags: /Odtp
; File F:\software installation\Visual Studio Installation\VC\Tools\MSVC\14.38.33130\include\type_traits
;	COMDAT ??$forward@AEAPEAV_Facet_base@std@@@std@@YAAEAPEAV_Facet_base@0@AEAPEAV10@@Z
_TEXT	SEGMENT
_Arg$ = 8
??$forward@AEAPEAV_Facet_base@std@@@std@@YAAEAPEAV_Facet_base@0@AEAPEAV10@@Z PROC ; std::forward<std::_Facet_base * &>, COMDAT

; 1562 : _NODISCARD _MSVC_INTRINSIC constexpr _Ty&& forward(remove_reference_t<_Ty>& _Arg) noexcept {

	mov	QWORD PTR [rsp+8], rcx

; 1563 :     return static_cast<_Ty&&>(_Arg);

	mov	rax, QWORD PTR _Arg$[rsp]

; 1564 : }

	ret	0
??$forward@AEAPEAV_Facet_base@std@@@std@@YAAEAPEAV_Facet_base@0@AEAPEAV10@@Z ENDP ; std::forward<std::_Facet_base * &>
_TEXT	ENDS
; Function compile flags: /Odtp
; File F:\software installation\Visual Studio Installation\VC\Tools\MSVC\14.38.33130\include\type_traits
;	COMDAT ??$forward@AEBQEAD@std@@YAAEBQEADAEBQEAD@Z
_TEXT	SEGMENT
_Arg$ = 8
??$forward@AEBQEAD@std@@YAAEBQEADAEBQEAD@Z PROC		; std::forward<char * const &>, COMDAT

; 1562 : _NODISCARD _MSVC_INTRINSIC constexpr _Ty&& forward(remove_reference_t<_Ty>& _Arg) noexcept {

	mov	QWORD PTR [rsp+8], rcx

; 1563 :     return static_cast<_Ty&&>(_Arg);

	mov	rax, QWORD PTR _Arg$[rsp]

; 1564 : }

	ret	0
??$forward@AEBQEAD@std@@YAAEBQEADAEBQEAD@Z ENDP		; std::forward<char * const &>
_TEXT	ENDS
; Function compile flags: /Odtp
; File F:\software installation\Visual Studio Installation\VC\Tools\MSVC\14.38.33130\include\xmemory
;	COMDAT ??$_Allocate_at_least_helper@V?$allocator@D@std@@@std@@YAPEADAEAV?$allocator@D@0@AEA_K@Z
_TEXT	SEGMENT
_Al$ = 48
_Count$ = 56
??$_Allocate_at_least_helper@V?$allocator@D@std@@@std@@YAPEADAEAV?$allocator@D@0@AEA_K@Z PROC ; std::_Allocate_at_least_helper<std::allocator<char> >, COMDAT

; 2198 :     _Alloc& _Al, _CRT_GUARDOVERFLOW typename allocator_traits<_Alloc>::size_type& _Count) {

$LN3:
	mov	QWORD PTR [rsp+16], rdx
	mov	QWORD PTR [rsp+8], rcx
	sub	rsp, 40					; 00000028H

; 2199 : #if _HAS_CXX23
; 2200 :     if constexpr (_Should_allocate_at_least<_Alloc>) {
; 2201 :         auto [_Ptr, _Allocated] = _Al.allocate_at_least(_Count);
; 2202 :         _Count                  = _Allocated;
; 2203 :         return _Ptr;
; 2204 :     } else
; 2205 : #endif // _HAS_CXX23
; 2206 :     {
; 2207 :         return _Al.allocate(_Count);

	mov	rax, QWORD PTR _Count$[rsp]
	mov	rdx, QWORD PTR [rax]
	mov	rcx, QWORD PTR _Al$[rsp]
	call	?allocate@?$allocator@D@std@@QEAAPEAD_K@Z ; std::allocator<char>::allocate

; 2208 :     }
; 2209 : }

	add	rsp, 40					; 00000028H
	ret	0
??$_Allocate_at_least_helper@V?$allocator@D@std@@@std@@YAPEADAEAV?$allocator@D@0@AEA_K@Z ENDP ; std::_Allocate_at_least_helper<std::allocator<char> >
_TEXT	ENDS
; Function compile flags: /Odtp
; File F:\software installation\Visual Studio Installation\VC\Tools\MSVC\14.38.33130\include\xmemory
;	COMDAT ??$?0AEAPEAV_Facet_base@std@@@?$_Compressed_pair@U?$default_delete@V_Facet_base@std@@@std@@PEAV_Facet_base@2@$00@std@@QEAA@U_Zero_then_variadic_args_t@1@AEAPEAV_Facet_base@1@@Z
_TEXT	SEGMENT
this$ = 48
__formal$ = 56
<_Val2_0>$ = 64
??$?0AEAPEAV_Facet_base@std@@@?$_Compressed_pair@U?$default_delete@V_Facet_base@std@@@std@@PEAV_Facet_base@2@$00@std@@QEAA@U_Zero_then_variadic_args_t@1@AEAPEAV_Facet_base@1@@Z PROC ; std::_Compressed_pair<std::default_delete<std::_Facet_base>,std::_Facet_base *,1>::_Compressed_pair<std::default_delete<std::_Facet_base>,std::_Facet_base *,1><std::_Facet_base * &>, COMDAT

; 1519 :         : _Ty1(), _Myval2(_STD forward<_Other2>(_Val2)...) {}

$LN3:
	mov	QWORD PTR [rsp+24], r8
	mov	BYTE PTR [rsp+16], dl
	mov	QWORD PTR [rsp+8], rcx
	sub	rsp, 40					; 00000028H
	mov	rcx, QWORD PTR <_Val2_0>$[rsp]
	call	??$forward@AEAPEAV_Facet_base@std@@@std@@YAAEAPEAV_Facet_base@0@AEAPEAV10@@Z ; std::forward<std::_Facet_base * &>
	mov	rcx, QWORD PTR this$[rsp]
	mov	rax, QWORD PTR [rax]
	mov	QWORD PTR [rcx], rax
	mov	rax, QWORD PTR this$[rsp]
	add	rsp, 40					; 00000028H
	ret	0
??$?0AEAPEAV_Facet_base@std@@@?$_Compressed_pair@U?$default_delete@V_Facet_base@std@@@std@@PEAV_Facet_base@2@$00@std@@QEAA@U_Zero_then_variadic_args_t@1@AEAPEAV_Facet_base@1@@Z ENDP ; std::_Compressed_pair<std::default_delete<std::_Facet_base>,std::_Facet_base *,1>::_Compressed_pair<std::default_delete<std::_Facet_base>,std::_Facet_base *,1><std::_Facet_base * &>
_TEXT	ENDS
; Function compile flags: /Odtp
; File F:\software installation\Visual Studio Installation\VC\Tools\MSVC\14.38.33130\include\utility
;	COMDAT ??$exchange@PEAV_Facet_base@std@@$$T@std@@YAPEAV_Facet_base@0@AEAPEAV10@$$QEA$$T@Z
_TEXT	SEGMENT
_Old_val$ = 0
_Val$ = 32
_New_val$ = 40
??$exchange@PEAV_Facet_base@std@@$$T@std@@YAPEAV_Facet_base@0@AEAPEAV10@$$QEA$$T@Z PROC ; std::exchange<std::_Facet_base *,std::nullptr_t>, COMDAT

; 760  :     conjunction_v<is_nothrow_move_constructible<_Ty>, is_nothrow_assignable<_Ty&, _Other>>) {

$LN3:
	mov	QWORD PTR [rsp+16], rdx
	mov	QWORD PTR [rsp+8], rcx
	sub	rsp, 24

; 761  :     // assign _New_val to _Val, return previous _Val
; 762  :     _Ty _Old_val = static_cast<_Ty&&>(_Val);

	mov	rax, QWORD PTR _Val$[rsp]
	mov	rax, QWORD PTR [rax]
	mov	QWORD PTR _Old_val$[rsp], rax

; 763  :     _Val         = static_cast<_Other&&>(_New_val);

	mov	rax, QWORD PTR _Val$[rsp]
	mov	rcx, QWORD PTR _New_val$[rsp]
	mov	rcx, QWORD PTR [rcx]
	mov	QWORD PTR [rax], rcx

; 764  :     return _Old_val;

	mov	rax, QWORD PTR _Old_val$[rsp]

; 765  : }

	add	rsp, 24
	ret	0
??$exchange@PEAV_Facet_base@std@@$$T@std@@YAPEAV_Facet_base@0@AEAPEAV10@$$QEA$$T@Z ENDP ; std::exchange<std::_Facet_base *,std::nullptr_t>
_TEXT	ENDS
; Function compile flags: /Odtp
; File F:\software installation\Visual Studio Installation\VC\Tools\MSVC\14.38.33130\include\type_traits
;	COMDAT ??$forward@AEAPEAD@std@@YAAEAPEADAEAPEAD@Z
_TEXT	SEGMENT
_Arg$ = 8
??$forward@AEAPEAD@std@@YAAEAPEADAEAPEAD@Z PROC		; std::forward<char * &>, COMDAT

; 1562 : _NODISCARD _MSVC_INTRINSIC constexpr _Ty&& forward(remove_reference_t<_Ty>& _Arg) noexcept {

	mov	QWORD PTR [rsp+8], rcx

; 1563 :     return static_cast<_Ty&&>(_Arg);

	mov	rax, QWORD PTR _Arg$[rsp]

; 1564 : }

	ret	0
??$forward@AEAPEAD@std@@YAAEAPEADAEAPEAD@Z ENDP		; std::forward<char * &>
_TEXT	ENDS
; Function compile flags: /Odtp
; File F:\software installation\Visual Studio Installation\VC\Tools\MSVC\14.38.33130\include\type_traits
;	COMDAT ??$addressof@PEAD@std@@YAPEAPEADAEAPEAD@Z
_TEXT	SEGMENT
_Val$ = 8
??$addressof@PEAD@std@@YAPEAPEADAEAPEAD@Z PROC		; std::addressof<char *>, COMDAT

; 1585 : _NODISCARD constexpr _Ty* addressof(_Ty& _Val) noexcept {

	mov	QWORD PTR [rsp+8], rcx

; 1586 :     return __builtin_addressof(_Val);

	mov	rax, QWORD PTR _Val$[rsp]

; 1587 : }

	ret	0
??$addressof@PEAD@std@@YAPEAPEADAEAPEAD@Z ENDP		; std::addressof<char *>
_TEXT	ENDS
; Function compile flags: /Odtp
; File F:\software installation\Visual Studio Installation\VC\Tools\MSVC\14.38.33130\include\xutility
;	COMDAT ??$_Construct_in_place@PEADAEBQEAD@std@@YAXAEAPEADAEBQEAD@Z
_TEXT	SEGMENT
$T1 = 32
_Obj$ = 64
<_Args_0>$ = 72
??$_Construct_in_place@PEADAEBQEAD@std@@YAXAEAPEADAEBQEAD@Z PROC ; std::_Construct_in_place<char *,char * const &>, COMDAT

; 248  :     is_nothrow_constructible_v<_Ty, _Types...>) {

$LN3:
	mov	QWORD PTR [rsp+16], rdx
	mov	QWORD PTR [rsp+8], rcx
	sub	rsp, 56					; 00000038H

; 249  : #if _HAS_CXX20
; 250  :     if (_STD is_constant_evaluated()) {
; 251  :         _STD construct_at(_STD addressof(_Obj), _STD forward<_Types>(_Args)...);
; 252  :     } else
; 253  : #endif // _HAS_CXX20
; 254  :     {
; 255  :         ::new (static_cast<void*>(_STD addressof(_Obj))) _Ty(_STD forward<_Types>(_Args)...);

	mov	rcx, QWORD PTR _Obj$[rsp]
	call	??$addressof@PEAD@std@@YAPEAPEADAEAPEAD@Z ; std::addressof<char *>
	mov	rdx, rax
	mov	ecx, 8
	call	??2@YAPEAX_KPEAX@Z			; operator new
	mov	QWORD PTR $T1[rsp], rax
	mov	rcx, QWORD PTR <_Args_0>$[rsp]
	call	??$forward@AEBQEAD@std@@YAAEBQEADAEBQEAD@Z ; std::forward<char * const &>
	mov	rcx, QWORD PTR $T1[rsp]
	mov	rax, QWORD PTR [rax]
	mov	QWORD PTR [rcx], rax

; 256  :     }
; 257  : }

	add	rsp, 56					; 00000038H
	ret	0
??$_Construct_in_place@PEADAEBQEAD@std@@YAXAEAPEADAEBQEAD@Z ENDP ; std::_Construct_in_place<char *,char * const &>
_TEXT	ENDS
; Function compile flags: /Odtp
; File F:\software installation\Visual Studio Installation\VC\Tools\MSVC\14.38.33130\include\xstring
;	COMDAT ??$_Allocate_for_capacity@$0A@@?$basic_string@DU?$char_traits@D@std@@V?$allocator@D@2@@std@@CAPEADAEAV?$allocator@D@1@AEA_K@Z
_TEXT	SEGMENT
_Fancy_ptr$ = 32
_Al$ = 64
_Capacity$ = 72
??$_Allocate_for_capacity@$0A@@?$basic_string@DU?$char_traits@D@std@@V?$allocator@D@2@@std@@CAPEADAEAV?$allocator@D@1@AEA_K@Z PROC ; std::basic_string<char,std::char_traits<char>,std::allocator<char> >::_Allocate_for_capacity<0>, COMDAT

; 2601 :     _NODISCARD static _CONSTEXPR20 pointer _Allocate_for_capacity(_Alty& _Al, size_type& _Capacity) {

$LN3:
	mov	QWORD PTR [rsp+16], rdx
	mov	QWORD PTR [rsp+8], rcx
	sub	rsp, 56					; 00000038H

; 2602 :         _STL_INTERNAL_CHECK(_Capacity > _Small_string_capacity);
; 2603 :         ++_Capacity; // Take null terminator into consideration

	mov	rax, QWORD PTR _Capacity$[rsp]
	mov	rax, QWORD PTR [rax]
	inc	rax
	mov	rcx, QWORD PTR _Capacity$[rsp]
	mov	QWORD PTR [rcx], rax

; 2604 : 
; 2605 :         pointer _Fancy_ptr;
; 2606 :         if constexpr (_Policy == _Allocation_policy::_At_least) {
; 2607 :             _Fancy_ptr = _Allocate_at_least_helper(_Al, _Capacity);

	mov	rdx, QWORD PTR _Capacity$[rsp]
	mov	rcx, QWORD PTR _Al$[rsp]
	call	??$_Allocate_at_least_helper@V?$allocator@D@std@@@std@@YAPEADAEAV?$allocator@D@0@AEA_K@Z ; std::_Allocate_at_least_helper<std::allocator<char> >
	mov	QWORD PTR _Fancy_ptr$[rsp], rax

; 2608 :         } else {
; 2609 :             _STL_INTERNAL_STATIC_ASSERT(_Policy == _Allocation_policy::_Exactly);
; 2610 :             _Fancy_ptr = _Al.allocate(_Capacity);
; 2611 :         }
; 2612 : 
; 2613 : #if _HAS_CXX20
; 2614 :         // Start element lifetimes to avoid UB. This is a more general mechanism than _String_val::_Activate_SSO_buffer,
; 2615 :         // but likely more impactful to throughput.
; 2616 :         if (_STD is_constant_evaluated()) {
; 2617 :             _Elem* const _Ptr = _Unfancy(_Fancy_ptr);
; 2618 :             for (size_type _Idx = 0; _Idx < _Capacity; ++_Idx) {
; 2619 :                 _STD construct_at(_Ptr + _Idx);
; 2620 :             }
; 2621 :         }
; 2622 : #endif // _HAS_CXX20
; 2623 :         --_Capacity;

	mov	rax, QWORD PTR _Capacity$[rsp]
	mov	rax, QWORD PTR [rax]
	dec	rax
	mov	rcx, QWORD PTR _Capacity$[rsp]
	mov	QWORD PTR [rcx], rax

; 2624 :         return _Fancy_ptr;

	mov	rax, QWORD PTR _Fancy_ptr$[rsp]

; 2625 :     }

	add	rsp, 56					; 00000038H
	ret	0
??$_Allocate_for_capacity@$0A@@?$basic_string@DU?$char_traits@D@std@@V?$allocator@D@2@@std@@CAPEADAEAV?$allocator@D@1@AEA_K@Z ENDP ; std::basic_string<char,std::char_traits<char>,std::allocator<char> >::_Allocate_for_capacity<0>
_TEXT	ENDS
; Function compile flags: /Odtp
; File F:\software installation\Visual Studio Installation\VC\Tools\MSVC\14.38.33130\include\type_traits
;	COMDAT ??$forward@V?$allocator@D@std@@@std@@YA$$QEAV?$allocator@D@0@AEAV10@@Z
_TEXT	SEGMENT
_Arg$ = 8
??$forward@V?$allocator@D@std@@@std@@YA$$QEAV?$allocator@D@0@AEAV10@@Z PROC ; std::forward<std::allocator<char> >, COMDAT

; 1562 : _NODISCARD _MSVC_INTRINSIC constexpr _Ty&& forward(remove_reference_t<_Ty>& _Arg) noexcept {

	mov	QWORD PTR [rsp+8], rcx

; 1563 :     return static_cast<_Ty&&>(_Arg);

	mov	rax, QWORD PTR _Arg$[rsp]

; 1564 : }

	ret	0
??$forward@V?$allocator@D@std@@@std@@YA$$QEAV?$allocator@D@0@AEAV10@@Z ENDP ; std::forward<std::allocator<char> >
_TEXT	ENDS
; Function compile flags: /Odtp
; File F:\software installation\Visual Studio Installation\VC\Tools\MSVC\14.38.33130\include\streambuf
;	COMDAT ?_Pnavail@?$basic_streambuf@DU?$char_traits@D@std@@@std@@IEBA_JXZ
_TEXT	SEGMENT
tv69 = 0
this$ = 32
?_Pnavail@?$basic_streambuf@DU?$char_traits@D@std@@@std@@IEBA_JXZ PROC ; std::basic_streambuf<char,std::char_traits<char> >::_Pnavail, COMDAT

; 260  :     streamsize __CLR_OR_THIS_CALL _Pnavail() const noexcept { // count number of available positions in write buffer

$LN5:
	mov	QWORD PTR [rsp+8], rcx
	sub	rsp, 24

; 261  :         return *_IPnext ? *_IPcount : 0;

	mov	rax, QWORD PTR this$[rsp]
	mov	rax, QWORD PTR [rax+64]
	cmp	QWORD PTR [rax], 0
	je	SHORT $LN3@Pnavail
	mov	rax, QWORD PTR this$[rsp]
	mov	rax, QWORD PTR [rax+88]
	mov	eax, DWORD PTR [rax]
	mov	DWORD PTR tv69[rsp], eax
	jmp	SHORT $LN4@Pnavail
$LN3@Pnavail:
	mov	DWORD PTR tv69[rsp], 0
$LN4@Pnavail:
	movsxd	rax, DWORD PTR tv69[rsp]

; 262  :     }

	add	rsp, 24
	ret	0
?_Pnavail@?$basic_streambuf@DU?$char_traits@D@std@@@std@@IEBA_JXZ ENDP ; std::basic_streambuf<char,std::char_traits<char> >::_Pnavail
_TEXT	ENDS
; Function compile flags: /Odtp
; File F:\software installation\Visual Studio Installation\VC\Tools\MSVC\14.38.33130\include\streambuf
;	COMDAT ?_Pninc@?$basic_streambuf@DU?$char_traits@D@std@@@std@@IEAAPEADXZ
_TEXT	SEGMENT
tv76 = 0
this$ = 32
?_Pninc@?$basic_streambuf@DU?$char_traits@D@std@@@std@@IEAAPEADXZ PROC ; std::basic_streambuf<char,std::char_traits<char> >::_Pninc, COMDAT

; 255  :     _Elem* __CLR_OR_THIS_CALL _Pninc() noexcept { // increment current position in write buffer

$LN3:
	mov	QWORD PTR [rsp+8], rcx
	sub	rsp, 24

; 256  :         --*_IPcount;

	mov	rax, QWORD PTR this$[rsp]
	mov	rax, QWORD PTR [rax+88]
	mov	eax, DWORD PTR [rax]
	dec	eax
	mov	rcx, QWORD PTR this$[rsp]
	mov	rcx, QWORD PTR [rcx+88]
	mov	DWORD PTR [rcx], eax

; 257  :         return (*_IPnext)++;

	mov	rax, QWORD PTR this$[rsp]
	mov	rax, QWORD PTR [rax+64]
	mov	rax, QWORD PTR [rax]
	mov	QWORD PTR tv76[rsp], rax
	mov	rax, QWORD PTR this$[rsp]
	mov	rax, QWORD PTR [rax+64]
	mov	rax, QWORD PTR [rax]
	inc	rax
	mov	rcx, QWORD PTR this$[rsp]
	mov	rcx, QWORD PTR [rcx+64]
	mov	QWORD PTR [rcx], rax
	mov	rax, QWORD PTR tv76[rsp]

; 258  :     }

	add	rsp, 24
	ret	0
?_Pninc@?$basic_streambuf@DU?$char_traits@D@std@@@std@@IEAAPEADXZ ENDP ; std::basic_streambuf<char,std::char_traits<char> >::_Pninc
_TEXT	ENDS
; Function compile flags: /Odtp
; File F:\software installation\Visual Studio Installation\VC\Tools\MSVC\14.38.33130\include\streambuf
;	COMDAT ?sputn@?$basic_streambuf@DU?$char_traits@D@std@@@std@@QEAA_JPEBD_J@Z
_TEXT	SEGMENT
this$ = 48
_Ptr$ = 56
_Count$ = 64
?sputn@?$basic_streambuf@DU?$char_traits@D@std@@@std@@QEAA_JPEBD_J@Z PROC ; std::basic_streambuf<char,std::char_traits<char> >::sputn, COMDAT

; 170  :         streamsize _Count) { // put _Count characters from array beginning at _Ptr

$LN3:
	mov	QWORD PTR [rsp+24], r8
	mov	QWORD PTR [rsp+16], rdx
	mov	QWORD PTR [rsp+8], rcx
	sub	rsp, 40					; 00000028H

; 171  :         return xsputn(_Ptr, _Count);

	mov	rax, QWORD PTR this$[rsp]
	mov	rax, QWORD PTR [rax]
	mov	r8, QWORD PTR _Count$[rsp]
	mov	rdx, QWORD PTR _Ptr$[rsp]
	mov	rcx, QWORD PTR this$[rsp]
	call	QWORD PTR [rax+72]

; 172  :     }

	add	rsp, 40					; 00000028H
	ret	0
?sputn@?$basic_streambuf@DU?$char_traits@D@std@@@std@@QEAA_JPEBD_J@Z ENDP ; std::basic_streambuf<char,std::char_traits<char> >::sputn
_TEXT	ENDS
; Function compile flags: /Odtp
; File F:\software installation\Visual Studio Installation\VC\Tools\MSVC\14.38.33130\include\streambuf
;	COMDAT ?sputc@?$basic_streambuf@DU?$char_traits@D@std@@@std@@QEAAHD@Z
_TEXT	SEGMENT
tv78 = 32
tv79 = 40
this$ = 64
_Ch$ = 72
?sputc@?$basic_streambuf@DU?$char_traits@D@std@@@std@@QEAAHD@Z PROC ; std::basic_streambuf<char,std::char_traits<char> >::sputc, COMDAT

; 165  :     int_type __CLR_OR_THIS_CALL sputc(_Elem _Ch) { // put a character

$LN5:
	mov	BYTE PTR [rsp+16], dl
	mov	QWORD PTR [rsp+8], rcx
	sub	rsp, 56					; 00000038H

; 166  :         return 0 < _Pnavail() ? _Traits::to_int_type(*_Pninc() = _Ch) : overflow(_Traits::to_int_type(_Ch));

	mov	rcx, QWORD PTR this$[rsp]
	call	?_Pnavail@?$basic_streambuf@DU?$char_traits@D@std@@@std@@IEBA_JXZ ; std::basic_streambuf<char,std::char_traits<char> >::_Pnavail
	test	rax, rax
	jle	SHORT $LN3@sputc
	mov	rcx, QWORD PTR this$[rsp]
	call	?_Pninc@?$basic_streambuf@DU?$char_traits@D@std@@@std@@IEAAPEADXZ ; std::basic_streambuf<char,std::char_traits<char> >::_Pninc
	movzx	ecx, BYTE PTR _Ch$[rsp]
	mov	BYTE PTR [rax], cl
	movzx	ecx, BYTE PTR _Ch$[rsp]
	call	?to_int_type@?$_Narrow_char_traits@DH@std@@SAHD@Z ; std::_Narrow_char_traits<char,int>::to_int_type
	mov	DWORD PTR tv78[rsp], eax
	jmp	SHORT $LN4@sputc
$LN3@sputc:
	movzx	ecx, BYTE PTR _Ch$[rsp]
	call	?to_int_type@?$_Narrow_char_traits@DH@std@@SAHD@Z ; std::_Narrow_char_traits<char,int>::to_int_type
	mov	rcx, QWORD PTR this$[rsp]
	mov	rcx, QWORD PTR [rcx]
	mov	QWORD PTR tv79[rsp], rcx
	mov	edx, eax
	mov	rcx, QWORD PTR this$[rsp]
	mov	rax, QWORD PTR tv79[rsp]
	call	QWORD PTR [rax+24]
	mov	DWORD PTR tv78[rsp], eax
$LN4@sputc:
	mov	eax, DWORD PTR tv78[rsp]

; 167  :     }

	add	rsp, 56					; 00000038H
	ret	0
?sputc@?$basic_streambuf@DU?$char_traits@D@std@@@std@@QEAAHD@Z ENDP ; std::basic_streambuf<char,std::char_traits<char> >::sputc
_TEXT	ENDS
; Function compile flags: /Odtp
; File F:\software installation\Visual Studio Installation\VC\Tools\MSVC\14.38.33130\include\streambuf
;	COMDAT ?pubsync@?$basic_streambuf@DU?$char_traits@D@std@@@std@@QEAAHXZ
_TEXT	SEGMENT
this$ = 48
?pubsync@?$basic_streambuf@DU?$char_traits@D@std@@@std@@QEAAHXZ PROC ; std::basic_streambuf<char,std::char_traits<char> >::pubsync, COMDAT

; 120  :     int __CLR_OR_THIS_CALL pubsync() { // synchronize with external agent

$LN3:
	mov	QWORD PTR [rsp+8], rcx
	sub	rsp, 40					; 00000028H

; 121  :         return sync();

	mov	rax, QWORD PTR this$[rsp]
	mov	rax, QWORD PTR [rax]
	mov	rcx, QWORD PTR this$[rsp]
	call	QWORD PTR [rax+104]

; 122  :     }

	add	rsp, 40					; 00000028H
	ret	0
?pubsync@?$basic_streambuf@DU?$char_traits@D@std@@@std@@QEAAHXZ ENDP ; std::basic_streambuf<char,std::char_traits<char> >::pubsync
_TEXT	ENDS
; Function compile flags: /Odtp
; File F:\software installation\Visual Studio Installation\VC\Tools\MSVC\14.38.33130\include\ostream
;	COMDAT ??Bsentry@?$basic_ostream@DU?$char_traits@D@std@@@std@@QEBA_NXZ
_TEXT	SEGMENT
this$ = 8
??Bsentry@?$basic_ostream@DU?$char_traits@D@std@@@std@@QEBA_NXZ PROC ; std::basic_ostream<char,std::char_traits<char> >::sentry::operator bool, COMDAT

; 128  :         explicit __CLR_OR_THIS_CALL operator bool() const {

	mov	QWORD PTR [rsp+8], rcx

; 129  :             return _Ok;

	mov	rax, QWORD PTR this$[rsp]
	movzx	eax, BYTE PTR [rax+8]

; 130  :         }

	ret	0
??Bsentry@?$basic_ostream@DU?$char_traits@D@std@@@std@@QEBA_NXZ ENDP ; std::basic_ostream<char,std::char_traits<char> >::sentry::operator bool
_TEXT	ENDS
; Function compile flags: /Odtp
; File F:\software installation\Visual Studio Installation\VC\Tools\MSVC\14.38.33130\include\ostream
;	COMDAT ??1sentry@?$basic_ostream@DU?$char_traits@D@std@@@std@@QEAA@XZ
_TEXT	SEGMENT
tv72 = 32
_Zero_uncaught_exceptions$ = 33
this$ = 64
??1sentry@?$basic_ostream@DU?$char_traits@D@std@@@std@@QEAA@XZ PROC ; std::basic_ostream<char,std::char_traits<char> >::sentry::~sentry, COMDAT

; 113  :         __CLR_OR_THIS_CALL ~sentry() noexcept {

$LN6:
	mov	QWORD PTR [rsp+8], rcx
	sub	rsp, 56					; 00000038H

; 114  : #if !_HAS_EXCEPTIONS
; 115  :             const bool _Zero_uncaught_exceptions = true;
; 116  : #elif _HAS_DEPRECATED_UNCAUGHT_EXCEPTION
; 117  :             const bool _Zero_uncaught_exceptions = !_STD uncaught_exception(); // TRANSITION, ArchivedOS-12000909

	call	?uncaught_exception@std@@YA_NXZ		; std::uncaught_exception
	movzx	eax, al
	test	eax, eax
	jne	SHORT $LN4@sentry
	mov	BYTE PTR tv72[rsp], 1
	jmp	SHORT $LN5@sentry
$LN4@sentry:
	mov	BYTE PTR tv72[rsp], 0
$LN5@sentry:
	movzx	eax, BYTE PTR tv72[rsp]
	mov	BYTE PTR _Zero_uncaught_exceptions$[rsp], al

; 118  : #else // ^^^ _HAS_DEPRECATED_UNCAUGHT_EXCEPTION / !_HAS_DEPRECATED_UNCAUGHT_EXCEPTION vvv
; 119  :             const bool _Zero_uncaught_exceptions = _STD uncaught_exceptions() == 0;
; 120  : #endif // !_HAS_DEPRECATED_UNCAUGHT_EXCEPTION
; 121  : 
; 122  :             if (_Zero_uncaught_exceptions) {

	movzx	eax, BYTE PTR _Zero_uncaught_exceptions$[rsp]
	test	eax, eax
	je	SHORT $LN2@sentry

; 123  :                 this->_Myostr._Osfx();

	mov	rax, QWORD PTR this$[rsp]
	mov	rcx, QWORD PTR [rax]
	call	?_Osfx@?$basic_ostream@DU?$char_traits@D@std@@@std@@QEAAXXZ ; std::basic_ostream<char,std::char_traits<char> >::_Osfx
$LN2@sentry:

; 124  :             }
; 125  :         }

	mov	rcx, QWORD PTR this$[rsp]
	call	??1_Sentry_base@?$basic_ostream@DU?$char_traits@D@std@@@std@@QEAA@XZ ; std::basic_ostream<char,std::char_traits<char> >::_Sentry_base::~_Sentry_base
	add	rsp, 56					; 00000038H
	ret	0
??1sentry@?$basic_ostream@DU?$char_traits@D@std@@@std@@QEAA@XZ ENDP ; std::basic_ostream<char,std::char_traits<char> >::sentry::~sentry
_TEXT	ENDS
; Function compile flags: /Odtp
; File F:\software installation\Visual Studio Installation\VC\Tools\MSVC\14.38.33130\include\ostream
;	COMDAT ??0sentry@?$basic_ostream@DU?$char_traits@D@std@@@std@@QEAA@AEAV12@@Z
_TEXT	SEGMENT
_Tied$ = 32
this$ = 64
_Ostr$ = 72
??0sentry@?$basic_ostream@DU?$char_traits@D@std@@@std@@QEAA@AEAV12@@Z PROC ; std::basic_ostream<char,std::char_traits<char> >::sentry::sentry, COMDAT

; 96   :         explicit __CLR_OR_THIS_CALL sentry(basic_ostream& _Ostr) : _Sentry_base(_Ostr) {

$LN7:
	mov	QWORD PTR [rsp+16], rdx
	mov	QWORD PTR [rsp+8], rcx
	sub	rsp, 56					; 00000038H
	mov	rdx, QWORD PTR _Ostr$[rsp]
	mov	rcx, QWORD PTR this$[rsp]
	call	??0_Sentry_base@?$basic_ostream@DU?$char_traits@D@std@@@std@@QEAA@AEAV12@@Z ; std::basic_ostream<char,std::char_traits<char> >::_Sentry_base::_Sentry_base
	npad	1

; 97   :             if (!_Ostr.good()) {

	mov	rax, QWORD PTR _Ostr$[rsp]
	mov	rax, QWORD PTR [rax]
	movsxd	rax, DWORD PTR [rax+4]
	mov	rcx, QWORD PTR _Ostr$[rsp]
	add	rcx, rax
	mov	rax, rcx
	mov	rcx, rax
	call	?good@ios_base@std@@QEBA_NXZ		; std::ios_base::good
	movzx	eax, al
	test	eax, eax
	jne	SHORT $LN2@sentry

; 98   :                 _Ok = false;

	mov	rax, QWORD PTR this$[rsp]
	mov	BYTE PTR [rax+8], 0

; 99   :                 return;

	jmp	SHORT $LN1@sentry
$LN2@sentry:

; 100  :             }
; 101  : 
; 102  :             const auto _Tied = _Ostr.tie();

	mov	rax, QWORD PTR _Ostr$[rsp]
	mov	rax, QWORD PTR [rax]
	movsxd	rax, DWORD PTR [rax+4]
	mov	rcx, QWORD PTR _Ostr$[rsp]
	add	rcx, rax
	mov	rax, rcx
	mov	rcx, rax
	call	?tie@?$basic_ios@DU?$char_traits@D@std@@@std@@QEBAPEAV?$basic_ostream@DU?$char_traits@D@std@@@2@XZ ; std::basic_ios<char,std::char_traits<char> >::tie
	mov	QWORD PTR _Tied$[rsp], rax

; 103  :             if (!_Tied || _Tied == &_Ostr) {

	cmp	QWORD PTR _Tied$[rsp], 0
	je	SHORT $LN4@sentry
	mov	rax, QWORD PTR _Ostr$[rsp]
	cmp	QWORD PTR _Tied$[rsp], rax
	jne	SHORT $LN3@sentry
$LN4@sentry:

; 104  :                 _Ok = true;

	mov	rax, QWORD PTR this$[rsp]
	mov	BYTE PTR [rax+8], 1

; 105  :                 return;

	jmp	SHORT $LN1@sentry
$LN3@sentry:

; 106  :             }
; 107  : 
; 108  :             _Tied->flush();

	mov	rcx, QWORD PTR _Tied$[rsp]
	call	?flush@?$basic_ostream@DU?$char_traits@D@std@@@std@@QEAAAEAV12@XZ ; std::basic_ostream<char,std::char_traits<char> >::flush

; 109  :             _Ok = _Ostr.good(); // store test only after flushing tie

	mov	rax, QWORD PTR _Ostr$[rsp]
	mov	rax, QWORD PTR [rax]
	movsxd	rax, DWORD PTR [rax+4]
	mov	rcx, QWORD PTR _Ostr$[rsp]
	add	rcx, rax
	mov	rax, rcx
	mov	rcx, rax
	call	?good@ios_base@std@@QEBA_NXZ		; std::ios_base::good
	mov	rcx, QWORD PTR this$[rsp]
	mov	BYTE PTR [rcx+8], al
$LN1@sentry:

; 110  :         }

	mov	rax, QWORD PTR this$[rsp]
	add	rsp, 56					; 00000038H
	ret	0
??0sentry@?$basic_ostream@DU?$char_traits@D@std@@@std@@QEAA@AEAV12@@Z ENDP ; std::basic_ostream<char,std::char_traits<char> >::sentry::sentry
_TEXT	ENDS
; Function compile flags: /Odtp
;	COMDAT text$x
text$x	SEGMENT
_Tied$ = 32
this$ = 64
_Ostr$ = 72
?dtor$0@?0???0sentry@?$basic_ostream@DU?$char_traits@D@std@@@std@@QEAA@AEAV12@@Z@4HA PROC ; `std::basic_ostream<char,std::char_traits<char> >::sentry::sentry'::`1'::dtor$0
	push	rbp
	sub	rsp, 32					; 00000020H
	mov	rbp, rdx
	mov	rcx, QWORD PTR this$[rbp]
	call	??1_Sentry_base@?$basic_ostream@DU?$char_traits@D@std@@@std@@QEAA@XZ ; std::basic_ostream<char,std::char_traits<char> >::_Sentry_base::~_Sentry_base
	add	rsp, 32					; 00000020H
	pop	rbp
	ret	0
?dtor$0@?0???0sentry@?$basic_ostream@DU?$char_traits@D@std@@@std@@QEAA@AEAV12@@Z@4HA ENDP ; `std::basic_ostream<char,std::char_traits<char> >::sentry::sentry'::`1'::dtor$0
text$x	ENDS
; Function compile flags: /Odtp
; File F:\software installation\Visual Studio Installation\VC\Tools\MSVC\14.38.33130\include\ostream
;	COMDAT ??1_Sentry_base@?$basic_ostream@DU?$char_traits@D@std@@@std@@QEAA@XZ
_TEXT	SEGMENT
_Rdbuf$ = 32
tv72 = 40
this$ = 64
??1_Sentry_base@?$basic_ostream@DU?$char_traits@D@std@@@std@@QEAA@XZ PROC ; std::basic_ostream<char,std::char_traits<char> >::_Sentry_base::~_Sentry_base, COMDAT

; 82   :         __CLR_OR_THIS_CALL ~_Sentry_base() noexcept { // destroy after unlocking

$LN4:
	mov	QWORD PTR [rsp+8], rcx
	sub	rsp, 56					; 00000038H

; 83   :             const auto _Rdbuf = _Myostr.rdbuf();

	mov	rax, QWORD PTR this$[rsp]
	mov	rax, QWORD PTR [rax]
	mov	QWORD PTR tv72[rsp], rax
	mov	rax, QWORD PTR tv72[rsp]
	mov	rax, QWORD PTR [rax]
	movsxd	rax, DWORD PTR [rax+4]
	mov	rcx, QWORD PTR tv72[rsp]
	add	rcx, rax
	mov	rax, rcx
	mov	rcx, rax
	call	?rdbuf@?$basic_ios@DU?$char_traits@D@std@@@std@@QEBAPEAV?$basic_streambuf@DU?$char_traits@D@std@@@2@XZ ; std::basic_ios<char,std::char_traits<char> >::rdbuf
	mov	QWORD PTR _Rdbuf$[rsp], rax

; 84   :             if (_Rdbuf) {

	cmp	QWORD PTR _Rdbuf$[rsp], 0
	je	SHORT $LN2@Sentry_bas

; 85   :                 _Rdbuf->_Unlock();

	mov	rax, QWORD PTR _Rdbuf$[rsp]
	mov	rax, QWORD PTR [rax]
	mov	rcx, QWORD PTR _Rdbuf$[rsp]
	call	QWORD PTR [rax+16]
	npad	1
$LN2@Sentry_bas:

; 86   :             }
; 87   :         }

	add	rsp, 56					; 00000038H
	ret	0
??1_Sentry_base@?$basic_ostream@DU?$char_traits@D@std@@@std@@QEAA@XZ ENDP ; std::basic_ostream<char,std::char_traits<char> >::_Sentry_base::~_Sentry_base
_TEXT	ENDS
; Function compile flags: /Odtp
; File F:\software installation\Visual Studio Installation\VC\Tools\MSVC\14.38.33130\include\ostream
;	COMDAT ??0_Sentry_base@?$basic_ostream@DU?$char_traits@D@std@@@std@@QEAA@AEAV12@@Z
_TEXT	SEGMENT
_Rdbuf$ = 32
tv73 = 40
this$ = 64
_Ostr$ = 72
??0_Sentry_base@?$basic_ostream@DU?$char_traits@D@std@@@std@@QEAA@AEAV12@@Z PROC ; std::basic_ostream<char,std::char_traits<char> >::_Sentry_base::_Sentry_base, COMDAT

; 75   :         __CLR_OR_THIS_CALL _Sentry_base(basic_ostream& _Ostr) : _Myostr(_Ostr) { // lock the stream buffer, if there

$LN4:
	mov	QWORD PTR [rsp+16], rdx
	mov	QWORD PTR [rsp+8], rcx
	sub	rsp, 56					; 00000038H
	mov	rax, QWORD PTR this$[rsp]
	mov	rcx, QWORD PTR _Ostr$[rsp]
	mov	QWORD PTR [rax], rcx

; 76   :             const auto _Rdbuf = _Myostr.rdbuf();

	mov	rax, QWORD PTR this$[rsp]
	mov	rax, QWORD PTR [rax]
	mov	QWORD PTR tv73[rsp], rax
	mov	rax, QWORD PTR tv73[rsp]
	mov	rax, QWORD PTR [rax]
	movsxd	rax, DWORD PTR [rax+4]
	mov	rcx, QWORD PTR tv73[rsp]
	add	rcx, rax
	mov	rax, rcx
	mov	rcx, rax
	call	?rdbuf@?$basic_ios@DU?$char_traits@D@std@@@std@@QEBAPEAV?$basic_streambuf@DU?$char_traits@D@std@@@2@XZ ; std::basic_ios<char,std::char_traits<char> >::rdbuf
	mov	QWORD PTR _Rdbuf$[rsp], rax

; 77   :             if (_Rdbuf) {

	cmp	QWORD PTR _Rdbuf$[rsp], 0
	je	SHORT $LN2@Sentry_bas

; 78   :                 _Rdbuf->_Lock();

	mov	rax, QWORD PTR _Rdbuf$[rsp]
	mov	rax, QWORD PTR [rax]
	mov	rcx, QWORD PTR _Rdbuf$[rsp]
	call	QWORD PTR [rax+8]
$LN2@Sentry_bas:

; 79   :             }
; 80   :         }

	mov	rax, QWORD PTR this$[rsp]
	add	rsp, 56					; 00000038H
	ret	0
??0_Sentry_base@?$basic_ostream@DU?$char_traits@D@std@@@std@@QEAA@AEAV12@@Z ENDP ; std::basic_ostream<char,std::char_traits<char> >::_Sentry_base::_Sentry_base
_TEXT	ENDS
; Function compile flags: /Odtp
; File F:\software installation\Visual Studio Installation\VC\Tools\MSVC\14.38.33130\include\memory
;	COMDAT ??$?0U?$default_delete@V_Facet_base@std@@@std@@$0A@@?$unique_ptr@V_Facet_base@std@@U?$default_delete@V_Facet_base@std@@@2@@std@@QEAA@PEAV_Facet_base@1@@Z
_TEXT	SEGMENT
$T1 = 32
this$ = 64
_Ptr$ = 72
??$?0U?$default_delete@V_Facet_base@std@@@std@@$0A@@?$unique_ptr@V_Facet_base@std@@U?$default_delete@V_Facet_base@std@@@2@@std@@QEAA@PEAV_Facet_base@1@@Z PROC ; std::unique_ptr<std::_Facet_base,std::default_delete<std::_Facet_base> >::unique_ptr<std::_Facet_base,std::default_delete<std::_Facet_base> ><std::default_delete<std::_Facet_base>,0>, COMDAT

; 3223 :     _CONSTEXPR23 explicit unique_ptr(pointer _Ptr) noexcept : _Mypair(_Zero_then_variadic_args_t{}, _Ptr) {}

$LN3:
	mov	QWORD PTR [rsp+16], rdx
	mov	QWORD PTR [rsp+8], rcx
	sub	rsp, 56					; 00000038H
	mov	rax, QWORD PTR this$[rsp]
	lea	r8, QWORD PTR _Ptr$[rsp]
	movzx	edx, BYTE PTR $T1[rsp]
	mov	rcx, rax
	call	??$?0AEAPEAV_Facet_base@std@@@?$_Compressed_pair@U?$default_delete@V_Facet_base@std@@@std@@PEAV_Facet_base@2@$00@std@@QEAA@U_Zero_then_variadic_args_t@1@AEAPEAV_Facet_base@1@@Z ; std::_Compressed_pair<std::default_delete<std::_Facet_base>,std::_Facet_base *,1>::_Compressed_pair<std::default_delete<std::_Facet_base>,std::_Facet_base *,1><std::_Facet_base * &>
	mov	rax, QWORD PTR this$[rsp]
	add	rsp, 56					; 00000038H
	ret	0
??$?0U?$default_delete@V_Facet_base@std@@@std@@$0A@@?$unique_ptr@V_Facet_base@std@@U?$default_delete@V_Facet_base@std@@@2@@std@@QEAA@PEAV_Facet_base@1@@Z ENDP ; std::unique_ptr<std::_Facet_base,std::default_delete<std::_Facet_base> >::unique_ptr<std::_Facet_base,std::default_delete<std::_Facet_base> ><std::default_delete<std::_Facet_base>,0>
_TEXT	ENDS
; Function compile flags: /Odtp
; File F:\software installation\Visual Studio Installation\VC\Tools\MSVC\14.38.33130\include\xmemory
;	COMDAT ?_Get_first@?$_Compressed_pair@U?$default_delete@V_Facet_base@std@@@std@@PEAV_Facet_base@2@$00@std@@QEAAAEAU?$default_delete@V_Facet_base@std@@@2@XZ
_TEXT	SEGMENT
this$ = 8
?_Get_first@?$_Compressed_pair@U?$default_delete@V_Facet_base@std@@@std@@PEAV_Facet_base@2@$00@std@@QEAAAEAU?$default_delete@V_Facet_base@std@@@2@XZ PROC ; std::_Compressed_pair<std::default_delete<std::_Facet_base>,std::_Facet_base *,1>::_Get_first, COMDAT

; 1526 :     constexpr _Ty1& _Get_first() noexcept {

	mov	QWORD PTR [rsp+8], rcx

; 1527 :         return *this;

	mov	rax, QWORD PTR this$[rsp]

; 1528 :     }

	ret	0
?_Get_first@?$_Compressed_pair@U?$default_delete@V_Facet_base@std@@@std@@PEAV_Facet_base@2@$00@std@@QEAAAEAU?$default_delete@V_Facet_base@std@@@2@XZ ENDP ; std::_Compressed_pair<std::default_delete<std::_Facet_base>,std::_Facet_base *,1>::_Get_first
_TEXT	ENDS
; Function compile flags: /Odtp
; File F:\software installation\Visual Studio Installation\VC\Tools\MSVC\14.38.33130\include\memory
;	COMDAT ?release@?$unique_ptr@V_Facet_base@std@@U?$default_delete@V_Facet_base@std@@@2@@std@@QEAAPEAV_Facet_base@2@XZ
_TEXT	SEGMENT
$T1 = 32
this$ = 64
?release@?$unique_ptr@V_Facet_base@std@@U?$default_delete@V_Facet_base@std@@@2@@std@@QEAAPEAV_Facet_base@2@XZ PROC ; std::unique_ptr<std::_Facet_base,std::default_delete<std::_Facet_base> >::release, COMDAT

; 3308 :     _CONSTEXPR23 pointer release() noexcept {

$LN3:
	mov	QWORD PTR [rsp+8], rcx
	sub	rsp, 56					; 00000038H

; 3309 :         return _STD exchange(_Mypair._Myval2, nullptr);

	mov	QWORD PTR $T1[rsp], 0
	mov	rax, QWORD PTR this$[rsp]
	lea	rdx, QWORD PTR $T1[rsp]
	mov	rcx, rax
	call	??$exchange@PEAV_Facet_base@std@@$$T@std@@YAPEAV_Facet_base@0@AEAPEAV10@$$QEA$$T@Z ; std::exchange<std::_Facet_base *,std::nullptr_t>

; 3310 :     }

	add	rsp, 56					; 00000038H
	ret	0
?release@?$unique_ptr@V_Facet_base@std@@U?$default_delete@V_Facet_base@std@@@2@@std@@QEAAPEAV_Facet_base@2@XZ ENDP ; std::unique_ptr<std::_Facet_base,std::default_delete<std::_Facet_base> >::release
_TEXT	ENDS
; Function compile flags: /Odtp
; File F:\software installation\Visual Studio Installation\VC\Tools\MSVC\14.38.33130\include\memory
;	COMDAT ??1?$unique_ptr@V_Facet_base@std@@U?$default_delete@V_Facet_base@std@@@2@@std@@QEAA@XZ
_TEXT	SEGMENT
this$ = 48
??1?$unique_ptr@V_Facet_base@std@@U?$default_delete@V_Facet_base@std@@@2@@std@@QEAA@XZ PROC ; std::unique_ptr<std::_Facet_base,std::default_delete<std::_Facet_base> >::~unique_ptr<std::_Facet_base,std::default_delete<std::_Facet_base> >, COMDAT

; 3278 :     _CONSTEXPR23 ~unique_ptr() noexcept {

$LN4:
	mov	QWORD PTR [rsp+8], rcx
	sub	rsp, 40					; 00000028H

; 3279 :         if (_Mypair._Myval2) {

	mov	rax, QWORD PTR this$[rsp]
	cmp	QWORD PTR [rax], 0
	je	SHORT $LN2@unique_ptr

; 3280 :             _Mypair._Get_first()(_Mypair._Myval2);

	mov	rax, QWORD PTR this$[rsp]
	mov	rcx, rax
	call	?_Get_first@?$_Compressed_pair@U?$default_delete@V_Facet_base@std@@@std@@PEAV_Facet_base@2@$00@std@@QEAAAEAU?$default_delete@V_Facet_base@std@@@2@XZ ; std::_Compressed_pair<std::default_delete<std::_Facet_base>,std::_Facet_base *,1>::_Get_first
	mov	rcx, QWORD PTR this$[rsp]
	mov	rdx, QWORD PTR [rcx]
	mov	rcx, rax
	call	??R?$default_delete@V_Facet_base@std@@@std@@QEBAXPEAV_Facet_base@1@@Z ; std::default_delete<std::_Facet_base>::operator()
$LN2@unique_ptr:

; 3281 :         }
; 3282 :     }

	add	rsp, 40					; 00000028H
	ret	0
??1?$unique_ptr@V_Facet_base@std@@U?$default_delete@V_Facet_base@std@@@2@@std@@QEAA@XZ ENDP ; std::unique_ptr<std::_Facet_base,std::default_delete<std::_Facet_base> >::~unique_ptr<std::_Facet_base,std::default_delete<std::_Facet_base> >
_TEXT	ENDS
; Function compile flags: /Odtp
; File F:\software installation\Visual Studio Installation\VC\Tools\MSVC\14.38.33130\include\memory
;	COMDAT ??R?$default_delete@V_Facet_base@std@@@std@@QEBAXPEAV_Facet_base@1@@Z
_TEXT	SEGMENT
$T1 = 32
tv70 = 40
this$ = 64
_Ptr$ = 72
??R?$default_delete@V_Facet_base@std@@@std@@QEBAXPEAV_Facet_base@1@@Z PROC ; std::default_delete<std::_Facet_base>::operator(), COMDAT

; 3168 :     _CONSTEXPR23 void operator()(_Ty* _Ptr) const noexcept /* strengthened */ { // delete a pointer

$LN5:
	mov	QWORD PTR [rsp+16], rdx
	mov	QWORD PTR [rsp+8], rcx
	sub	rsp, 56					; 00000038H

; 3169 :         static_assert(0 < sizeof(_Ty), "can't delete an incomplete type");
; 3170 :         delete _Ptr;

	mov	rax, QWORD PTR _Ptr$[rsp]
	mov	QWORD PTR $T1[rsp], rax
	cmp	QWORD PTR $T1[rsp], 0
	je	SHORT $LN3@operator
	mov	rax, QWORD PTR $T1[rsp]
	mov	rax, QWORD PTR [rax]
	mov	edx, 1
	mov	rcx, QWORD PTR $T1[rsp]
	call	QWORD PTR [rax]
	mov	QWORD PTR tv70[rsp], rax
	jmp	SHORT $LN4@operator
$LN3@operator:
	mov	QWORD PTR tv70[rsp], 0
$LN4@operator:

; 3171 :     }

	add	rsp, 56					; 00000038H
	ret	0
??R?$default_delete@V_Facet_base@std@@@std@@QEBAXPEAV_Facet_base@1@@Z ENDP ; std::default_delete<std::_Facet_base>::operator()
_TEXT	ENDS
; Function compile flags: /Odtp
; File F:\software installation\Visual Studio Installation\VC\Tools\MSVC\14.38.33130\include\utility
;	COMDAT ??$min@_K@std@@YAAEB_KAEB_K0@Z
_TEXT	SEGMENT
tv65 = 0
$T1 = 8
_Left$ = 32
_Right$ = 40
??$min@_K@std@@YAAEB_KAEB_K0@Z PROC			; std::min<unsigned __int64>, COMDAT

; 98   :     (min) (const _Ty& _Left, const _Ty& _Right) noexcept(noexcept(_Right < _Left)) /* strengthened */ {

$LN5:
	mov	QWORD PTR [rsp+16], rdx
	mov	QWORD PTR [rsp+8], rcx
	sub	rsp, 24

; 99   :     // return smaller of _Left and _Right
; 100  :     return _Right < _Left ? _Right : _Left;

	mov	rax, QWORD PTR _Right$[rsp]
	mov	rcx, QWORD PTR _Left$[rsp]
	mov	rcx, QWORD PTR [rcx]
	cmp	QWORD PTR [rax], rcx
	jae	SHORT $LN3@min
	mov	rax, QWORD PTR _Right$[rsp]
	mov	QWORD PTR tv65[rsp], rax
	jmp	SHORT $LN4@min
$LN3@min:
	mov	rax, QWORD PTR _Left$[rsp]
	mov	QWORD PTR tv65[rsp], rax
$LN4@min:
	mov	rax, QWORD PTR tv65[rsp]
	mov	QWORD PTR $T1[rsp], rax
	mov	rax, QWORD PTR $T1[rsp]

; 101  : }

	add	rsp, 24
	ret	0
??$min@_K@std@@YAAEB_KAEB_K0@Z ENDP			; std::min<unsigned __int64>
_TEXT	ENDS
; Function compile flags: /Odtp
; File F:\software installation\Visual Studio Installation\VC\Tools\MSVC\14.38.33130\include\xmemory
;	COMDAT ??$_Deallocate@$0BA@$0A@@std@@YAXPEAX_K@Z
_TEXT	SEGMENT
_Ptr$ = 48
_Bytes$ = 56
??$_Deallocate@$0BA@$0A@@std@@YAXPEAX_K@Z PROC		; std::_Deallocate<16,0>, COMDAT

; 251  : _CONSTEXPR20 void _Deallocate(void* _Ptr, size_t _Bytes) noexcept {

$LN4:
	mov	QWORD PTR [rsp+16], rdx
	mov	QWORD PTR [rsp+8], rcx
	sub	rsp, 40					; 00000028H

; 252  :     // deallocate storage allocated by _Allocate when !_HAS_ALIGNED_NEW || _Align <= __STDCPP_DEFAULT_NEW_ALIGNMENT__
; 253  : #if _HAS_CXX20 // TRANSITION, GH-1532
; 254  :     if (_STD is_constant_evaluated()) {
; 255  :         ::operator delete(_Ptr);
; 256  :     } else
; 257  : #endif // _HAS_CXX20
; 258  :     {
; 259  : #if defined(_M_IX86) || defined(_M_X64)
; 260  :         if (_Bytes >= _Big_allocation_threshold) { // boost the alignment of big allocations to help autovectorization

	cmp	QWORD PTR _Bytes$[rsp], 4096		; 00001000H
	jb	SHORT $LN2@Deallocate

; 261  :             _Adjust_manually_vector_aligned(_Ptr, _Bytes);

	lea	rdx, QWORD PTR _Bytes$[rsp]
	lea	rcx, QWORD PTR _Ptr$[rsp]
	call	?_Adjust_manually_vector_aligned@std@@YAXAEAPEAXAEA_K@Z ; std::_Adjust_manually_vector_aligned
$LN2@Deallocate:

; 262  :         }
; 263  : #endif // defined(_M_IX86) || defined(_M_X64)
; 264  :         ::operator delete(_Ptr, _Bytes);

	mov	rdx, QWORD PTR _Bytes$[rsp]
	mov	rcx, QWORD PTR _Ptr$[rsp]
	call	??3@YAXPEAX_K@Z				; operator delete
	npad	1

; 265  :     }
; 266  : }

	add	rsp, 40					; 00000028H
	ret	0
??$_Deallocate@$0BA@$0A@@std@@YAXPEAX_K@Z ENDP		; std::_Deallocate<16,0>
_TEXT	ENDS
; Function compile flags: /Odtp
; File F:\software installation\Visual Studio Installation\VC\Tools\MSVC\14.38.33130\include\utility
;	COMDAT ??$max@_K@std@@YAAEB_KAEB_K0@Z
_TEXT	SEGMENT
tv65 = 0
$T1 = 8
_Left$ = 32
_Right$ = 40
??$max@_K@std@@YAAEB_KAEB_K0@Z PROC			; std::max<unsigned __int64>, COMDAT

; 75   :     (max) (const _Ty& _Left, const _Ty& _Right) noexcept(noexcept(_Left < _Right)) /* strengthened */ {

$LN5:
	mov	QWORD PTR [rsp+16], rdx
	mov	QWORD PTR [rsp+8], rcx
	sub	rsp, 24

; 76   :     // return larger of _Left and _Right
; 77   :     return _Left < _Right ? _Right : _Left;

	mov	rax, QWORD PTR _Left$[rsp]
	mov	rcx, QWORD PTR _Right$[rsp]
	mov	rcx, QWORD PTR [rcx]
	cmp	QWORD PTR [rax], rcx
	jae	SHORT $LN3@max
	mov	rax, QWORD PTR _Right$[rsp]
	mov	QWORD PTR tv65[rsp], rax
	jmp	SHORT $LN4@max
$LN3@max:
	mov	rax, QWORD PTR _Left$[rsp]
	mov	QWORD PTR tv65[rsp], rax
$LN4@max:
	mov	rax, QWORD PTR tv65[rsp]
	mov	QWORD PTR $T1[rsp], rax
	mov	rax, QWORD PTR $T1[rsp]

; 78   : }

	add	rsp, 24
	ret	0
??$max@_K@std@@YAAEB_KAEB_K0@Z ENDP			; std::max<unsigned __int64>
_TEXT	ENDS
; Function compile flags: /Odtp
; File F:\software installation\Visual Studio Installation\VC\Tools\MSVC\14.38.33130\include\type_traits
;	COMDAT ??$addressof@$$CBV?$_String_val@U?$_Simple_types@D@std@@@std@@@std@@YAPEBV?$_String_val@U?$_Simple_types@D@std@@@0@AEBV10@@Z
_TEXT	SEGMENT
_Val$ = 8
??$addressof@$$CBV?$_String_val@U?$_Simple_types@D@std@@@std@@@std@@YAPEBV?$_String_val@U?$_Simple_types@D@std@@@0@AEBV10@@Z PROC ; std::addressof<std::_String_val<std::_Simple_types<char> > const >, COMDAT

; 1585 : _NODISCARD constexpr _Ty* addressof(_Ty& _Val) noexcept {

	mov	QWORD PTR [rsp+8], rcx

; 1586 :     return __builtin_addressof(_Val);

	mov	rax, QWORD PTR _Val$[rsp]

; 1587 : }

	ret	0
??$addressof@$$CBV?$_String_val@U?$_Simple_types@D@std@@@std@@@std@@YAPEBV?$_String_val@U?$_Simple_types@D@std@@@0@AEBV10@@Z ENDP ; std::addressof<std::_String_val<std::_Simple_types<char> > const >
_TEXT	ENDS
; Function compile flags: /Odtp
; File F:\software installation\Visual Studio Installation\VC\Tools\MSVC\14.38.33130\include\type_traits
;	COMDAT ??$addressof@V?$_String_val@U?$_Simple_types@D@std@@@std@@@std@@YAPEAV?$_String_val@U?$_Simple_types@D@std@@@0@AEAV10@@Z
_TEXT	SEGMENT
_Val$ = 8
??$addressof@V?$_String_val@U?$_Simple_types@D@std@@@std@@@std@@YAPEAV?$_String_val@U?$_Simple_types@D@std@@@0@AEAV10@@Z PROC ; std::addressof<std::_String_val<std::_Simple_types<char> > >, COMDAT

; 1585 : _NODISCARD constexpr _Ty* addressof(_Ty& _Val) noexcept {

	mov	QWORD PTR [rsp+8], rcx

; 1586 :     return __builtin_addressof(_Val);

	mov	rax, QWORD PTR _Val$[rsp]

; 1587 : }

	ret	0
??$addressof@V?$_String_val@U?$_Simple_types@D@std@@@std@@@std@@YAPEAV?$_String_val@U?$_Simple_types@D@std@@@0@AEAV10@@Z ENDP ; std::addressof<std::_String_val<std::_Simple_types<char> > >
_TEXT	ENDS
; Function compile flags: /Odtp
; File F:\software installation\Visual Studio Installation\VC\Tools\MSVC\14.38.33130\include\xmemory
;	COMDAT ??$_Unfancy@D@std@@YAPEADPEAD@Z
_TEXT	SEGMENT
_Ptr$ = 8
??$_Unfancy@D@std@@YAPEADPEAD@Z PROC			; std::_Unfancy<char>, COMDAT

; 35   : _NODISCARD constexpr _Ty* _Unfancy(_Ty* _Ptr) noexcept { // do nothing for plain pointers

	mov	QWORD PTR [rsp+8], rcx

; 36   :     return _Ptr;

	mov	rax, QWORD PTR _Ptr$[rsp]

; 37   : }

	ret	0
??$_Unfancy@D@std@@YAPEADPEAD@Z ENDP			; std::_Unfancy<char>
_TEXT	ENDS
; Function compile flags: /Odtp
; File F:\software installation\Visual Studio Installation\VC\Tools\MSVC\14.38.33130\include\xutility
;	COMDAT ??$_Construct_in_place@PEADAEAPEAD@std@@YAXAEAPEAD0@Z
_TEXT	SEGMENT
$T1 = 32
_Obj$ = 64
<_Args_0>$ = 72
??$_Construct_in_place@PEADAEAPEAD@std@@YAXAEAPEAD0@Z PROC ; std::_Construct_in_place<char *,char * &>, COMDAT

; 248  :     is_nothrow_constructible_v<_Ty, _Types...>) {

$LN3:
	mov	QWORD PTR [rsp+16], rdx
	mov	QWORD PTR [rsp+8], rcx
	sub	rsp, 56					; 00000038H

; 249  : #if _HAS_CXX20
; 250  :     if (_STD is_constant_evaluated()) {
; 251  :         _STD construct_at(_STD addressof(_Obj), _STD forward<_Types>(_Args)...);
; 252  :     } else
; 253  : #endif // _HAS_CXX20
; 254  :     {
; 255  :         ::new (static_cast<void*>(_STD addressof(_Obj))) _Ty(_STD forward<_Types>(_Args)...);

	mov	rcx, QWORD PTR _Obj$[rsp]
	call	??$addressof@PEAD@std@@YAPEAPEADAEAPEAD@Z ; std::addressof<char *>
	mov	rdx, rax
	mov	ecx, 8
	call	??2@YAPEAX_KPEAX@Z			; operator new
	mov	QWORD PTR $T1[rsp], rax
	mov	rcx, QWORD PTR <_Args_0>$[rsp]
	call	??$forward@AEAPEAD@std@@YAAEAPEADAEAPEAD@Z ; std::forward<char * &>
	mov	rcx, QWORD PTR $T1[rsp]
	mov	rax, QWORD PTR [rax]
	mov	QWORD PTR [rcx], rax

; 256  :     }
; 257  : }

	add	rsp, 56					; 00000038H
	ret	0
??$_Construct_in_place@PEADAEAPEAD@std@@YAXAEAPEAD0@Z ENDP ; std::_Construct_in_place<char *,char * &>
_TEXT	ENDS
; Function compile flags: /Odtp
; File F:\software installation\Visual Studio Installation\VC\Tools\MSVC\14.38.33130\include\xstring
;	COMDAT ??$_Reallocate_grow_by@V<lambda_65e615be2a453ca0576c979606f46740>@@PEBD_K@?$basic_string@DU?$char_traits@D@std@@V?$allocator@D@2@@std@@AEAAAEAV01@_KV<lambda_65e615be2a453ca0576c979606f46740>@@PEBD_K@Z
_TEXT	SEGMENT
_My_data$ = 48
_Old_size$ = 56
_New_ptr$ = 64
_New_size$ = 72
_New_capacity$ = 80
_Old_capacity$ = 88
_Old_ptr$1 = 96
_Al$ = 104
_Raw_new$ = 112
this$ = 144
_Size_increase$ = 152
_Fn$ = 160
<_Args_0>$ = 168
<_Args_1>$ = 176
??$_Reallocate_grow_by@V<lambda_65e615be2a453ca0576c979606f46740>@@PEBD_K@?$basic_string@DU?$char_traits@D@std@@V?$allocator@D@2@@std@@AEAAAEAV01@_KV<lambda_65e615be2a453ca0576c979606f46740>@@PEBD_K@Z PROC ; std::basic_string<char,std::char_traits<char>,std::allocator<char> >::_Reallocate_grow_by<<lambda_65e615be2a453ca0576c979606f46740>,char const *,unsigned __int64>, COMDAT

; 4770 :     _CONSTEXPR20 basic_string& _Reallocate_grow_by(const size_type _Size_increase, _Fty _Fn, _ArgTys... _Args) {

$LN6:
	mov	QWORD PTR [rsp+32], r9
	mov	BYTE PTR [rsp+24], r8b
	mov	QWORD PTR [rsp+16], rdx
	mov	QWORD PTR [rsp+8], rcx
	sub	rsp, 136				; 00000088H

; 4771 :         // reallocate to increase size by _Size_increase elements, new buffer prepared by
; 4772 :         // _Fn(_New_ptr, _Old_ptr, _Old_size, _Args...)
; 4773 :         auto& _My_data            = _Mypair._Myval2;

	mov	rax, QWORD PTR this$[rsp]
	mov	QWORD PTR _My_data$[rsp], rax

; 4774 :         const size_type _Old_size = _My_data._Mysize;

	mov	rax, QWORD PTR _My_data$[rsp]
	mov	rax, QWORD PTR [rax+16]
	mov	QWORD PTR _Old_size$[rsp], rax

; 4775 :         if (max_size() - _Old_size < _Size_increase) {

	mov	rcx, QWORD PTR this$[rsp]
	call	?max_size@?$basic_string@DU?$char_traits@D@std@@V?$allocator@D@2@@std@@QEBA_KXZ ; std::basic_string<char,std::char_traits<char>,std::allocator<char> >::max_size
	sub	rax, QWORD PTR _Old_size$[rsp]
	cmp	rax, QWORD PTR _Size_increase$[rsp]
	jae	SHORT $LN2@Reallocate

; 4776 :             _Xlen_string(); // result too long

	call	?_Xlen_string@std@@YAXXZ		; std::_Xlen_string
$LN2@Reallocate:

; 4777 :         }
; 4778 : 
; 4779 :         const size_type _New_size     = _Old_size + _Size_increase;

	mov	rax, QWORD PTR _Size_increase$[rsp]
	mov	rcx, QWORD PTR _Old_size$[rsp]
	add	rcx, rax
	mov	rax, rcx
	mov	QWORD PTR _New_size$[rsp], rax

; 4780 :         const size_type _Old_capacity = _My_data._Myres;

	mov	rax, QWORD PTR _My_data$[rsp]
	mov	rax, QWORD PTR [rax+24]
	mov	QWORD PTR _Old_capacity$[rsp], rax

; 4781 :         size_type _New_capacity       = _Calculate_growth(_New_size);

	mov	rdx, QWORD PTR _New_size$[rsp]
	mov	rcx, QWORD PTR this$[rsp]
	call	?_Calculate_growth@?$basic_string@DU?$char_traits@D@std@@V?$allocator@D@2@@std@@AEBA_K_K@Z ; std::basic_string<char,std::char_traits<char>,std::allocator<char> >::_Calculate_growth
	mov	QWORD PTR _New_capacity$[rsp], rax

; 4782 :         auto& _Al                     = _Getal();

	mov	rcx, QWORD PTR this$[rsp]
	call	?_Getal@?$basic_string@DU?$char_traits@D@std@@V?$allocator@D@2@@std@@AEAAAEAV?$allocator@D@2@XZ ; std::basic_string<char,std::char_traits<char>,std::allocator<char> >::_Getal
	mov	QWORD PTR _Al$[rsp], rax

; 4783 :         const pointer _New_ptr        = _Allocate_for_capacity(_Al, _New_capacity); // throws

	lea	rdx, QWORD PTR _New_capacity$[rsp]
	mov	rcx, QWORD PTR _Al$[rsp]
	call	??$_Allocate_for_capacity@$0A@@?$basic_string@DU?$char_traits@D@std@@V?$allocator@D@2@@std@@CAPEADAEAV?$allocator@D@1@AEA_K@Z ; std::basic_string<char,std::char_traits<char>,std::allocator<char> >::_Allocate_for_capacity<0>
	mov	QWORD PTR _New_ptr$[rsp], rax

; 4784 : 
; 4785 :         _My_data._Orphan_all();

	mov	rcx, QWORD PTR _My_data$[rsp]
	call	?_Orphan_all@_Container_base0@std@@QEAAXXZ ; std::_Container_base0::_Orphan_all

; 4786 :         _ASAN_STRING_REMOVE(*this);
; 4787 :         _My_data._Mysize      = _New_size;

	mov	rax, QWORD PTR _My_data$[rsp]
	mov	rcx, QWORD PTR _New_size$[rsp]
	mov	QWORD PTR [rax+16], rcx

; 4788 :         _My_data._Myres       = _New_capacity;

	mov	rax, QWORD PTR _My_data$[rsp]
	mov	rcx, QWORD PTR _New_capacity$[rsp]
	mov	QWORD PTR [rax+24], rcx

; 4789 :         _Elem* const _Raw_new = _Unfancy(_New_ptr);

	mov	rcx, QWORD PTR _New_ptr$[rsp]
	call	??$_Unfancy@D@std@@YAPEADPEAD@Z		; std::_Unfancy<char>
	mov	QWORD PTR _Raw_new$[rsp], rax

; 4790 :         if (_Old_capacity > _Small_string_capacity) {

	cmp	QWORD PTR _Old_capacity$[rsp], 15
	jbe	SHORT $LN3@Reallocate

; 4791 :             const pointer _Old_ptr = _My_data._Bx._Ptr;

	mov	rax, QWORD PTR _My_data$[rsp]
	mov	rax, QWORD PTR [rax]
	mov	QWORD PTR _Old_ptr$1[rsp], rax

; 4792 :             _Fn(_Raw_new, _Unfancy(_Old_ptr), _Old_size, _Args...);

	mov	rcx, QWORD PTR _Old_ptr$1[rsp]
	call	??$_Unfancy@D@std@@YAPEADPEAD@Z		; std::_Unfancy<char>
	mov	rcx, QWORD PTR <_Args_1>$[rsp]
	mov	QWORD PTR [rsp+40], rcx
	mov	rcx, QWORD PTR <_Args_0>$[rsp]
	mov	QWORD PTR [rsp+32], rcx
	mov	r9, QWORD PTR _Old_size$[rsp]
	mov	r8, rax
	mov	rdx, QWORD PTR _Raw_new$[rsp]
	lea	rcx, QWORD PTR _Fn$[rsp]
	call	??R<lambda_65e615be2a453ca0576c979606f46740>@@QEBA@QEADQEBD_K12@Z ; <lambda_65e615be2a453ca0576c979606f46740>::operator()

; 4793 :             _Deallocate_for_capacity(_Al, _Old_ptr, _Old_capacity);

	mov	r8, QWORD PTR _Old_capacity$[rsp]
	mov	rdx, QWORD PTR _Old_ptr$1[rsp]
	mov	rcx, QWORD PTR _Al$[rsp]
	call	?_Deallocate_for_capacity@?$basic_string@DU?$char_traits@D@std@@V?$allocator@D@2@@std@@CAXAEAV?$allocator@D@2@QEAD_K@Z ; std::basic_string<char,std::char_traits<char>,std::allocator<char> >::_Deallocate_for_capacity

; 4794 :             _My_data._Bx._Ptr = _New_ptr;

	mov	rax, QWORD PTR _My_data$[rsp]
	mov	rcx, QWORD PTR _New_ptr$[rsp]
	mov	QWORD PTR [rax], rcx

; 4795 :         } else {

	jmp	SHORT $LN4@Reallocate
$LN3@Reallocate:

; 4796 :             _Fn(_Raw_new, _My_data._Bx._Buf, _Old_size, _Args...);

	mov	rax, QWORD PTR _My_data$[rsp]
	mov	rcx, QWORD PTR <_Args_1>$[rsp]
	mov	QWORD PTR [rsp+40], rcx
	mov	rcx, QWORD PTR <_Args_0>$[rsp]
	mov	QWORD PTR [rsp+32], rcx
	mov	r9, QWORD PTR _Old_size$[rsp]
	mov	r8, rax
	mov	rdx, QWORD PTR _Raw_new$[rsp]
	lea	rcx, QWORD PTR _Fn$[rsp]
	call	??R<lambda_65e615be2a453ca0576c979606f46740>@@QEBA@QEADQEBD_K12@Z ; <lambda_65e615be2a453ca0576c979606f46740>::operator()

; 4797 :             _Construct_in_place(_My_data._Bx._Ptr, _New_ptr);

	mov	rax, QWORD PTR _My_data$[rsp]
	lea	rdx, QWORD PTR _New_ptr$[rsp]
	mov	rcx, rax
	call	??$_Construct_in_place@PEADAEBQEAD@std@@YAXAEAPEADAEBQEAD@Z ; std::_Construct_in_place<char *,char * const &>
$LN4@Reallocate:

; 4798 :         }
; 4799 : 
; 4800 :         _ASAN_STRING_CREATE(*this);
; 4801 :         return *this;

	mov	rax, QWORD PTR this$[rsp]
$LN5@Reallocate:

; 4802 :     }

	add	rsp, 136				; 00000088H
	ret	0
??$_Reallocate_grow_by@V<lambda_65e615be2a453ca0576c979606f46740>@@PEBD_K@?$basic_string@DU?$char_traits@D@std@@V?$allocator@D@2@@std@@AEAAAEAV01@_KV<lambda_65e615be2a453ca0576c979606f46740>@@PEBD_K@Z ENDP ; std::basic_string<char,std::char_traits<char>,std::allocator<char> >::_Reallocate_grow_by<<lambda_65e615be2a453ca0576c979606f46740>,char const *,unsigned __int64>
_TEXT	ENDS
; Function compile flags: /Odtp
; File F:\software installation\Visual Studio Installation\VC\Tools\MSVC\14.38.33130\include\xstring
;	COMDAT ??R<lambda_65e615be2a453ca0576c979606f46740>@@QEBA@QEADQEBD_K12@Z
_TEXT	SEGMENT
$T1 = 32
this$ = 64
_New_ptr$ = 72
_Old_ptr$ = 80
_Old_size$ = 88
_Ptr$ = 96
_Count$ = 104
??R<lambda_65e615be2a453ca0576c979606f46740>@@QEBA@QEADQEBD_K12@Z PROC ; <lambda_65e615be2a453ca0576c979606f46740>::operator(), COMDAT

; 3284 :             },

$LN3:
	mov	QWORD PTR [rsp+32], r9
	mov	QWORD PTR [rsp+24], r8
	mov	QWORD PTR [rsp+16], rdx
	mov	QWORD PTR [rsp+8], rcx
	sub	rsp, 56					; 00000038H

; 3281 :                 _Traits::copy(_New_ptr, _Old_ptr, _Old_size);

	mov	r8, QWORD PTR _Old_size$[rsp]
	mov	rdx, QWORD PTR _Old_ptr$[rsp]
	mov	rcx, QWORD PTR _New_ptr$[rsp]
	call	?copy@?$_Char_traits@DH@std@@SAPEADQEADQEBD_K@Z ; std::_Char_traits<char,int>::copy

; 3282 :                 _Traits::copy(_New_ptr + _Old_size, _Ptr, _Count);

	mov	rax, QWORD PTR _Old_size$[rsp]
	mov	rcx, QWORD PTR _New_ptr$[rsp]
	add	rcx, rax
	mov	rax, rcx
	mov	r8, QWORD PTR _Count$[rsp]
	mov	rdx, QWORD PTR _Ptr$[rsp]
	mov	rcx, rax
	call	?copy@?$_Char_traits@DH@std@@SAPEADQEADQEBD_K@Z ; std::_Char_traits<char,int>::copy

; 3283 :                 _Traits::assign(_New_ptr[_Old_size + _Count], _Elem());

	mov	BYTE PTR $T1[rsp], 0
	mov	rax, QWORD PTR _Count$[rsp]
	mov	rcx, QWORD PTR _Old_size$[rsp]
	add	rcx, rax
	mov	rax, rcx
	mov	rcx, QWORD PTR _New_ptr$[rsp]
	add	rcx, rax
	mov	rax, rcx
	lea	rdx, QWORD PTR $T1[rsp]
	mov	rcx, rax
	call	?assign@?$_Narrow_char_traits@DH@std@@SAXAEADAEBD@Z ; std::_Narrow_char_traits<char,int>::assign

; 3284 :             },

	add	rsp, 56					; 00000038H
	ret	0
??R<lambda_65e615be2a453ca0576c979606f46740>@@QEBA@QEADQEBD_K12@Z ENDP ; <lambda_65e615be2a453ca0576c979606f46740>::operator()
_TEXT	ENDS
; Function compile flags: /Odtp
; File F:\software installation\Visual Studio Installation\VC\Tools\MSVC\14.38.33130\include\xmemory
;	COMDAT ??$_Destroy_in_place@PEAD@std@@YAXAEAPEAD@Z
_TEXT	SEGMENT
_Obj$ = 8
??$_Destroy_in_place@PEAD@std@@YAXAEAPEAD@Z PROC	; std::_Destroy_in_place<char *>, COMDAT

; 303  : _CONSTEXPR20 void _Destroy_in_place(_Ty& _Obj) noexcept {

	mov	QWORD PTR [rsp+8], rcx

; 304  :     if constexpr (is_array_v<_Ty>) {
; 305  :         _Destroy_range(_Obj, _Obj + extent_v<_Ty>);
; 306  :     } else {
; 307  :         _Obj.~_Ty();
; 308  :     }
; 309  : }

	ret	0
??$_Destroy_in_place@PEAD@std@@YAXAEAPEAD@Z ENDP	; std::_Destroy_in_place<char *>
_TEXT	ENDS
; Function compile flags: /Odtp
; File F:\software installation\Visual Studio Installation\VC\Tools\MSVC\14.38.33130\include\xstring
;	COMDAT ??$_Construct@$01PEBD@?$basic_string@DU?$char_traits@D@std@@V?$allocator@D@2@@std@@AEAAXQEBD_K@Z
_TEXT	SEGMENT
_Proxy$ = 32
_My_data$ = 40
_New_capacity$ = 48
_New_ptr$ = 56
_Alproxy$ = 64
_Al$ = 72
tv133 = 80
this$ = 112
_Arg$ = 120
_Count$ = 128
??$_Construct@$01PEBD@?$basic_string@DU?$char_traits@D@std@@V?$allocator@D@2@@std@@AEAAXQEBD_K@Z PROC ; std::basic_string<char,std::char_traits<char>,std::allocator<char> >::_Construct<2,char const *>, COMDAT

; 2636 :     _CONSTEXPR20 void _Construct(const _Char_or_ptr _Arg, _CRT_GUARDOVERFLOW const size_type _Count) {

$LN5:
	mov	QWORD PTR [rsp+24], r8
	mov	QWORD PTR [rsp+16], rdx
	mov	QWORD PTR [rsp+8], rcx
	sub	rsp, 104				; 00000068H

; 2637 :         auto& _My_data = _Mypair._Myval2;

	mov	rax, QWORD PTR this$[rsp]
	mov	QWORD PTR _My_data$[rsp], rax

; 2638 :         _STL_INTERNAL_CHECK(!_My_data._Large_mode_engaged());
; 2639 : 
; 2640 :         if constexpr (_Strat == _Construct_strategy::_From_char) {
; 2641 :             _STL_INTERNAL_STATIC_ASSERT(is_same_v<_Char_or_ptr, _Elem>);
; 2642 :         } else {
; 2643 :             _STL_INTERNAL_STATIC_ASSERT(_Is_elem_cptr<_Char_or_ptr>::value);
; 2644 :         }
; 2645 : 
; 2646 :         if (_Count > max_size()) {

	mov	rcx, QWORD PTR this$[rsp]
	call	?max_size@?$basic_string@DU?$char_traits@D@std@@V?$allocator@D@2@@std@@QEBA_KXZ ; std::basic_string<char,std::char_traits<char>,std::allocator<char> >::max_size
	cmp	QWORD PTR _Count$[rsp], rax
	jbe	SHORT $LN2@Construct

; 2647 :             _Xlen_string(); // result too long

	call	?_Xlen_string@std@@YAXXZ		; std::_Xlen_string
$LN2@Construct:

; 2648 :         }
; 2649 : 
; 2650 :         auto& _Al       = _Getal();

	mov	rcx, QWORD PTR this$[rsp]
	call	?_Getal@?$basic_string@DU?$char_traits@D@std@@V?$allocator@D@2@@std@@AEAAAEAV?$allocator@D@2@XZ ; std::basic_string<char,std::char_traits<char>,std::allocator<char> >::_Getal
	mov	QWORD PTR _Al$[rsp], rax

; 2651 :         auto&& _Alproxy = _GET_PROXY_ALLOCATOR(_Alty, _Al);

	lea	rax, OFFSET FLAT:?_Fake_alloc@std@@3U_Fake_allocator@1@B
	mov	QWORD PTR _Alproxy$[rsp], rax

; 2652 :         _Container_proxy_ptr<_Alty> _Proxy(_Alproxy, _My_data);

	mov	r8, QWORD PTR _My_data$[rsp]
	mov	rdx, QWORD PTR _Alproxy$[rsp]
	lea	rcx, QWORD PTR _Proxy$[rsp]
	call	??0_Fake_proxy_ptr_impl@std@@QEAA@AEBU_Fake_allocator@1@AEBU_Container_base0@1@@Z ; std::_Fake_proxy_ptr_impl::_Fake_proxy_ptr_impl

; 2653 : 
; 2654 :         if (_Count <= _Small_string_capacity) {

	cmp	QWORD PTR _Count$[rsp], 15
	ja	SHORT $LN3@Construct

; 2655 :             _My_data._Mysize = _Count;

	mov	rax, QWORD PTR _My_data$[rsp]
	mov	rcx, QWORD PTR _Count$[rsp]
	mov	QWORD PTR [rax+16], rcx

; 2656 :             _My_data._Myres  = _Small_string_capacity;

	mov	rax, QWORD PTR _My_data$[rsp]
	mov	QWORD PTR [rax+24], 15

; 2657 : 
; 2658 :             if constexpr (_Strat == _Construct_strategy::_From_char) {
; 2659 :                 _Traits::assign(_My_data._Bx._Buf, _Count, _Arg);
; 2660 :                 _Traits::assign(_My_data._Bx._Buf[_Count], _Elem());
; 2661 :             } else if constexpr (_Strat == _Construct_strategy::_From_ptr) {
; 2662 :                 _Traits::copy(_My_data._Bx._Buf, _Arg, _Count);
; 2663 :                 _Traits::assign(_My_data._Bx._Buf[_Count], _Elem());
; 2664 :             } else { // _Strat == _Construct_strategy::_From_string
; 2665 : #ifdef _INSERT_STRING_ANNOTATION
; 2666 :                 _Traits::copy(_My_data._Bx._Buf, _Arg, _Count + 1);
; 2667 : #else // ^^^ _INSERT_STRING_ANNOTATION / !_INSERT_STRING_ANNOTATION vvv
; 2668 :                 _Traits::copy(_My_data._Bx._Buf, _Arg, _BUF_SIZE);

	mov	rax, QWORD PTR _My_data$[rsp]
	mov	r8d, 16
	mov	rdx, QWORD PTR _Arg$[rsp]
	mov	rcx, rax
	call	?copy@?$_Char_traits@DH@std@@SAPEADQEADQEBD_K@Z ; std::_Char_traits<char,int>::copy

; 2669 : #endif // !_INSERT_STRING_ANNOTATION
; 2670 :             }
; 2671 : 
; 2672 :             _Proxy._Release();

	lea	rcx, QWORD PTR _Proxy$[rsp]
	call	?_Release@_Fake_proxy_ptr_impl@std@@QEAAXXZ ; std::_Fake_proxy_ptr_impl::_Release

; 2673 :             return;

	jmp	$LN1@Construct
$LN3@Construct:

; 2674 :         }
; 2675 : 
; 2676 :         _My_data._Myres         = _Small_string_capacity;

	mov	rax, QWORD PTR _My_data$[rsp]
	mov	QWORD PTR [rax+24], 15

; 2677 :         size_type _New_capacity = _Calculate_growth(_Count);

	mov	rdx, QWORD PTR _Count$[rsp]
	mov	rcx, QWORD PTR this$[rsp]
	call	?_Calculate_growth@?$basic_string@DU?$char_traits@D@std@@V?$allocator@D@2@@std@@AEBA_K_K@Z ; std::basic_string<char,std::char_traits<char>,std::allocator<char> >::_Calculate_growth
	mov	QWORD PTR _New_capacity$[rsp], rax

; 2678 :         const pointer _New_ptr  = _Allocate_for_capacity(_Al, _New_capacity); // throws

	lea	rdx, QWORD PTR _New_capacity$[rsp]
	mov	rcx, QWORD PTR _Al$[rsp]
	call	??$_Allocate_for_capacity@$0A@@?$basic_string@DU?$char_traits@D@std@@V?$allocator@D@2@@std@@CAPEADAEAV?$allocator@D@1@AEA_K@Z ; std::basic_string<char,std::char_traits<char>,std::allocator<char> >::_Allocate_for_capacity<0>
	mov	QWORD PTR _New_ptr$[rsp], rax

; 2679 :         _Construct_in_place(_My_data._Bx._Ptr, _New_ptr);

	mov	rax, QWORD PTR _My_data$[rsp]
	lea	rdx, QWORD PTR _New_ptr$[rsp]
	mov	rcx, rax
	call	??$_Construct_in_place@PEADAEBQEAD@std@@YAXAEAPEADAEBQEAD@Z ; std::_Construct_in_place<char *,char * const &>

; 2680 : 
; 2681 :         _My_data._Mysize = _Count;

	mov	rax, QWORD PTR _My_data$[rsp]
	mov	rcx, QWORD PTR _Count$[rsp]
	mov	QWORD PTR [rax+16], rcx

; 2682 :         _My_data._Myres  = _New_capacity;

	mov	rax, QWORD PTR _My_data$[rsp]
	mov	rcx, QWORD PTR _New_capacity$[rsp]
	mov	QWORD PTR [rax+24], rcx

; 2683 :         if constexpr (_Strat == _Construct_strategy::_From_char) {
; 2684 :             _Traits::assign(_Unfancy(_New_ptr), _Count, _Arg);
; 2685 :             _Traits::assign(_Unfancy(_New_ptr)[_Count], _Elem());
; 2686 :         } else if constexpr (_Strat == _Construct_strategy::_From_ptr) {
; 2687 :             _Traits::copy(_Unfancy(_New_ptr), _Arg, _Count);
; 2688 :             _Traits::assign(_Unfancy(_New_ptr)[_Count], _Elem());
; 2689 :         } else { // _Strat == _Construct_strategy::_From_string
; 2690 :             _Traits::copy(_Unfancy(_New_ptr), _Arg, _Count + 1);

	mov	rax, QWORD PTR _Count$[rsp]
	inc	rax
	mov	QWORD PTR tv133[rsp], rax
	mov	rcx, QWORD PTR _New_ptr$[rsp]
	call	??$_Unfancy@D@std@@YAPEADPEAD@Z		; std::_Unfancy<char>
	mov	rcx, QWORD PTR tv133[rsp]
	mov	r8, rcx
	mov	rdx, QWORD PTR _Arg$[rsp]
	mov	rcx, rax
	call	?copy@?$_Char_traits@DH@std@@SAPEADQEADQEBD_K@Z ; std::_Char_traits<char,int>::copy

; 2691 :         }
; 2692 : 
; 2693 :         _ASAN_STRING_CREATE(*this);
; 2694 :         _Proxy._Release();

	lea	rcx, QWORD PTR _Proxy$[rsp]
	call	?_Release@_Fake_proxy_ptr_impl@std@@QEAAXXZ ; std::_Fake_proxy_ptr_impl::_Release
$LN1@Construct:
$LN4@Construct:

; 2695 :     }

	add	rsp, 104				; 00000068H
	ret	0
??$_Construct@$01PEBD@?$basic_string@DU?$char_traits@D@std@@V?$allocator@D@2@@std@@AEAAXQEBD_K@Z ENDP ; std::basic_string<char,std::char_traits<char>,std::allocator<char> >::_Construct<2,char const *>
_TEXT	ENDS
; Function compile flags: /Odtp
; File F:\software installation\Visual Studio Installation\VC\Tools\MSVC\14.38.33130\include\xstring
;	COMDAT ??$_Construct@$00PEBD@?$basic_string@DU?$char_traits@D@std@@V?$allocator@D@2@@std@@AEAAXQEBD_K@Z
_TEXT	SEGMENT
_Proxy$ = 32
$T1 = 33
$T2 = 34
_My_data$ = 40
_New_ptr$ = 48
_New_capacity$ = 56
_Alproxy$ = 64
_Al$ = 72
this$ = 96
_Arg$ = 104
_Count$ = 112
??$_Construct@$00PEBD@?$basic_string@DU?$char_traits@D@std@@V?$allocator@D@2@@std@@AEAAXQEBD_K@Z PROC ; std::basic_string<char,std::char_traits<char>,std::allocator<char> >::_Construct<1,char const *>, COMDAT

; 2636 :     _CONSTEXPR20 void _Construct(const _Char_or_ptr _Arg, _CRT_GUARDOVERFLOW const size_type _Count) {

$LN5:
	mov	QWORD PTR [rsp+24], r8
	mov	QWORD PTR [rsp+16], rdx
	mov	QWORD PTR [rsp+8], rcx
	sub	rsp, 88					; 00000058H

; 2637 :         auto& _My_data = _Mypair._Myval2;

	mov	rax, QWORD PTR this$[rsp]
	mov	QWORD PTR _My_data$[rsp], rax

; 2638 :         _STL_INTERNAL_CHECK(!_My_data._Large_mode_engaged());
; 2639 : 
; 2640 :         if constexpr (_Strat == _Construct_strategy::_From_char) {
; 2641 :             _STL_INTERNAL_STATIC_ASSERT(is_same_v<_Char_or_ptr, _Elem>);
; 2642 :         } else {
; 2643 :             _STL_INTERNAL_STATIC_ASSERT(_Is_elem_cptr<_Char_or_ptr>::value);
; 2644 :         }
; 2645 : 
; 2646 :         if (_Count > max_size()) {

	mov	rcx, QWORD PTR this$[rsp]
	call	?max_size@?$basic_string@DU?$char_traits@D@std@@V?$allocator@D@2@@std@@QEBA_KXZ ; std::basic_string<char,std::char_traits<char>,std::allocator<char> >::max_size
	cmp	QWORD PTR _Count$[rsp], rax
	jbe	SHORT $LN2@Construct

; 2647 :             _Xlen_string(); // result too long

	call	?_Xlen_string@std@@YAXXZ		; std::_Xlen_string
$LN2@Construct:

; 2648 :         }
; 2649 : 
; 2650 :         auto& _Al       = _Getal();

	mov	rcx, QWORD PTR this$[rsp]
	call	?_Getal@?$basic_string@DU?$char_traits@D@std@@V?$allocator@D@2@@std@@AEAAAEAV?$allocator@D@2@XZ ; std::basic_string<char,std::char_traits<char>,std::allocator<char> >::_Getal
	mov	QWORD PTR _Al$[rsp], rax

; 2651 :         auto&& _Alproxy = _GET_PROXY_ALLOCATOR(_Alty, _Al);

	lea	rax, OFFSET FLAT:?_Fake_alloc@std@@3U_Fake_allocator@1@B
	mov	QWORD PTR _Alproxy$[rsp], rax

; 2652 :         _Container_proxy_ptr<_Alty> _Proxy(_Alproxy, _My_data);

	mov	r8, QWORD PTR _My_data$[rsp]
	mov	rdx, QWORD PTR _Alproxy$[rsp]
	lea	rcx, QWORD PTR _Proxy$[rsp]
	call	??0_Fake_proxy_ptr_impl@std@@QEAA@AEBU_Fake_allocator@1@AEBU_Container_base0@1@@Z ; std::_Fake_proxy_ptr_impl::_Fake_proxy_ptr_impl

; 2653 : 
; 2654 :         if (_Count <= _Small_string_capacity) {

	cmp	QWORD PTR _Count$[rsp], 15
	ja	SHORT $LN3@Construct

; 2655 :             _My_data._Mysize = _Count;

	mov	rax, QWORD PTR _My_data$[rsp]
	mov	rcx, QWORD PTR _Count$[rsp]
	mov	QWORD PTR [rax+16], rcx

; 2656 :             _My_data._Myres  = _Small_string_capacity;

	mov	rax, QWORD PTR _My_data$[rsp]
	mov	QWORD PTR [rax+24], 15

; 2657 : 
; 2658 :             if constexpr (_Strat == _Construct_strategy::_From_char) {
; 2659 :                 _Traits::assign(_My_data._Bx._Buf, _Count, _Arg);
; 2660 :                 _Traits::assign(_My_data._Bx._Buf[_Count], _Elem());
; 2661 :             } else if constexpr (_Strat == _Construct_strategy::_From_ptr) {
; 2662 :                 _Traits::copy(_My_data._Bx._Buf, _Arg, _Count);

	mov	rax, QWORD PTR _My_data$[rsp]
	mov	r8, QWORD PTR _Count$[rsp]
	mov	rdx, QWORD PTR _Arg$[rsp]
	mov	rcx, rax
	call	?copy@?$_Char_traits@DH@std@@SAPEADQEADQEBD_K@Z ; std::_Char_traits<char,int>::copy

; 2663 :                 _Traits::assign(_My_data._Bx._Buf[_Count], _Elem());

	mov	BYTE PTR $T1[rsp], 0
	mov	rax, QWORD PTR _Count$[rsp]
	mov	rcx, QWORD PTR _My_data$[rsp]
	add	rcx, rax
	mov	rax, rcx
	lea	rdx, QWORD PTR $T1[rsp]
	mov	rcx, rax
	call	?assign@?$_Narrow_char_traits@DH@std@@SAXAEADAEBD@Z ; std::_Narrow_char_traits<char,int>::assign

; 2664 :             } else { // _Strat == _Construct_strategy::_From_string
; 2665 : #ifdef _INSERT_STRING_ANNOTATION
; 2666 :                 _Traits::copy(_My_data._Bx._Buf, _Arg, _Count + 1);
; 2667 : #else // ^^^ _INSERT_STRING_ANNOTATION / !_INSERT_STRING_ANNOTATION vvv
; 2668 :                 _Traits::copy(_My_data._Bx._Buf, _Arg, _BUF_SIZE);
; 2669 : #endif // !_INSERT_STRING_ANNOTATION
; 2670 :             }
; 2671 : 
; 2672 :             _Proxy._Release();

	lea	rcx, QWORD PTR _Proxy$[rsp]
	call	?_Release@_Fake_proxy_ptr_impl@std@@QEAAXXZ ; std::_Fake_proxy_ptr_impl::_Release

; 2673 :             return;

	jmp	$LN1@Construct
$LN3@Construct:

; 2674 :         }
; 2675 : 
; 2676 :         _My_data._Myres         = _Small_string_capacity;

	mov	rax, QWORD PTR _My_data$[rsp]
	mov	QWORD PTR [rax+24], 15

; 2677 :         size_type _New_capacity = _Calculate_growth(_Count);

	mov	rdx, QWORD PTR _Count$[rsp]
	mov	rcx, QWORD PTR this$[rsp]
	call	?_Calculate_growth@?$basic_string@DU?$char_traits@D@std@@V?$allocator@D@2@@std@@AEBA_K_K@Z ; std::basic_string<char,std::char_traits<char>,std::allocator<char> >::_Calculate_growth
	mov	QWORD PTR _New_capacity$[rsp], rax

; 2678 :         const pointer _New_ptr  = _Allocate_for_capacity(_Al, _New_capacity); // throws

	lea	rdx, QWORD PTR _New_capacity$[rsp]
	mov	rcx, QWORD PTR _Al$[rsp]
	call	??$_Allocate_for_capacity@$0A@@?$basic_string@DU?$char_traits@D@std@@V?$allocator@D@2@@std@@CAPEADAEAV?$allocator@D@1@AEA_K@Z ; std::basic_string<char,std::char_traits<char>,std::allocator<char> >::_Allocate_for_capacity<0>
	mov	QWORD PTR _New_ptr$[rsp], rax

; 2679 :         _Construct_in_place(_My_data._Bx._Ptr, _New_ptr);

	mov	rax, QWORD PTR _My_data$[rsp]
	lea	rdx, QWORD PTR _New_ptr$[rsp]
	mov	rcx, rax
	call	??$_Construct_in_place@PEADAEBQEAD@std@@YAXAEAPEADAEBQEAD@Z ; std::_Construct_in_place<char *,char * const &>

; 2680 : 
; 2681 :         _My_data._Mysize = _Count;

	mov	rax, QWORD PTR _My_data$[rsp]
	mov	rcx, QWORD PTR _Count$[rsp]
	mov	QWORD PTR [rax+16], rcx

; 2682 :         _My_data._Myres  = _New_capacity;

	mov	rax, QWORD PTR _My_data$[rsp]
	mov	rcx, QWORD PTR _New_capacity$[rsp]
	mov	QWORD PTR [rax+24], rcx

; 2683 :         if constexpr (_Strat == _Construct_strategy::_From_char) {
; 2684 :             _Traits::assign(_Unfancy(_New_ptr), _Count, _Arg);
; 2685 :             _Traits::assign(_Unfancy(_New_ptr)[_Count], _Elem());
; 2686 :         } else if constexpr (_Strat == _Construct_strategy::_From_ptr) {
; 2687 :             _Traits::copy(_Unfancy(_New_ptr), _Arg, _Count);

	mov	rcx, QWORD PTR _New_ptr$[rsp]
	call	??$_Unfancy@D@std@@YAPEADPEAD@Z		; std::_Unfancy<char>
	mov	r8, QWORD PTR _Count$[rsp]
	mov	rdx, QWORD PTR _Arg$[rsp]
	mov	rcx, rax
	call	?copy@?$_Char_traits@DH@std@@SAPEADQEADQEBD_K@Z ; std::_Char_traits<char,int>::copy

; 2688 :             _Traits::assign(_Unfancy(_New_ptr)[_Count], _Elem());

	mov	BYTE PTR $T2[rsp], 0
	mov	rcx, QWORD PTR _New_ptr$[rsp]
	call	??$_Unfancy@D@std@@YAPEADPEAD@Z		; std::_Unfancy<char>
	add	rax, QWORD PTR _Count$[rsp]
	lea	rdx, QWORD PTR $T2[rsp]
	mov	rcx, rax
	call	?assign@?$_Narrow_char_traits@DH@std@@SAXAEADAEBD@Z ; std::_Narrow_char_traits<char,int>::assign

; 2689 :         } else { // _Strat == _Construct_strategy::_From_string
; 2690 :             _Traits::copy(_Unfancy(_New_ptr), _Arg, _Count + 1);
; 2691 :         }
; 2692 : 
; 2693 :         _ASAN_STRING_CREATE(*this);
; 2694 :         _Proxy._Release();

	lea	rcx, QWORD PTR _Proxy$[rsp]
	call	?_Release@_Fake_proxy_ptr_impl@std@@QEAAXXZ ; std::_Fake_proxy_ptr_impl::_Release
$LN1@Construct:
$LN4@Construct:

; 2695 :     }

	add	rsp, 88					; 00000058H
	ret	0
??$_Construct@$00PEBD@?$basic_string@DU?$char_traits@D@std@@V?$allocator@D@2@@std@@AEAAXQEBD_K@Z ENDP ; std::basic_string<char,std::char_traits<char>,std::allocator<char> >::_Construct<1,char const *>
_TEXT	ENDS
; Function compile flags: /Odtp
; File F:\software installation\Visual Studio Installation\VC\Tools\MSVC\14.38.33130\include\xmemory
;	COMDAT ??$?0$$V@?$_Compressed_pair@V?$allocator@D@std@@V?$_String_val@U?$_Simple_types@D@std@@@2@$00@std@@QEAA@U_Zero_then_variadic_args_t@1@@Z
_TEXT	SEGMENT
this$ = 48
__formal$ = 56
??$?0$$V@?$_Compressed_pair@V?$allocator@D@std@@V?$_String_val@U?$_Simple_types@D@std@@@2@$00@std@@QEAA@U_Zero_then_variadic_args_t@1@@Z PROC ; std::_Compressed_pair<std::allocator<char>,std::_String_val<std::_Simple_types<char> >,1>::_Compressed_pair<std::allocator<char>,std::_String_val<std::_Simple_types<char> >,1><>, COMDAT

; 1519 :         : _Ty1(), _Myval2(_STD forward<_Other2>(_Val2)...) {}

$LN3:
	mov	BYTE PTR [rsp+16], dl
	mov	QWORD PTR [rsp+8], rcx
	sub	rsp, 40					; 00000028H
	mov	rcx, QWORD PTR this$[rsp]
	call	??0?$allocator@D@std@@QEAA@XZ		; std::allocator<char>::allocator<char>
	mov	rax, QWORD PTR this$[rsp]
	mov	rcx, rax
	call	??0?$_String_val@U?$_Simple_types@D@std@@@std@@QEAA@XZ ; std::_String_val<std::_Simple_types<char> >::_String_val<std::_Simple_types<char> >
	mov	rax, QWORD PTR this$[rsp]
	add	rsp, 40					; 00000028H
	ret	0
??$?0$$V@?$_Compressed_pair@V?$allocator@D@std@@V?$_String_val@U?$_Simple_types@D@std@@@2@$00@std@@QEAA@U_Zero_then_variadic_args_t@1@@Z ENDP ; std::_Compressed_pair<std::allocator<char>,std::_String_val<std::_Simple_types<char> >,1>::_Compressed_pair<std::allocator<char>,std::_String_val<std::_Simple_types<char> >,1><>
_TEXT	ENDS
; Function compile flags: /Odtp
; File F:\software installation\Visual Studio Installation\VC\Tools\MSVC\14.38.33130\include\xmemory
;	COMDAT ??$?0V?$allocator@D@std@@$$V@?$_Compressed_pair@V?$allocator@D@std@@V?$_String_val@U?$_Simple_types@D@std@@@2@$00@std@@QEAA@U_One_then_variadic_args_t@1@$$QEAV?$allocator@D@1@@Z
_TEXT	SEGMENT
this$ = 48
__formal$ = 56
_Val1$ = 64
??$?0V?$allocator@D@std@@$$V@?$_Compressed_pair@V?$allocator@D@std@@V?$_String_val@U?$_Simple_types@D@std@@@2@$00@std@@QEAA@U_One_then_variadic_args_t@1@$$QEAV?$allocator@D@1@@Z PROC ; std::_Compressed_pair<std::allocator<char>,std::_String_val<std::_Simple_types<char> >,1>::_Compressed_pair<std::allocator<char>,std::_String_val<std::_Simple_types<char> >,1><std::allocator<char> >, COMDAT

; 1524 :         : _Ty1(_STD forward<_Other1>(_Val1)), _Myval2(_STD forward<_Other2>(_Val2)...) {}

$LN3:
	mov	QWORD PTR [rsp+24], r8
	mov	BYTE PTR [rsp+16], dl
	mov	QWORD PTR [rsp+8], rcx
	sub	rsp, 40					; 00000028H
	mov	rcx, QWORD PTR _Val1$[rsp]
	call	??$forward@V?$allocator@D@std@@@std@@YA$$QEAV?$allocator@D@0@AEAV10@@Z ; std::forward<std::allocator<char> >
	mov	rax, QWORD PTR this$[rsp]
	mov	rcx, rax
	call	??0?$_String_val@U?$_Simple_types@D@std@@@std@@QEAA@XZ ; std::_String_val<std::_Simple_types<char> >::_String_val<std::_Simple_types<char> >
	mov	rax, QWORD PTR this$[rsp]
	add	rsp, 40					; 00000028H
	ret	0
??$?0V?$allocator@D@std@@$$V@?$_Compressed_pair@V?$allocator@D@std@@V?$_String_val@U?$_Simple_types@D@std@@@2@$00@std@@QEAA@U_One_then_variadic_args_t@1@$$QEAV?$allocator@D@1@@Z ENDP ; std::_Compressed_pair<std::allocator<char>,std::_String_val<std::_Simple_types<char> >,1>::_Compressed_pair<std::allocator<char>,std::_String_val<std::_Simple_types<char> >,1><std::allocator<char> >
_TEXT	ENDS
; Function compile flags: /Odtp
; File F:\software installation\Visual Studio Installation\VC\Tools\MSVC\14.38.33130\include\type_traits
;	COMDAT ??$move@AEAV?$allocator@D@std@@@std@@YA$$QEAV?$allocator@D@0@AEAV10@@Z
_TEXT	SEGMENT
_Arg$ = 8
??$move@AEAV?$allocator@D@std@@@std@@YA$$QEAV?$allocator@D@0@AEAV10@@Z PROC ; std::move<std::allocator<char> &>, COMDAT

; 1573 : _NODISCARD _MSVC_INTRINSIC constexpr remove_reference_t<_Ty>&& move(_Ty&& _Arg) noexcept {

	mov	QWORD PTR [rsp+8], rcx

; 1574 :     return static_cast<remove_reference_t<_Ty>&&>(_Arg);

	mov	rax, QWORD PTR _Arg$[rsp]

; 1575 : }

	ret	0
??$move@AEAV?$allocator@D@std@@@std@@YA$$QEAV?$allocator@D@0@AEAV10@@Z ENDP ; std::move<std::allocator<char> &>
_TEXT	ENDS
; Function compile flags: /Odtp
; File F:\software installation\Visual Studio Installation\VC\Tools\MSVC\14.38.33130\include\xmemory
;	COMDAT ??$_Convert_size@_K_K@std@@YA_K_K@Z
_TEXT	SEGMENT
_Len$ = 8
??$_Convert_size@_K_K@std@@YA_K_K@Z PROC		; std::_Convert_size<unsigned __int64,unsigned __int64>, COMDAT

; 1108 :     sizeof(_Unsigned_type) <= sizeof(_Size_type)) {

	mov	QWORD PTR [rsp+8], rcx

; 1109 :     // convert _Unsigned_type to _Size_type, avoiding truncation
; 1110 :     _STL_INTERNAL_STATIC_ASSERT(_Unsigned_type(-1) > 0);
; 1111 :     _STL_INTERNAL_STATIC_ASSERT(_Size_type(-1) > 0);
; 1112 : 
; 1113 :     if constexpr (sizeof(_Unsigned_type) > sizeof(_Size_type)) {
; 1114 :         if (_Len > (numeric_limits<_Size_type>::max)()) {
; 1115 :             _Xlength_error("size is too long for _Size_type");
; 1116 :         }
; 1117 :     }
; 1118 : 
; 1119 :     return static_cast<_Size_type>(_Len);

	mov	rax, QWORD PTR _Len$[rsp]

; 1120 : }

	ret	0
??$_Convert_size@_K_K@std@@YA_K_K@Z ENDP		; std::_Convert_size<unsigned __int64,unsigned __int64>
_TEXT	ENDS
; Function compile flags: /Odtp
; File F:\software installation\Visual Studio Installation\VC\Tools\MSVC\14.38.33130\include\ostream
;	COMDAT ??$endl@DU?$char_traits@D@std@@@std@@YAAEAV?$basic_ostream@DU?$char_traits@D@std@@@0@AEAV10@@Z
_TEXT	SEGMENT
_Ostr$ = 48
??$endl@DU?$char_traits@D@std@@@std@@YAAEAV?$basic_ostream@DU?$char_traits@D@std@@@0@AEAV10@@Z PROC ; std::endl<char,std::char_traits<char> >, COMDAT

; 1010 :     basic_ostream<_Elem, _Traits>& _Ostr) { // insert newline and flush stream

$LN3:
	mov	QWORD PTR [rsp+8], rcx
	sub	rsp, 40					; 00000028H

; 1011 :     _Ostr.put(_Ostr.widen('\n'));

	mov	rax, QWORD PTR _Ostr$[rsp]
	mov	rax, QWORD PTR [rax]
	movsxd	rax, DWORD PTR [rax+4]
	mov	rcx, QWORD PTR _Ostr$[rsp]
	add	rcx, rax
	mov	rax, rcx
	mov	dl, 10
	mov	rcx, rax
	call	?widen@?$basic_ios@DU?$char_traits@D@std@@@std@@QEBADD@Z ; std::basic_ios<char,std::char_traits<char> >::widen
	movzx	edx, al
	mov	rcx, QWORD PTR _Ostr$[rsp]
	call	?put@?$basic_ostream@DU?$char_traits@D@std@@@std@@QEAAAEAV12@D@Z ; std::basic_ostream<char,std::char_traits<char> >::put

; 1012 :     _Ostr.flush();

	mov	rcx, QWORD PTR _Ostr$[rsp]
	call	?flush@?$basic_ostream@DU?$char_traits@D@std@@@std@@QEAAAEAV12@XZ ; std::basic_ostream<char,std::char_traits<char> >::flush

; 1013 :     return _Ostr;

	mov	rax, QWORD PTR _Ostr$[rsp]

; 1014 : }

	add	rsp, 40					; 00000028H
	ret	0
??$endl@DU?$char_traits@D@std@@@std@@YAAEAV?$basic_ostream@DU?$char_traits@D@std@@@0@AEAV10@@Z ENDP ; std::endl<char,std::char_traits<char> >
_TEXT	ENDS
; Function compile flags: /Odtp
; File F:\software installation\Visual Studio Installation\VC\Tools\MSVC\14.38.33130\include\ostream
;	COMDAT ??$?6U?$char_traits@D@std@@@std@@YAAEAV?$basic_ostream@DU?$char_traits@D@std@@@0@AEAV10@PEBD@Z
_TEXT	SEGMENT
_State$ = 32
tv285 = 36
tv283 = 37
_Pad$ = 40
_Count$ = 48
tv139 = 56
tv295 = 60
tv137 = 64
tv294 = 72
$T1 = 80
_Ok$ = 88
_Ostr$ = 128
_Val$ = 136
??$?6U?$char_traits@D@std@@@std@@YAAEAV?$basic_ostream@DU?$char_traits@D@std@@@0@AEAV10@PEBD@Z PROC ; std::operator<<<std::char_traits<char> >, COMDAT

; 766  : basic_ostream<char, _Traits>& operator<<(basic_ostream<char, _Traits>& _Ostr, const char* _Val) {

$LN25:
	mov	QWORD PTR [rsp+16], rdx
	mov	QWORD PTR [rsp+8], rcx
	sub	rsp, 120				; 00000078H

; 767  :     // insert NTBS into char stream
; 768  :     using _Elem = char;
; 769  :     using _Myos = basic_ostream<_Elem, _Traits>;
; 770  : 
; 771  :     ios_base::iostate _State = ios_base::goodbit;

	mov	DWORD PTR _State$[rsp], 0

; 772  :     streamsize _Count        = static_cast<streamsize>(_Traits::length(_Val));

	mov	rcx, QWORD PTR _Val$[rsp]
	call	?length@?$_Narrow_char_traits@DH@std@@SA_KQEBD@Z ; std::_Narrow_char_traits<char,int>::length
	mov	QWORD PTR _Count$[rsp], rax

; 773  :     streamsize _Pad          = _Ostr.width() <= 0 || _Ostr.width() <= _Count ? 0 : _Ostr.width() - _Count;

	mov	rax, QWORD PTR _Ostr$[rsp]
	mov	rax, QWORD PTR [rax]
	movsxd	rax, DWORD PTR [rax+4]
	mov	rcx, QWORD PTR _Ostr$[rsp]
	add	rcx, rax
	mov	rax, rcx
	mov	rcx, rax
	call	?width@ios_base@std@@QEBA_JXZ		; std::ios_base::width
	test	rax, rax
	jle	SHORT $LN17@operator
	mov	rax, QWORD PTR _Ostr$[rsp]
	mov	rax, QWORD PTR [rax]
	movsxd	rax, DWORD PTR [rax+4]
	mov	rcx, QWORD PTR _Ostr$[rsp]
	add	rcx, rax
	mov	rax, rcx
	mov	rcx, rax
	call	?width@ios_base@std@@QEBA_JXZ		; std::ios_base::width
	cmp	rax, QWORD PTR _Count$[rsp]
	jle	SHORT $LN17@operator
	mov	rax, QWORD PTR _Ostr$[rsp]
	mov	rax, QWORD PTR [rax]
	movsxd	rax, DWORD PTR [rax+4]
	mov	rcx, QWORD PTR _Ostr$[rsp]
	add	rcx, rax
	mov	rax, rcx
	mov	rcx, rax
	call	?width@ios_base@std@@QEBA_JXZ		; std::ios_base::width
	sub	rax, QWORD PTR _Count$[rsp]
	mov	QWORD PTR tv137[rsp], rax
	jmp	SHORT $LN18@operator
$LN17@operator:
	mov	QWORD PTR tv137[rsp], 0
$LN18@operator:
	mov	rax, QWORD PTR tv137[rsp]
	mov	QWORD PTR _Pad$[rsp], rax

; 774  :     const typename _Myos::sentry _Ok(_Ostr);

	mov	rdx, QWORD PTR _Ostr$[rsp]
	lea	rcx, QWORD PTR _Ok$[rsp]
	call	??0sentry@?$basic_ostream@DU?$char_traits@D@std@@@std@@QEAA@AEAV12@@Z ; std::basic_ostream<char,std::char_traits<char> >::sentry::sentry
	npad	1

; 775  : 
; 776  :     if (!_Ok) {

	lea	rcx, QWORD PTR _Ok$[rsp]
	call	??Bsentry@?$basic_ostream@DU?$char_traits@D@std@@@std@@QEBA_NXZ ; std::basic_ostream<char,std::char_traits<char> >::sentry::operator bool
	movzx	eax, al
	test	eax, eax
	jne	SHORT $LN8@operator

; 777  :         _State |= ios_base::badbit;

	mov	eax, DWORD PTR _State$[rsp]
	or	eax, 4
	mov	DWORD PTR _State$[rsp], eax

; 778  :     } else { // state okay, insert

	jmp	$LN9@operator
$LN8@operator:

; 779  :         _TRY_IO_BEGIN
; 780  :         if ((_Ostr.flags() & ios_base::adjustfield) != ios_base::left) {

	mov	rax, QWORD PTR _Ostr$[rsp]
	mov	rax, QWORD PTR [rax]
	movsxd	rax, DWORD PTR [rax+4]
	mov	rcx, QWORD PTR _Ostr$[rsp]
	add	rcx, rax
	mov	rax, rcx
	mov	rcx, rax
	call	?flags@ios_base@std@@QEBAHXZ		; std::ios_base::flags
	and	eax, 448				; 000001c0H
	cmp	eax, 64					; 00000040H
	je	$LN11@operator

; 781  :             for (; 0 < _Pad; --_Pad) { // pad on left

	jmp	SHORT $LN4@operator
$LN2@operator:
	mov	rax, QWORD PTR _Pad$[rsp]
	dec	rax
	mov	QWORD PTR _Pad$[rsp], rax
$LN4@operator:
	cmp	QWORD PTR _Pad$[rsp], 0
	jle	$LN11@operator

; 782  :                 if (_Traits::eq_int_type(_Traits::eof(), _Ostr.rdbuf()->sputc(_Ostr.fill()))) {

	mov	rax, QWORD PTR _Ostr$[rsp]
	mov	rax, QWORD PTR [rax]
	movsxd	rax, DWORD PTR [rax+4]
	mov	rcx, QWORD PTR _Ostr$[rsp]
	add	rcx, rax
	mov	rax, rcx
	mov	rcx, rax
	call	?fill@?$basic_ios@DU?$char_traits@D@std@@@std@@QEBADXZ ; std::basic_ios<char,std::char_traits<char> >::fill
	mov	BYTE PTR tv285[rsp], al
	mov	rcx, QWORD PTR _Ostr$[rsp]
	mov	rcx, QWORD PTR [rcx]
	movsxd	rcx, DWORD PTR [rcx+4]
	mov	rdx, QWORD PTR _Ostr$[rsp]
	add	rdx, rcx
	mov	rcx, rdx
	call	?rdbuf@?$basic_ios@DU?$char_traits@D@std@@@std@@QEBAPEAV?$basic_streambuf@DU?$char_traits@D@std@@@2@XZ ; std::basic_ios<char,std::char_traits<char> >::rdbuf
	movzx	ecx, BYTE PTR tv285[rsp]
	movzx	edx, cl
	mov	rcx, rax
	call	?sputc@?$basic_streambuf@DU?$char_traits@D@std@@@std@@QEAAHD@Z ; std::basic_streambuf<char,std::char_traits<char> >::sputc
	mov	DWORD PTR tv139[rsp], eax
	call	?eof@?$_Narrow_char_traits@DH@std@@SAHXZ ; std::_Narrow_char_traits<char,int>::eof
	mov	edx, DWORD PTR tv139[rsp]
	mov	ecx, eax
	call	?eq_int_type@?$_Narrow_char_traits@DH@std@@SA_NHH@Z ; std::_Narrow_char_traits<char,int>::eq_int_type
	movzx	eax, al
	test	eax, eax
	je	SHORT $LN12@operator

; 783  :                     _State |= ios_base::badbit; // insertion failed, quit

	mov	eax, DWORD PTR _State$[rsp]
	or	eax, 4
	mov	DWORD PTR _State$[rsp], eax

; 784  :                     break;

	jmp	SHORT $LN11@operator
$LN12@operator:

; 785  :                 }
; 786  :             }

	jmp	$LN2@operator
$LN11@operator:

; 787  :         }
; 788  : 
; 789  :         if (_State == ios_base::goodbit && _Ostr.rdbuf()->sputn(_Val, _Count) != _Count) {

	cmp	DWORD PTR _State$[rsp], 0
	jne	SHORT $LN13@operator
	mov	rax, QWORD PTR _Ostr$[rsp]
	mov	rax, QWORD PTR [rax]
	movsxd	rax, DWORD PTR [rax+4]
	mov	rcx, QWORD PTR _Ostr$[rsp]
	add	rcx, rax
	mov	rax, rcx
	mov	rcx, rax
	call	?rdbuf@?$basic_ios@DU?$char_traits@D@std@@@std@@QEBAPEAV?$basic_streambuf@DU?$char_traits@D@std@@@2@XZ ; std::basic_ios<char,std::char_traits<char> >::rdbuf
	mov	r8, QWORD PTR _Count$[rsp]
	mov	rdx, QWORD PTR _Val$[rsp]
	mov	rcx, rax
	call	?sputn@?$basic_streambuf@DU?$char_traits@D@std@@@std@@QEAA_JPEBD_J@Z ; std::basic_streambuf<char,std::char_traits<char> >::sputn
	mov	QWORD PTR tv294[rsp], rax
	mov	rax, QWORD PTR _Count$[rsp]
	cmp	QWORD PTR tv294[rsp], rax
	je	SHORT $LN13@operator

; 790  :             _State |= ios_base::badbit;

	mov	eax, DWORD PTR _State$[rsp]
	or	eax, 4
	mov	DWORD PTR _State$[rsp], eax
$LN13@operator:

; 791  :         }
; 792  : 
; 793  :         if (_State == ios_base::goodbit) {

	cmp	DWORD PTR _State$[rsp], 0
	jne	$LN14@operator

; 794  :             for (; 0 < _Pad; --_Pad) { // pad on right

	jmp	SHORT $LN7@operator
$LN5@operator:
	mov	rax, QWORD PTR _Pad$[rsp]
	dec	rax
	mov	QWORD PTR _Pad$[rsp], rax
$LN7@operator:
	cmp	QWORD PTR _Pad$[rsp], 0
	jle	$LN14@operator

; 795  :                 if (_Traits::eq_int_type(_Traits::eof(), _Ostr.rdbuf()->sputc(_Ostr.fill()))) {

	mov	rax, QWORD PTR _Ostr$[rsp]
	mov	rax, QWORD PTR [rax]
	movsxd	rax, DWORD PTR [rax+4]
	mov	rcx, QWORD PTR _Ostr$[rsp]
	add	rcx, rax
	mov	rax, rcx
	mov	rcx, rax
	call	?fill@?$basic_ios@DU?$char_traits@D@std@@@std@@QEBADXZ ; std::basic_ios<char,std::char_traits<char> >::fill
	mov	BYTE PTR tv283[rsp], al
	mov	rcx, QWORD PTR _Ostr$[rsp]
	mov	rcx, QWORD PTR [rcx]
	movsxd	rcx, DWORD PTR [rcx+4]
	mov	rdx, QWORD PTR _Ostr$[rsp]
	add	rdx, rcx
	mov	rcx, rdx
	call	?rdbuf@?$basic_ios@DU?$char_traits@D@std@@@std@@QEBAPEAV?$basic_streambuf@DU?$char_traits@D@std@@@2@XZ ; std::basic_ios<char,std::char_traits<char> >::rdbuf
	movzx	ecx, BYTE PTR tv283[rsp]
	movzx	edx, cl
	mov	rcx, rax
	call	?sputc@?$basic_streambuf@DU?$char_traits@D@std@@@std@@QEAAHD@Z ; std::basic_streambuf<char,std::char_traits<char> >::sputc
	mov	DWORD PTR tv295[rsp], eax
	call	?eof@?$_Narrow_char_traits@DH@std@@SAHXZ ; std::_Narrow_char_traits<char,int>::eof
	mov	edx, DWORD PTR tv295[rsp]
	mov	ecx, eax
	call	?eq_int_type@?$_Narrow_char_traits@DH@std@@SA_NHH@Z ; std::_Narrow_char_traits<char,int>::eq_int_type
	movzx	eax, al
	test	eax, eax
	je	SHORT $LN15@operator

; 796  :                     _State |= ios_base::badbit; // insertion failed, quit

	mov	eax, DWORD PTR _State$[rsp]
	or	eax, 4
	mov	DWORD PTR _State$[rsp], eax

; 797  :                     break;

	jmp	SHORT $LN14@operator
$LN15@operator:

; 798  :                 }
; 799  :             }

	jmp	$LN5@operator
$LN14@operator:

; 800  :         }
; 801  : 
; 802  :         _Ostr.width(0);

	mov	rax, QWORD PTR _Ostr$[rsp]
	mov	rax, QWORD PTR [rax]
	movsxd	rax, DWORD PTR [rax+4]
	mov	rcx, QWORD PTR _Ostr$[rsp]
	add	rcx, rax
	mov	rax, rcx
	xor	edx, edx
	mov	rcx, rax
	call	?width@ios_base@std@@QEAA_J_J@Z		; std::ios_base::width
	npad	1
	jmp	SHORT $LN9@operator
$LN23@operator:
$LN9@operator:

; 803  :         _CATCH_IO_(ios_base, _Ostr)
; 804  :     }
; 805  : 
; 806  :     _Ostr.setstate(_State);

	mov	rax, QWORD PTR _Ostr$[rsp]
	mov	rax, QWORD PTR [rax]
	movsxd	rax, DWORD PTR [rax+4]
	mov	rcx, QWORD PTR _Ostr$[rsp]
	add	rcx, rax
	mov	rax, rcx
	xor	r8d, r8d
	mov	edx, DWORD PTR _State$[rsp]
	mov	rcx, rax
	call	?setstate@?$basic_ios@DU?$char_traits@D@std@@@std@@QEAAXH_N@Z ; std::basic_ios<char,std::char_traits<char> >::setstate

; 807  :     return _Ostr;

	mov	rax, QWORD PTR _Ostr$[rsp]
	mov	QWORD PTR $T1[rsp], rax
	lea	rcx, QWORD PTR _Ok$[rsp]
	call	??1sentry@?$basic_ostream@DU?$char_traits@D@std@@@std@@QEAA@XZ ; std::basic_ostream<char,std::char_traits<char> >::sentry::~sentry
	mov	rax, QWORD PTR $T1[rsp]

; 808  : }

	add	rsp, 120				; 00000078H
	ret	0
??$?6U?$char_traits@D@std@@@std@@YAAEAV?$basic_ostream@DU?$char_traits@D@std@@@0@AEAV10@PEBD@Z ENDP ; std::operator<<<std::char_traits<char> >
_TEXT	ENDS
; Function compile flags: /Odtp
;	COMDAT text$x
text$x	SEGMENT
_State$ = 32
tv285 = 36
tv283 = 37
_Pad$ = 40
_Count$ = 48
tv139 = 56
tv295 = 60
tv137 = 64
tv294 = 72
$T1 = 80
_Ok$ = 88
_Ostr$ = 128
_Val$ = 136
?dtor$0@?0???$?6U?$char_traits@D@std@@@std@@YAAEAV?$basic_ostream@DU?$char_traits@D@std@@@0@AEAV10@PEBD@Z@4HA PROC ; `std::operator<<<std::char_traits<char> >'::`1'::dtor$0
	push	rbp
	sub	rsp, 32					; 00000020H
	mov	rbp, rdx
	lea	rcx, QWORD PTR _Ok$[rbp]
	call	??1sentry@?$basic_ostream@DU?$char_traits@D@std@@@std@@QEAA@XZ ; std::basic_ostream<char,std::char_traits<char> >::sentry::~sentry
	add	rsp, 32					; 00000020H
	pop	rbp
	ret	0
?dtor$0@?0???$?6U?$char_traits@D@std@@@std@@YAAEAV?$basic_ostream@DU?$char_traits@D@std@@@0@AEAV10@PEBD@Z@4HA ENDP ; `std::operator<<<std::char_traits<char> >'::`1'::dtor$0
text$x	ENDS
; Function compile flags: /Odtp
;	COMDAT text$x
text$x	SEGMENT
_State$ = 32
tv285 = 36
tv283 = 37
_Pad$ = 40
_Count$ = 48
tv139 = 56
tv295 = 60
tv137 = 64
tv294 = 72
$T1 = 80
_Ok$ = 88
_Ostr$ = 128
_Val$ = 136
?catch$1@?0???$?6U?$char_traits@D@std@@@std@@YAAEAV?$basic_ostream@DU?$char_traits@D@std@@@0@AEAV10@PEBD@Z@4HA PROC ; `std::operator<<<std::char_traits<char> >'::`1'::catch$1

; 803  :         _CATCH_IO_(ios_base, _Ostr)

	mov	QWORD PTR [rsp+16], rdx
	push	rbp
	sub	rsp, 32					; 00000020H
	mov	rbp, rdx
__catch$??$?6U?$char_traits@D@std@@@std@@YAAEAV?$basic_ostream@DU?$char_traits@D@std@@@0@AEAV10@PEBD@Z$0:
	mov	rax, QWORD PTR _Ostr$[rbp]
	mov	rax, QWORD PTR [rax]
	movsxd	rax, DWORD PTR [rax+4]
	mov	rcx, QWORD PTR _Ostr$[rbp]
	add	rcx, rax
	mov	rax, rcx
	mov	r8b, 1
	mov	edx, 4
	mov	rcx, rax
	call	?setstate@?$basic_ios@DU?$char_traits@D@std@@@std@@QEAAXH_N@Z ; std::basic_ios<char,std::char_traits<char> >::setstate
	npad	1
	lea	rax, $LN23@catch$1
	add	rsp, 32					; 00000020H
	pop	rbp
	ret	0
	int	3
?catch$1@?0???$?6U?$char_traits@D@std@@@std@@YAAEAV?$basic_ostream@DU?$char_traits@D@std@@@0@AEAV10@PEBD@Z@4HA ENDP ; `std::operator<<<std::char_traits<char> >'::`1'::catch$1
text$x	ENDS
; Function compile flags: /Odtp
; File F:\software installation\Visual Studio Installation\VC\Tools\MSVC\14.38.33130\include\ostream
;	COMDAT ?flush@?$basic_ostream@DU?$char_traits@D@std@@@std@@QEAAAEAV12@XZ
_TEXT	SEGMENT
_State$1 = 32
tv78 = 36
_Rdbuf$ = 40
_Ok$2 = 48
this$ = 80
?flush@?$basic_ostream@DU?$char_traits@D@std@@@std@@QEAAAEAV12@XZ PROC ; std::basic_ostream<char,std::char_traits<char> >::flush, COMDAT

; 560  :     basic_ostream& __CLR_OR_THIS_CALL flush() { // flush output stream

$LN13:
	mov	QWORD PTR [rsp+8], rcx
	sub	rsp, 72					; 00000048H

; 561  :         const auto _Rdbuf = _Myios::rdbuf();

	mov	rax, QWORD PTR this$[rsp]
	mov	rax, QWORD PTR [rax]
	movsxd	rax, DWORD PTR [rax+4]
	mov	rcx, QWORD PTR this$[rsp]
	add	rcx, rax
	mov	rax, rcx
	mov	rcx, rax
	call	?rdbuf@?$basic_ios@DU?$char_traits@D@std@@@std@@QEBAPEAV?$basic_streambuf@DU?$char_traits@D@std@@@2@XZ ; std::basic_ios<char,std::char_traits<char> >::rdbuf
	mov	QWORD PTR _Rdbuf$[rsp], rax

; 562  :         if (_Rdbuf) { // buffer exists, flush it

	cmp	QWORD PTR _Rdbuf$[rsp], 0
	je	SHORT $LN2@flush

; 563  :             const sentry _Ok(*this);

	mov	rdx, QWORD PTR this$[rsp]
	lea	rcx, QWORD PTR _Ok$2[rsp]
	call	??0sentry@?$basic_ostream@DU?$char_traits@D@std@@@std@@QEAA@AEAV12@@Z ; std::basic_ostream<char,std::char_traits<char> >::sentry::sentry
	npad	1

; 564  : 
; 565  :             if (_Ok) {

	lea	rcx, QWORD PTR _Ok$2[rsp]
	call	??Bsentry@?$basic_ostream@DU?$char_traits@D@std@@@std@@QEBA_NXZ ; std::basic_ostream<char,std::char_traits<char> >::sentry::operator bool
	movzx	eax, al
	test	eax, eax
	je	SHORT $LN3@flush

; 566  :                 ios_base::iostate _State = ios_base::goodbit;

	mov	DWORD PTR _State$1[rsp], 0

; 567  :                 _TRY_IO_BEGIN
; 568  :                 if (_Rdbuf->pubsync() == -1) {

	mov	rcx, QWORD PTR _Rdbuf$[rsp]
	call	?pubsync@?$basic_streambuf@DU?$char_traits@D@std@@@std@@QEAAHXZ ; std::basic_streambuf<char,std::char_traits<char> >::pubsync
	mov	DWORD PTR tv78[rsp], eax
	cmp	DWORD PTR tv78[rsp], -1
	jne	SHORT $LN5@flush

; 569  :                     _State |= ios_base::badbit; // sync failed

	mov	eax, DWORD PTR _State$1[rsp]
	or	eax, 4
	mov	DWORD PTR _State$1[rsp], eax
$LN5@flush:
	jmp	SHORT $LN10@flush
$LN11@flush:
$LN10@flush:

; 570  :                 }
; 571  :                 _CATCH_IO_END
; 572  :                 _Myios::setstate(_State);

	mov	rax, QWORD PTR this$[rsp]
	mov	rax, QWORD PTR [rax]
	movsxd	rax, DWORD PTR [rax+4]
	mov	rcx, QWORD PTR this$[rsp]
	add	rcx, rax
	mov	rax, rcx
	xor	r8d, r8d
	mov	edx, DWORD PTR _State$1[rsp]
	mov	rcx, rax
	call	?setstate@?$basic_ios@DU?$char_traits@D@std@@@std@@QEAAXH_N@Z ; std::basic_ios<char,std::char_traits<char> >::setstate
	npad	1
$LN3@flush:

; 573  :             }
; 574  :         }

	lea	rcx, QWORD PTR _Ok$2[rsp]
	call	??1sentry@?$basic_ostream@DU?$char_traits@D@std@@@std@@QEAA@XZ ; std::basic_ostream<char,std::char_traits<char> >::sentry::~sentry
$LN2@flush:

; 575  :         return *this;

	mov	rax, QWORD PTR this$[rsp]

; 576  :     }

	add	rsp, 72					; 00000048H
	ret	0
?flush@?$basic_ostream@DU?$char_traits@D@std@@@std@@QEAAAEAV12@XZ ENDP ; std::basic_ostream<char,std::char_traits<char> >::flush
_TEXT	ENDS
; Function compile flags: /Odtp
;	COMDAT text$x
text$x	SEGMENT
_State$1 = 32
tv78 = 36
_Rdbuf$ = 40
_Ok$2 = 48
this$ = 80
?dtor$0@?0??flush@?$basic_ostream@DU?$char_traits@D@std@@@std@@QEAAAEAV12@XZ@4HA PROC ; `std::basic_ostream<char,std::char_traits<char> >::flush'::`1'::dtor$0
	push	rbp
	sub	rsp, 32					; 00000020H
	mov	rbp, rdx
	lea	rcx, QWORD PTR _Ok$2[rbp]
	call	??1sentry@?$basic_ostream@DU?$char_traits@D@std@@@std@@QEAA@XZ ; std::basic_ostream<char,std::char_traits<char> >::sentry::~sentry
	add	rsp, 32					; 00000020H
	pop	rbp
	ret	0
?dtor$0@?0??flush@?$basic_ostream@DU?$char_traits@D@std@@@std@@QEAAAEAV12@XZ@4HA ENDP ; `std::basic_ostream<char,std::char_traits<char> >::flush'::`1'::dtor$0
text$x	ENDS
; Function compile flags: /Odtp
;	COMDAT text$x
text$x	SEGMENT
_State$1 = 32
tv78 = 36
_Rdbuf$ = 40
_Ok$2 = 48
this$ = 80
?catch$1@?0??flush@?$basic_ostream@DU?$char_traits@D@std@@@std@@QEAAAEAV12@XZ@4HA PROC ; `std::basic_ostream<char,std::char_traits<char> >::flush'::`1'::catch$1

; 571  :                 _CATCH_IO_END

	mov	QWORD PTR [rsp+16], rdx
	push	rbp
	sub	rsp, 32					; 00000020H
	mov	rbp, rdx
__catch$?flush@?$basic_ostream@DU?$char_traits@D@std@@@std@@QEAAAEAV12@XZ$0:
	mov	rax, QWORD PTR this$[rbp]
	mov	rax, QWORD PTR [rax]
	movsxd	rax, DWORD PTR [rax+4]
	mov	rcx, QWORD PTR this$[rbp]
	add	rcx, rax
	mov	rax, rcx
	mov	r8b, 1
	mov	edx, 4
	mov	rcx, rax
	call	?setstate@?$basic_ios@DU?$char_traits@D@std@@@std@@QEAAXH_N@Z ; std::basic_ios<char,std::char_traits<char> >::setstate
	npad	1
	lea	rax, $LN11@catch$1
	add	rsp, 32					; 00000020H
	pop	rbp
	ret	0
	int	3
?catch$1@?0??flush@?$basic_ostream@DU?$char_traits@D@std@@@std@@QEAAAEAV12@XZ@4HA ENDP ; `std::basic_ostream<char,std::char_traits<char> >::flush'::`1'::catch$1
text$x	ENDS
; Function compile flags: /Odtp
; File F:\software installation\Visual Studio Installation\VC\Tools\MSVC\14.38.33130\include\ostream
;	COMDAT ?put@?$basic_ostream@DU?$char_traits@D@std@@@std@@QEAAAEAV12@D@Z
_TEXT	SEGMENT
_State$ = 32
tv65 = 36
$T1 = 40
_Ok$ = 48
this$ = 80
_Ch$ = 88
?put@?$basic_ostream@DU?$char_traits@D@std@@@std@@QEAAAEAV12@D@Z PROC ; std::basic_ostream<char,std::char_traits<char> >::put, COMDAT

; 523  :     basic_ostream& __CLR_OR_THIS_CALL put(_Elem _Ch) { // insert a character

$LN13:
	mov	BYTE PTR [rsp+16], dl
	mov	QWORD PTR [rsp+8], rcx
	sub	rsp, 72					; 00000048H

; 524  :         ios_base::iostate _State = ios_base::goodbit;

	mov	DWORD PTR _State$[rsp], 0

; 525  :         const sentry _Ok(*this);

	mov	rdx, QWORD PTR this$[rsp]
	lea	rcx, QWORD PTR _Ok$[rsp]
	call	??0sentry@?$basic_ostream@DU?$char_traits@D@std@@@std@@QEAA@AEAV12@@Z ; std::basic_ostream<char,std::char_traits<char> >::sentry::sentry
	npad	1

; 526  : 
; 527  :         if (!_Ok) {

	lea	rcx, QWORD PTR _Ok$[rsp]
	call	??Bsentry@?$basic_ostream@DU?$char_traits@D@std@@@std@@QEBA_NXZ ; std::basic_ostream<char,std::char_traits<char> >::sentry::operator bool
	movzx	eax, al
	test	eax, eax
	jne	SHORT $LN2@put

; 528  :             _State |= ios_base::badbit;

	mov	eax, DWORD PTR _State$[rsp]
	or	eax, 4
	mov	DWORD PTR _State$[rsp], eax

; 529  :         } else { // state okay, insert character

	jmp	SHORT $LN3@put
$LN2@put:

; 530  :             _TRY_IO_BEGIN
; 531  :             if (_Traits::eq_int_type(_Traits::eof(), _Myios::rdbuf()->sputc(_Ch))) {

	mov	rax, QWORD PTR this$[rsp]
	mov	rax, QWORD PTR [rax]
	movsxd	rax, DWORD PTR [rax+4]
	mov	rcx, QWORD PTR this$[rsp]
	add	rcx, rax
	mov	rax, rcx
	mov	rcx, rax
	call	?rdbuf@?$basic_ios@DU?$char_traits@D@std@@@std@@QEBAPEAV?$basic_streambuf@DU?$char_traits@D@std@@@2@XZ ; std::basic_ios<char,std::char_traits<char> >::rdbuf
	movzx	edx, BYTE PTR _Ch$[rsp]
	mov	rcx, rax
	call	?sputc@?$basic_streambuf@DU?$char_traits@D@std@@@std@@QEAAHD@Z ; std::basic_streambuf<char,std::char_traits<char> >::sputc
	mov	DWORD PTR tv65[rsp], eax
	call	?eof@?$_Narrow_char_traits@DH@std@@SAHXZ ; std::_Narrow_char_traits<char,int>::eof
	mov	edx, DWORD PTR tv65[rsp]
	mov	ecx, eax
	call	?eq_int_type@?$_Narrow_char_traits@DH@std@@SA_NHH@Z ; std::_Narrow_char_traits<char,int>::eq_int_type
	movzx	eax, al
	test	eax, eax
	je	SHORT $LN5@put

; 532  :                 _State |= ios_base::badbit;

	mov	eax, DWORD PTR _State$[rsp]
	or	eax, 4
	mov	DWORD PTR _State$[rsp], eax
$LN5@put:
	jmp	SHORT $LN3@put
$LN11@put:
$LN3@put:

; 533  :             }
; 534  :             _CATCH_IO_END
; 535  :         }
; 536  : 
; 537  :         _Myios::setstate(_State);

	mov	rax, QWORD PTR this$[rsp]
	mov	rax, QWORD PTR [rax]
	movsxd	rax, DWORD PTR [rax+4]
	mov	rcx, QWORD PTR this$[rsp]
	add	rcx, rax
	mov	rax, rcx
	xor	r8d, r8d
	mov	edx, DWORD PTR _State$[rsp]
	mov	rcx, rax
	call	?setstate@?$basic_ios@DU?$char_traits@D@std@@@std@@QEAAXH_N@Z ; std::basic_ios<char,std::char_traits<char> >::setstate

; 538  :         return *this;

	mov	rax, QWORD PTR this$[rsp]
	mov	QWORD PTR $T1[rsp], rax
	lea	rcx, QWORD PTR _Ok$[rsp]
	call	??1sentry@?$basic_ostream@DU?$char_traits@D@std@@@std@@QEAA@XZ ; std::basic_ostream<char,std::char_traits<char> >::sentry::~sentry
	mov	rax, QWORD PTR $T1[rsp]

; 539  :     }

	add	rsp, 72					; 00000048H
	ret	0
?put@?$basic_ostream@DU?$char_traits@D@std@@@std@@QEAAAEAV12@D@Z ENDP ; std::basic_ostream<char,std::char_traits<char> >::put
_TEXT	ENDS
; Function compile flags: /Odtp
;	COMDAT text$x
text$x	SEGMENT
_State$ = 32
tv65 = 36
$T1 = 40
_Ok$ = 48
this$ = 80
_Ch$ = 88
?dtor$0@?0??put@?$basic_ostream@DU?$char_traits@D@std@@@std@@QEAAAEAV12@D@Z@4HA PROC ; `std::basic_ostream<char,std::char_traits<char> >::put'::`1'::dtor$0
	push	rbp
	sub	rsp, 32					; 00000020H
	mov	rbp, rdx
	lea	rcx, QWORD PTR _Ok$[rbp]
	call	??1sentry@?$basic_ostream@DU?$char_traits@D@std@@@std@@QEAA@XZ ; std::basic_ostream<char,std::char_traits<char> >::sentry::~sentry
	add	rsp, 32					; 00000020H
	pop	rbp
	ret	0
?dtor$0@?0??put@?$basic_ostream@DU?$char_traits@D@std@@@std@@QEAAAEAV12@D@Z@4HA ENDP ; `std::basic_ostream<char,std::char_traits<char> >::put'::`1'::dtor$0
text$x	ENDS
; Function compile flags: /Odtp
;	COMDAT text$x
text$x	SEGMENT
_State$ = 32
tv65 = 36
$T1 = 40
_Ok$ = 48
this$ = 80
_Ch$ = 88
?catch$1@?0??put@?$basic_ostream@DU?$char_traits@D@std@@@std@@QEAAAEAV12@D@Z@4HA PROC ; `std::basic_ostream<char,std::char_traits<char> >::put'::`1'::catch$1

; 534  :             _CATCH_IO_END

	mov	QWORD PTR [rsp+16], rdx
	push	rbp
	sub	rsp, 32					; 00000020H
	mov	rbp, rdx
__catch$?put@?$basic_ostream@DU?$char_traits@D@std@@@std@@QEAAAEAV12@D@Z$0:
	mov	rax, QWORD PTR this$[rbp]
	mov	rax, QWORD PTR [rax]
	movsxd	rax, DWORD PTR [rax+4]
	mov	rcx, QWORD PTR this$[rbp]
	add	rcx, rax
	mov	rax, rcx
	mov	r8b, 1
	mov	edx, 4
	mov	rcx, rax
	call	?setstate@?$basic_ios@DU?$char_traits@D@std@@@std@@QEAAXH_N@Z ; std::basic_ios<char,std::char_traits<char> >::setstate
	npad	1
	lea	rax, $LN11@catch$1
	add	rsp, 32					; 00000020H
	pop	rbp
	ret	0
	int	3
?catch$1@?0??put@?$basic_ostream@DU?$char_traits@D@std@@@std@@QEAAAEAV12@D@Z@4HA ENDP ; `std::basic_ostream<char,std::char_traits<char> >::put'::`1'::catch$1
text$x	ENDS
; Function compile flags: /Odtp
; File F:\software installation\Visual Studio Installation\VC\Tools\MSVC\14.38.33130\include\ostream
;	COMDAT ??6?$basic_ostream@DU?$char_traits@D@std@@@std@@QEAAAEAV01@P6AAEAV01@AEAV01@@Z@Z
_TEXT	SEGMENT
this$ = 48
_Pfn$ = 56
??6?$basic_ostream@DU?$char_traits@D@std@@@std@@QEAAAEAV01@P6AAEAV01@AEAV01@@Z@Z PROC ; std::basic_ostream<char,std::char_traits<char> >::operator<<, COMDAT

; 189  :     basic_ostream& __CLR_OR_THIS_CALL operator<<(basic_ostream&(__cdecl* _Pfn)(basic_ostream&) ) {

$LN3:
	mov	QWORD PTR [rsp+16], rdx
	mov	QWORD PTR [rsp+8], rcx
	sub	rsp, 40					; 00000028H

; 190  :         // call basic_ostream manipulator
; 191  :         return _Pfn(*this);

	mov	rcx, QWORD PTR this$[rsp]
	call	QWORD PTR _Pfn$[rsp]

; 192  :     }

	add	rsp, 40					; 00000028H
	ret	0
??6?$basic_ostream@DU?$char_traits@D@std@@@std@@QEAAAEAV01@P6AAEAV01@AEAV01@@Z@Z ENDP ; std::basic_ostream<char,std::char_traits<char> >::operator<<
_TEXT	ENDS
; Function compile flags: /Odtp
; File F:\software installation\Visual Studio Installation\VC\Tools\MSVC\14.38.33130\include\ostream
;	COMDAT ?_Osfx@?$basic_ostream@DU?$char_traits@D@std@@@std@@QEAAXXZ
_TEXT	SEGMENT
tv153 = 32
this$ = 64
?_Osfx@?$basic_ostream@DU?$char_traits@D@std@@@std@@QEAAXXZ PROC ; std::basic_ostream<char,std::char_traits<char> >::_Osfx, COMDAT

; 159  :     void __CLR_OR_THIS_CALL _Osfx() noexcept { // perform any wrapup

$LN11:
	mov	QWORD PTR [rsp+8], rcx
	sub	rsp, 56					; 00000038H

; 160  :         _TRY_BEGIN
; 161  :         if (this->good() && this->flags() & ios_base::unitbuf) {

	mov	rax, QWORD PTR this$[rsp]
	mov	rax, QWORD PTR [rax]
	movsxd	rax, DWORD PTR [rax+4]
	mov	rcx, QWORD PTR this$[rsp]
	add	rcx, rax
	mov	rax, rcx
	mov	rcx, rax
	call	?good@ios_base@std@@QEBA_NXZ		; std::ios_base::good
	movzx	eax, al
	test	eax, eax
	je	$LN3@Osfx
	mov	rax, QWORD PTR this$[rsp]
	mov	rax, QWORD PTR [rax]
	movsxd	rax, DWORD PTR [rax+4]
	mov	rcx, QWORD PTR this$[rsp]
	add	rcx, rax
	mov	rax, rcx
	mov	rcx, rax
	call	?flags@ios_base@std@@QEBAHXZ		; std::ios_base::flags
	and	eax, 2
	test	eax, eax
	je	SHORT $LN3@Osfx

; 162  :             if (_Myios::rdbuf()->pubsync() == -1) { // flush stream as needed

	mov	rax, QWORD PTR this$[rsp]
	mov	rax, QWORD PTR [rax]
	movsxd	rax, DWORD PTR [rax+4]
	mov	rcx, QWORD PTR this$[rsp]
	add	rcx, rax
	mov	rax, rcx
	mov	rcx, rax
	call	?rdbuf@?$basic_ios@DU?$char_traits@D@std@@@std@@QEBAPEAV?$basic_streambuf@DU?$char_traits@D@std@@@2@XZ ; std::basic_ios<char,std::char_traits<char> >::rdbuf
	mov	rcx, rax
	call	?pubsync@?$basic_streambuf@DU?$char_traits@D@std@@@std@@QEAAHXZ ; std::basic_streambuf<char,std::char_traits<char> >::pubsync
	mov	DWORD PTR tv153[rsp], eax
	cmp	DWORD PTR tv153[rsp], -1
	jne	SHORT $LN3@Osfx

; 163  :                 _Myios::setstate(ios_base::badbit);

	mov	rax, QWORD PTR this$[rsp]
	mov	rax, QWORD PTR [rax]
	movsxd	rax, DWORD PTR [rax+4]
	mov	rcx, QWORD PTR this$[rsp]
	add	rcx, rax
	mov	rax, rcx
	xor	r8d, r8d
	mov	edx, 4
	mov	rcx, rax
	call	?setstate@?$basic_ios@DU?$char_traits@D@std@@@std@@QEAAXH_N@Z ; std::basic_ios<char,std::char_traits<char> >::setstate
	npad	1
$LN3@Osfx:
	jmp	SHORT $LN8@Osfx
$LN9@Osfx:
$LN8@Osfx:

; 164  :             }
; 165  :         }
; 166  :         _CATCH_ALL
; 167  :         _CATCH_END
; 168  :     }

	add	rsp, 56					; 00000038H
	ret	0
?_Osfx@?$basic_ostream@DU?$char_traits@D@std@@@std@@QEAAXXZ ENDP ; std::basic_ostream<char,std::char_traits<char> >::_Osfx
_TEXT	ENDS
; Function compile flags: /Odtp
;	COMDAT text$x
text$x	SEGMENT
tv153 = 32
this$ = 64
?catch$0@?0??_Osfx@?$basic_ostream@DU?$char_traits@D@std@@@std@@QEAAXXZ@4HA PROC ; `std::basic_ostream<char,std::char_traits<char> >::_Osfx'::`1'::catch$0

; 166  :         _CATCH_ALL

	mov	QWORD PTR [rsp+16], rdx
	push	rbp
	sub	rsp, 32					; 00000020H
	mov	rbp, rdx
__catch$?_Osfx@?$basic_ostream@DU?$char_traits@D@std@@@std@@QEAAXXZ$0:

; 167  :         _CATCH_END

	lea	rax, $LN9@catch$0
	add	rsp, 32					; 00000020H
	pop	rbp
	ret	0
	int	3
?catch$0@?0??_Osfx@?$basic_ostream@DU?$char_traits@D@std@@@std@@QEAAXXZ@4HA ENDP ; `std::basic_ostream<char,std::char_traits<char> >::_Osfx'::`1'::catch$0
text$x	ENDS
; Function compile flags: /Odtp
; File F:\software installation\Visual Studio Installation\VC\Tools\MSVC\14.38.33130\include\ios
;	COMDAT ?widen@?$basic_ios@DU?$char_traits@D@std@@@std@@QEBADD@Z
_TEXT	SEGMENT
$T1 = 32
tv80 = 40
tv79 = 48
$T2 = 56
this$ = 96
_Byte$ = 104
?widen@?$basic_ios@DU?$char_traits@D@std@@@std@@QEBADD@Z PROC ; std::basic_ios<char,std::char_traits<char> >::widen, COMDAT

; 112  :     _Elem __CLR_OR_THIS_CALL widen(char _Byte) const { // convert _Byte to character using imbued locale

$LN4:
	mov	BYTE PTR [rsp+16], dl
	mov	QWORD PTR [rsp+8], rcx
	sub	rsp, 88					; 00000058H

; 113  :         return _STD use_facet<_Ctype>(getloc()).widen(_Byte);

	lea	rdx, QWORD PTR $T2[rsp]
	mov	rcx, QWORD PTR this$[rsp]
	call	?getloc@ios_base@std@@QEBA?AVlocale@2@XZ ; std::ios_base::getloc
	mov	QWORD PTR tv80[rsp], rax
	mov	rax, QWORD PTR tv80[rsp]
	mov	QWORD PTR tv79[rsp], rax
	mov	rcx, QWORD PTR tv79[rsp]
	call	??$use_facet@V?$ctype@D@std@@@std@@YAAEBV?$ctype@D@0@AEBVlocale@0@@Z ; std::use_facet<std::ctype<char> >
	movzx	edx, BYTE PTR _Byte$[rsp]
	mov	rcx, rax
	call	?widen@?$ctype@D@std@@QEBADD@Z		; std::ctype<char>::widen
	mov	BYTE PTR $T1[rsp], al
	lea	rcx, QWORD PTR $T2[rsp]
	call	??1locale@std@@QEAA@XZ			; std::locale::~locale
	movzx	eax, BYTE PTR $T1[rsp]

; 114  :     }

	add	rsp, 88					; 00000058H
	ret	0
?widen@?$basic_ios@DU?$char_traits@D@std@@@std@@QEBADD@Z ENDP ; std::basic_ios<char,std::char_traits<char> >::widen
_TEXT	ENDS
; Function compile flags: /Odtp
;	COMDAT text$x
text$x	SEGMENT
$T1 = 32
tv80 = 40
tv79 = 48
$T2 = 56
this$ = 96
_Byte$ = 104
?dtor$0@?0??widen@?$basic_ios@DU?$char_traits@D@std@@@std@@QEBADD@Z@4HA PROC ; `std::basic_ios<char,std::char_traits<char> >::widen'::`1'::dtor$0
	push	rbp
	sub	rsp, 32					; 00000020H
	mov	rbp, rdx
	lea	rcx, QWORD PTR $T2[rbp]
	call	??1locale@std@@QEAA@XZ			; std::locale::~locale
	add	rsp, 32					; 00000020H
	pop	rbp
	ret	0
?dtor$0@?0??widen@?$basic_ios@DU?$char_traits@D@std@@@std@@QEBADD@Z@4HA ENDP ; `std::basic_ios<char,std::char_traits<char> >::widen'::`1'::dtor$0
text$x	ENDS
; Function compile flags: /Odtp
; File F:\software installation\Visual Studio Installation\VC\Tools\MSVC\14.38.33130\include\ios
;	COMDAT ?fill@?$basic_ios@DU?$char_traits@D@std@@@std@@QEBADXZ
_TEXT	SEGMENT
this$ = 8
?fill@?$basic_ios@DU?$char_traits@D@std@@@std@@QEBADXZ PROC ; std::basic_ios<char,std::char_traits<char> >::fill, COMDAT

; 98   :     _Elem __CLR_OR_THIS_CALL fill() const noexcept /* strengthened */ {

	mov	QWORD PTR [rsp+8], rcx

; 99   :         return _Fillch;

	mov	rax, QWORD PTR this$[rsp]
	movzx	eax, BYTE PTR [rax+88]

; 100  :     }

	ret	0
?fill@?$basic_ios@DU?$char_traits@D@std@@@std@@QEBADXZ ENDP ; std::basic_ios<char,std::char_traits<char> >::fill
_TEXT	ENDS
; Function compile flags: /Odtp
; File F:\software installation\Visual Studio Installation\VC\Tools\MSVC\14.38.33130\include\ios
;	COMDAT ?rdbuf@?$basic_ios@DU?$char_traits@D@std@@@std@@QEBAPEAV?$basic_streambuf@DU?$char_traits@D@std@@@2@XZ
_TEXT	SEGMENT
this$ = 8
?rdbuf@?$basic_ios@DU?$char_traits@D@std@@@std@@QEBAPEAV?$basic_streambuf@DU?$char_traits@D@std@@@2@XZ PROC ; std::basic_ios<char,std::char_traits<char> >::rdbuf, COMDAT

; 77   :     _NODISCARD _Mysb* __CLR_OR_THIS_CALL rdbuf() const noexcept /* strengthened */ {

	mov	QWORD PTR [rsp+8], rcx

; 78   :         return _Mystrbuf;

	mov	rax, QWORD PTR this$[rsp]
	mov	rax, QWORD PTR [rax+72]

; 79   :     }

	ret	0
?rdbuf@?$basic_ios@DU?$char_traits@D@std@@@std@@QEBAPEAV?$basic_streambuf@DU?$char_traits@D@std@@@2@XZ ENDP ; std::basic_ios<char,std::char_traits<char> >::rdbuf
_TEXT	ENDS
; Function compile flags: /Odtp
; File F:\software installation\Visual Studio Installation\VC\Tools\MSVC\14.38.33130\include\ios
;	COMDAT ?tie@?$basic_ios@DU?$char_traits@D@std@@@std@@QEBAPEAV?$basic_ostream@DU?$char_traits@D@std@@@2@XZ
_TEXT	SEGMENT
this$ = 8
?tie@?$basic_ios@DU?$char_traits@D@std@@@std@@QEBAPEAV?$basic_ostream@DU?$char_traits@D@std@@@2@XZ PROC ; std::basic_ios<char,std::char_traits<char> >::tie, COMDAT

; 67   :     _Myos* __CLR_OR_THIS_CALL tie() const noexcept /* strengthened */ {

	mov	QWORD PTR [rsp+8], rcx

; 68   :         return _Tiestr;

	mov	rax, QWORD PTR this$[rsp]
	mov	rax, QWORD PTR [rax+80]

; 69   :     }

	ret	0
?tie@?$basic_ios@DU?$char_traits@D@std@@@std@@QEBAPEAV?$basic_ostream@DU?$char_traits@D@std@@@2@XZ ENDP ; std::basic_ios<char,std::char_traits<char> >::tie
_TEXT	ENDS
; Function compile flags: /Odtp
; File F:\software installation\Visual Studio Installation\VC\Tools\MSVC\14.38.33130\include\ios
;	COMDAT ?setstate@?$basic_ios@DU?$char_traits@D@std@@@std@@QEAAXH_N@Z
_TEXT	SEGMENT
this$ = 48
_State$ = 56
_Reraise$ = 64
?setstate@?$basic_ios@DU?$char_traits@D@std@@@std@@QEAAXH_N@Z PROC ; std::basic_ios<char,std::char_traits<char> >::setstate, COMDAT

; 49   :     void __CLR_OR_THIS_CALL setstate(iostate _State, bool _Reraise = false) {

$LN3:
	mov	BYTE PTR [rsp+24], r8b
	mov	DWORD PTR [rsp+16], edx
	mov	QWORD PTR [rsp+8], rcx
	sub	rsp, 40					; 00000028H

; 50   :         // merge _State into state, possibly reraise exception
; 51   :         clear(rdstate() | _State, _Reraise);

	mov	rcx, QWORD PTR this$[rsp]
	call	?rdstate@ios_base@std@@QEBAHXZ		; std::ios_base::rdstate
	or	eax, DWORD PTR _State$[rsp]
	movzx	r8d, BYTE PTR _Reraise$[rsp]
	mov	edx, eax
	mov	rcx, QWORD PTR this$[rsp]
	call	?clear@?$basic_ios@DU?$char_traits@D@std@@@std@@QEAAXH_N@Z ; std::basic_ios<char,std::char_traits<char> >::clear

; 52   :     }

	add	rsp, 40					; 00000028H
	ret	0
?setstate@?$basic_ios@DU?$char_traits@D@std@@@std@@QEAAXH_N@Z ENDP ; std::basic_ios<char,std::char_traits<char> >::setstate
_TEXT	ENDS
; Function compile flags: /Odtp
; File F:\software installation\Visual Studio Installation\VC\Tools\MSVC\14.38.33130\include\ios
;	COMDAT ?clear@?$basic_ios@DU?$char_traits@D@std@@@std@@QEAAXH_N@Z
_TEXT	SEGMENT
tv72 = 32
this$ = 64
_State$ = 72
_Reraise$ = 80
?clear@?$basic_ios@DU?$char_traits@D@std@@@std@@QEAAXH_N@Z PROC ; std::basic_ios<char,std::char_traits<char> >::clear, COMDAT

; 38   :     void __CLR_OR_THIS_CALL clear(iostate _State = goodbit, bool _Reraise = false) {

$LN5:
	mov	BYTE PTR [rsp+24], r8b
	mov	DWORD PTR [rsp+16], edx
	mov	QWORD PTR [rsp+8], rcx
	sub	rsp, 56					; 00000038H

; 39   :         // set state, possibly reraise exception
; 40   :         ios_base::clear(_State | (_Mystrbuf ? ios_base::_Iostate{} : ios_base::badbit), _Reraise);

	mov	rax, QWORD PTR this$[rsp]
	cmp	QWORD PTR [rax+72], 0
	je	SHORT $LN3@clear
	mov	DWORD PTR tv72[rsp], 0
	jmp	SHORT $LN4@clear
$LN3@clear:
	mov	DWORD PTR tv72[rsp], 4
$LN4@clear:
	mov	eax, DWORD PTR tv72[rsp]
	mov	ecx, DWORD PTR _State$[rsp]
	or	ecx, eax
	mov	eax, ecx
	movzx	r8d, BYTE PTR _Reraise$[rsp]
	mov	edx, eax
	mov	rcx, QWORD PTR this$[rsp]
	call	?clear@ios_base@std@@QEAAXH_N@Z		; std::ios_base::clear

; 41   :     }

	add	rsp, 56					; 00000038H
	ret	0
?clear@?$basic_ios@DU?$char_traits@D@std@@@std@@QEAAXH_N@Z ENDP ; std::basic_ios<char,std::char_traits<char> >::clear
_TEXT	ENDS
; Function compile flags: /Odtp
; File F:\hand-made-hero\06-07-25\hello_assembly.cpp
_TEXT	SEGMENT
main	PROC

; 5    : {

$LN3:
	sub	rsp, 40					; 00000028H

; 6    :     cout << "Hello" << endl;

	lea	rdx, OFFSET FLAT:$SG60283
	lea	rcx, OFFSET FLAT:?cout@std@@3V?$basic_ostream@DU?$char_traits@D@std@@@1@A ; std::cout
	call	??$?6U?$char_traits@D@std@@@std@@YAAEAV?$basic_ostream@DU?$char_traits@D@std@@@0@AEAV10@PEBD@Z ; std::operator<<<std::char_traits<char> >
	lea	rdx, OFFSET FLAT:??$endl@DU?$char_traits@D@std@@@std@@YAAEAV?$basic_ostream@DU?$char_traits@D@std@@@0@AEAV10@@Z ; std::endl<char,std::char_traits<char> >
	mov	rcx, rax
	call	??6?$basic_ostream@DU?$char_traits@D@std@@@std@@QEAAAEAV01@P6AAEAV01@AEAV01@@Z@Z ; std::basic_ostream<char,std::char_traits<char> >::operator<<

; 7    : }

	xor	eax, eax
	add	rsp, 40					; 00000028H
	ret	0
main	ENDP
_TEXT	ENDS
; Function compile flags: /Odtp
; File F:\software installation\Visual Studio Installation\VC\Tools\MSVC\14.38.33130\include\xiosbase
;	COMDAT ?getloc@ios_base@std@@QEBA?AVlocale@2@XZ
_TEXT	SEGMENT
this$ = 48
__$ReturnUdt$ = 56
?getloc@ios_base@std@@QEBA?AVlocale@2@XZ PROC		; std::ios_base::getloc, COMDAT

; 299  :     _NODISCARD locale __CLR_OR_THIS_CALL getloc() const noexcept /* strengthened */ { // get locale

$LN3:
	mov	QWORD PTR [rsp+16], rdx
	mov	QWORD PTR [rsp+8], rcx
	sub	rsp, 40					; 00000028H

; 300  :         return *_Ploc;

	mov	rax, QWORD PTR this$[rsp]
	mov	rdx, QWORD PTR [rax+64]
	mov	rcx, QWORD PTR __$ReturnUdt$[rsp]
	call	??0locale@std@@QEAA@AEBV01@@Z		; std::locale::locale
	mov	rax, QWORD PTR __$ReturnUdt$[rsp]

; 301  :     }

	add	rsp, 40					; 00000028H
	ret	0
?getloc@ios_base@std@@QEBA?AVlocale@2@XZ ENDP		; std::ios_base::getloc
_TEXT	ENDS
; Function compile flags: /Odtp
; File F:\software installation\Visual Studio Installation\VC\Tools\MSVC\14.38.33130\include\xiosbase
;	COMDAT ?width@ios_base@std@@QEAA_J_J@Z
_TEXT	SEGMENT
_Oldwidth$ = 0
this$ = 32
_Newwidth$ = 40
?width@ios_base@std@@QEAA_J_J@Z PROC			; std::ios_base::width, COMDAT

; 292  :     streamsize __CLR_OR_THIS_CALL width(streamsize _Newwidth) noexcept /* strengthened */ {

$LN3:
	mov	QWORD PTR [rsp+16], rdx
	mov	QWORD PTR [rsp+8], rcx
	sub	rsp, 24

; 293  :         // set width to argument
; 294  :         const streamsize _Oldwidth = _Wide;

	mov	rax, QWORD PTR this$[rsp]
	mov	rax, QWORD PTR [rax+40]
	mov	QWORD PTR _Oldwidth$[rsp], rax

; 295  :         _Wide                      = _Newwidth;

	mov	rax, QWORD PTR this$[rsp]
	mov	rcx, QWORD PTR _Newwidth$[rsp]
	mov	QWORD PTR [rax+40], rcx

; 296  :         return _Oldwidth;

	mov	rax, QWORD PTR _Oldwidth$[rsp]

; 297  :     }

	add	rsp, 24
	ret	0
?width@ios_base@std@@QEAA_J_J@Z ENDP			; std::ios_base::width
_TEXT	ENDS
; Function compile flags: /Odtp
; File F:\software installation\Visual Studio Installation\VC\Tools\MSVC\14.38.33130\include\xiosbase
;	COMDAT ?width@ios_base@std@@QEBA_JXZ
_TEXT	SEGMENT
this$ = 8
?width@ios_base@std@@QEBA_JXZ PROC			; std::ios_base::width, COMDAT

; 288  :     _NODISCARD streamsize __CLR_OR_THIS_CALL width() const noexcept /* strengthened */ {

	mov	QWORD PTR [rsp+8], rcx

; 289  :         return _Wide;

	mov	rax, QWORD PTR this$[rsp]
	mov	rax, QWORD PTR [rax+40]

; 290  :     }

	ret	0
?width@ios_base@std@@QEBA_JXZ ENDP			; std::ios_base::width
_TEXT	ENDS
; Function compile flags: /Odtp
; File F:\software installation\Visual Studio Installation\VC\Tools\MSVC\14.38.33130\include\xiosbase
;	COMDAT ?flags@ios_base@std@@QEBAHXZ
_TEXT	SEGMENT
this$ = 8
?flags@ios_base@std@@QEBAHXZ PROC			; std::ios_base::flags, COMDAT

; 247  :     _NODISCARD fmtflags __CLR_OR_THIS_CALL flags() const noexcept /* strengthened */ {

	mov	QWORD PTR [rsp+8], rcx

; 248  :         return _Fmtfl;

	mov	rax, QWORD PTR this$[rsp]
	mov	eax, DWORD PTR [rax+24]

; 249  :     }

	ret	0
?flags@ios_base@std@@QEBAHXZ ENDP			; std::ios_base::flags
_TEXT	ENDS
; Function compile flags: /Odtp
; File F:\software installation\Visual Studio Installation\VC\Tools\MSVC\14.38.33130\include\xiosbase
;	COMDAT ?good@ios_base@std@@QEBA_NXZ
_TEXT	SEGMENT
tv67 = 32
this$ = 64
?good@ios_base@std@@QEBA_NXZ PROC			; std::ios_base::good, COMDAT

; 216  :     _NODISCARD bool __CLR_OR_THIS_CALL good() const noexcept /* strengthened */ {

$LN5:
	mov	QWORD PTR [rsp+8], rcx
	sub	rsp, 56					; 00000038H

; 217  :         return rdstate() == ios_base::goodbit;

	mov	rcx, QWORD PTR this$[rsp]
	call	?rdstate@ios_base@std@@QEBAHXZ		; std::ios_base::rdstate
	test	eax, eax
	jne	SHORT $LN3@good
	mov	DWORD PTR tv67[rsp], 1
	jmp	SHORT $LN4@good
$LN3@good:
	mov	DWORD PTR tv67[rsp], 0
$LN4@good:
	movzx	eax, BYTE PTR tv67[rsp]

; 218  :     }

	add	rsp, 56					; 00000038H
	ret	0
?good@ios_base@std@@QEBA_NXZ ENDP			; std::ios_base::good
_TEXT	ENDS
; Function compile flags: /Odtp
; File F:\software installation\Visual Studio Installation\VC\Tools\MSVC\14.38.33130\include\xiosbase
;	COMDAT ?rdstate@ios_base@std@@QEBAHXZ
_TEXT	SEGMENT
this$ = 8
?rdstate@ios_base@std@@QEBAHXZ PROC			; std::ios_base::rdstate, COMDAT

; 197  :     _NODISCARD iostate __CLR_OR_THIS_CALL rdstate() const noexcept /* strengthened */ {

	mov	QWORD PTR [rsp+8], rcx

; 198  :         return _Mystate;

	mov	rax, QWORD PTR this$[rsp]
	mov	eax, DWORD PTR [rax+16]

; 199  :     }

	ret	0
?rdstate@ios_base@std@@QEBAHXZ ENDP			; std::ios_base::rdstate
_TEXT	ENDS
; Function compile flags: /Odtp
; File F:\software installation\Visual Studio Installation\VC\Tools\MSVC\14.38.33130\include\xiosbase
;	COMDAT ?clear@ios_base@std@@QEAAXH_N@Z
_TEXT	SEGMENT
_Filtered$ = 32
_Msg$1 = 40
$T2 = 48
$T3 = 64
this$ = 128
_State$ = 136
_Reraise$ = 144
?clear@ios_base@std@@QEAAXH_N@Z PROC			; std::ios_base::clear, COMDAT

; 165  :     void __CLR_OR_THIS_CALL clear(iostate _State, bool _Reraise) { // set state, possibly reraise exception

$LN9:
	mov	BYTE PTR [rsp+24], r8b
	mov	DWORD PTR [rsp+16], edx
	mov	QWORD PTR [rsp+8], rcx
	sub	rsp, 120				; 00000078H

; 166  :         _State &= _Statmask;

	mov	eax, DWORD PTR _State$[rsp]
	and	eax, 23
	mov	DWORD PTR _State$[rsp], eax

; 167  :         _Mystate             = _State;

	mov	rax, QWORD PTR this$[rsp]
	mov	ecx, DWORD PTR _State$[rsp]
	mov	DWORD PTR [rax+16], ecx

; 168  :         const auto _Filtered = _State & _Except;

	mov	rax, QWORD PTR this$[rsp]
	mov	eax, DWORD PTR [rax+20]
	mov	ecx, DWORD PTR _State$[rsp]
	and	ecx, eax
	mov	eax, ecx
	mov	DWORD PTR _Filtered$[rsp], eax

; 169  :         if (_Filtered) {

	cmp	DWORD PTR _Filtered$[rsp], 0
	je	$LN2@clear

; 170  :             if (_Reraise) {

	movzx	eax, BYTE PTR _Reraise$[rsp]
	test	eax, eax
	je	SHORT $LN3@clear

; 171  :                 _RERAISE;

	xor	edx, edx
	xor	ecx, ecx
	call	_CxxThrowException
$LN3@clear:

; 172  :             }
; 173  : 
; 174  :             const char* _Msg;
; 175  :             if (_Filtered & ios_base::badbit) {

	mov	eax, DWORD PTR _Filtered$[rsp]
	and	eax, 4
	test	eax, eax
	je	SHORT $LN4@clear

; 176  :                 _Msg = "ios_base::badbit set";

	lea	rax, OFFSET FLAT:??_C@_0BF@PHHKMMFD@ios_base?3?3badbit?5set@
	mov	QWORD PTR _Msg$1[rsp], rax
	jmp	SHORT $LN5@clear
$LN4@clear:

; 177  :             } else if (_Filtered & ios_base::failbit) {

	mov	eax, DWORD PTR _Filtered$[rsp]
	and	eax, 2
	test	eax, eax
	je	SHORT $LN6@clear

; 178  :                 _Msg = "ios_base::failbit set";

	lea	rax, OFFSET FLAT:??_C@_0BG@FMKFHCIL@ios_base?3?3failbit?5set@
	mov	QWORD PTR _Msg$1[rsp], rax

; 179  :             } else {

	jmp	SHORT $LN7@clear
$LN6@clear:

; 180  :                 _Msg = "ios_base::eofbit set";

	lea	rax, OFFSET FLAT:??_C@_0BF@OOHOMBOF@ios_base?3?3eofbit?5set@
	mov	QWORD PTR _Msg$1[rsp], rax
$LN7@clear:
$LN5@clear:

; 181  :             }
; 182  : 
; 183  :             _THROW(failure(_Msg));

	mov	edx, 1
	lea	rcx, QWORD PTR $T2[rsp]
	call	?make_error_code@std@@YA?AVerror_code@1@W4io_errc@1@@Z ; std::make_error_code
	mov	r8, rax
	mov	rdx, QWORD PTR _Msg$1[rsp]
	lea	rcx, QWORD PTR $T3[rsp]
	call	??0failure@ios_base@std@@QEAA@PEBDAEBVerror_code@2@@Z ; std::ios_base::failure::failure
	lea	rdx, OFFSET FLAT:_TI5?AVfailure@ios_base@std@@
	lea	rcx, QWORD PTR $T3[rsp]
	call	_CxxThrowException
$LN2@clear:
$LN8@clear:

; 184  :         }
; 185  :     }

	add	rsp, 120				; 00000078H
	ret	0
?clear@ios_base@std@@QEAAXH_N@Z ENDP			; std::ios_base::clear
_TEXT	ENDS
; Function compile flags: /Odtp
;	COMDAT ??_Gfailure@ios_base@std@@UEAAPEAXI@Z
_TEXT	SEGMENT
this$ = 48
__flags$ = 56
??_Gfailure@ios_base@std@@UEAAPEAXI@Z PROC		; std::ios_base::failure::`scalar deleting destructor', COMDAT
$LN4:
	mov	DWORD PTR [rsp+16], edx
	mov	QWORD PTR [rsp+8], rcx
	sub	rsp, 40					; 00000028H
	mov	rcx, QWORD PTR this$[rsp]
	call	??1failure@ios_base@std@@UEAA@XZ
	mov	eax, DWORD PTR __flags$[rsp]
	and	eax, 1
	test	eax, eax
	je	SHORT $LN2@scalar
	mov	edx, 40					; 00000028H
	mov	rcx, QWORD PTR this$[rsp]
	call	??3@YAXPEAX_K@Z				; operator delete
$LN2@scalar:
	mov	rax, QWORD PTR this$[rsp]
	add	rsp, 40					; 00000028H
	ret	0
??_Gfailure@ios_base@std@@UEAAPEAXI@Z ENDP		; std::ios_base::failure::`scalar deleting destructor'
_TEXT	ENDS
; Function compile flags: /Odtp
;	COMDAT ??0failure@ios_base@std@@QEAA@AEBV012@@Z
_TEXT	SEGMENT
this$ = 48
__that$ = 56
??0failure@ios_base@std@@QEAA@AEBV012@@Z PROC		; std::ios_base::failure::failure, COMDAT
$LN3:
	mov	QWORD PTR [rsp+16], rdx
	mov	QWORD PTR [rsp+8], rcx
	sub	rsp, 40					; 00000028H
	mov	rdx, QWORD PTR __that$[rsp]
	mov	rcx, QWORD PTR this$[rsp]
	call	??0system_error@std@@QEAA@AEBV01@@Z
	mov	rax, QWORD PTR this$[rsp]
	lea	rcx, OFFSET FLAT:??_7failure@ios_base@std@@6B@
	mov	QWORD PTR [rax], rcx
	mov	rax, QWORD PTR this$[rsp]
	add	rsp, 40					; 00000028H
	ret	0
??0failure@ios_base@std@@QEAA@AEBV012@@Z ENDP		; std::ios_base::failure::failure
_TEXT	ENDS
; Function compile flags: /Odtp
;	COMDAT ??1failure@ios_base@std@@UEAA@XZ
_TEXT	SEGMENT
this$ = 48
??1failure@ios_base@std@@UEAA@XZ PROC			; std::ios_base::failure::~failure, COMDAT
$LN3:
	mov	QWORD PTR [rsp+8], rcx
	sub	rsp, 40					; 00000028H
	mov	rcx, QWORD PTR this$[rsp]
	call	??1system_error@std@@UEAA@XZ
	add	rsp, 40					; 00000028H
	ret	0
??1failure@ios_base@std@@UEAA@XZ ENDP			; std::ios_base::failure::~failure
_TEXT	ENDS
; Function compile flags: /Odtp
; File F:\software installation\Visual Studio Installation\VC\Tools\MSVC\14.38.33130\include\xiosbase
;	COMDAT ??0failure@ios_base@std@@QEAA@PEBDAEBVerror_code@2@@Z
_TEXT	SEGMENT
$T1 = 32
this$ = 80
_Message$ = 88
_Errcode$ = 96
??0failure@ios_base@std@@QEAA@PEBDAEBVerror_code@2@@Z PROC ; std::ios_base::failure::failure, COMDAT

; 127  :         explicit failure(const char* _Message, const error_code& _Errcode = _STD make_error_code(io_errc::stream))

$LN4:
	mov	QWORD PTR [rsp+24], r8
	mov	QWORD PTR [rsp+16], rdx
	mov	QWORD PTR [rsp+8], rcx
	push	rsi
	push	rdi
	sub	rsp, 56					; 00000038H

; 128  :             : system_error(_Errcode, _Message) {} // construct with message

	lea	rax, QWORD PTR $T1[rsp]
	mov	rdi, rax
	mov	rsi, QWORD PTR _Errcode$[rsp]
	mov	ecx, 16
	rep movsb
	mov	r8, QWORD PTR _Message$[rsp]
	lea	rdx, QWORD PTR $T1[rsp]
	mov	rcx, QWORD PTR this$[rsp]
	call	??0system_error@std@@QEAA@Verror_code@1@PEBD@Z ; std::system_error::system_error
	mov	rax, QWORD PTR this$[rsp]
	lea	rcx, OFFSET FLAT:??_7failure@ios_base@std@@6B@
	mov	QWORD PTR [rax], rcx
	mov	rax, QWORD PTR this$[rsp]
	add	rsp, 56					; 00000038H
	pop	rdi
	pop	rsi
	ret	0
??0failure@ios_base@std@@QEAA@PEBDAEBVerror_code@2@@Z ENDP ; std::ios_base::failure::failure
_TEXT	ENDS
; Function compile flags: /Odtp
; File F:\software installation\Visual Studio Installation\VC\Tools\MSVC\14.38.33130\include\xutility
;	COMDAT ??$_Adl_verify_range@PEADPEBD@std@@YAXAEBQEADAEBQEBD@Z
_TEXT	SEGMENT
_First$ = 8
_Last$ = 16
??$_Adl_verify_range@PEADPEBD@std@@YAXAEBQEADAEBQEBD@Z PROC ; std::_Adl_verify_range<char *,char const *>, COMDAT

; 1152 : constexpr void _Adl_verify_range(const _Iter& _First, const _Sentinel& _Last) {

	mov	QWORD PTR [rsp+16], rdx
	mov	QWORD PTR [rsp+8], rcx

; 1153 :     // check that [_First, _Last) forms an iterator range
; 1154 :     if constexpr (_Range_verifiable_v<_Iter, _Sentinel>) {
; 1155 :         _Verify_range(_First, _Last);
; 1156 :     }
; 1157 : }

	ret	0
??$_Adl_verify_range@PEADPEBD@std@@YAXAEBQEADAEBQEBD@Z ENDP ; std::_Adl_verify_range<char *,char const *>
_TEXT	ENDS
; Function compile flags: /Odtp
; File F:\software installation\Visual Studio Installation\VC\Tools\MSVC\14.38.33130\include\xlocale
;	COMDAT ??$use_facet@V?$ctype@D@std@@@std@@YAAEBV?$ctype@D@0@AEBVlocale@0@@Z
_TEXT	SEGMENT
_Lock$1 = 32
_Psave$2 = 40
_Pfmod$3 = 48
_Pf$4 = 56
_Psave_guard$5 = 64
_Id$6 = 72
$T7 = 80
_Loc$ = 112
??$use_facet@V?$ctype@D@std@@@std@@YAAEBV?$ctype@D@0@AEBVlocale@0@@Z PROC ; std::use_facet<std::ctype<char> >, COMDAT

; 434  : const _Facet& __CRTDECL use_facet(const locale& _Loc) { // get facet reference from locale

$LN11:
	mov	QWORD PTR [rsp+8], rcx
	sub	rsp, 104				; 00000068H

; 435  :     _BEGIN_LOCK(_LOCK_LOCALE) // the thread lock, make get atomic

	xor	edx, edx
	lea	rcx, QWORD PTR _Lock$1[rsp]
	call	??0_Lockit@std@@QEAA@H@Z		; std::_Lockit::_Lockit
	npad	1

; 436  :     const locale::facet* _Psave = _Facetptr<_Facet>::_Psave; // static pointer to lazy facet

	mov	rax, QWORD PTR ?_Psave@?$_Facetptr@V?$ctype@D@std@@@std@@2PEBVfacet@locale@2@EB ; std::_Facetptr<std::ctype<char> >::_Psave
	mov	QWORD PTR _Psave$2[rsp], rax

; 437  : 
; 438  :     const size_t _Id         = _Facet::id;

	lea	rcx, OFFSET FLAT:?id@?$ctype@D@std@@2V0locale@2@A ; std::ctype<char>::id
	call	??Bid@locale@std@@QEAA_KXZ		; std::locale::id::operator unsigned __int64
	mov	QWORD PTR _Id$6[rsp], rax

; 439  :     const locale::facet* _Pf = _Loc._Getfacet(_Id);

	mov	rdx, QWORD PTR _Id$6[rsp]
	mov	rcx, QWORD PTR _Loc$[rsp]
	call	?_Getfacet@locale@std@@QEBAPEBVfacet@12@_K@Z ; std::locale::_Getfacet
	mov	QWORD PTR _Pf$4[rsp], rax

; 440  : 
; 441  :     if (!_Pf) {

	cmp	QWORD PTR _Pf$4[rsp], 0
	jne	$LN2@use_facet

; 442  :         if (_Psave) {

	cmp	QWORD PTR _Psave$2[rsp], 0
	je	SHORT $LN3@use_facet

; 443  :             _Pf = _Psave; // lazy facet already allocated

	mov	rax, QWORD PTR _Psave$2[rsp]
	mov	QWORD PTR _Pf$4[rsp], rax
	jmp	SHORT $LN2@use_facet
$LN3@use_facet:

; 444  :         } else if (_Facet::_Getcat(&_Psave, &_Loc) == static_cast<size_t>(-1)) {

	mov	rdx, QWORD PTR _Loc$[rsp]
	lea	rcx, QWORD PTR _Psave$2[rsp]
	call	?_Getcat@?$ctype@D@std@@SA_KPEAPEBVfacet@locale@2@PEBV42@@Z ; std::ctype<char>::_Getcat
	cmp	rax, -1
	jne	SHORT $LN5@use_facet

; 445  : #if _HAS_EXCEPTIONS
; 446  :             _Throw_bad_cast(); // lazy disallowed

	call	?_Throw_bad_cast@std@@YAXXZ		; std::_Throw_bad_cast
	npad	1

; 447  : #else
; 448  :             _CSTD abort(); // lazy disallowed
; 449  : #endif
; 450  :         } else { // queue up lazy facet for destruction

	jmp	SHORT $LN2@use_facet
$LN5@use_facet:

; 451  :             auto _Pfmod = const_cast<locale::facet*>(_Psave);

	mov	rax, QWORD PTR _Psave$2[rsp]
	mov	QWORD PTR _Pfmod$3[rsp], rax

; 452  :             unique_ptr<_Facet_base> _Psave_guard(static_cast<_Facet_base*>(_Pfmod));

	mov	rdx, QWORD PTR _Pfmod$3[rsp]
	lea	rcx, QWORD PTR _Psave_guard$5[rsp]
	call	??$?0U?$default_delete@V_Facet_base@std@@@std@@$0A@@?$unique_ptr@V_Facet_base@std@@U?$default_delete@V_Facet_base@std@@@2@@std@@QEAA@PEAV_Facet_base@1@@Z ; std::unique_ptr<std::_Facet_base,std::default_delete<std::_Facet_base> >::unique_ptr<std::_Facet_base,std::default_delete<std::_Facet_base> ><std::default_delete<std::_Facet_base>,0>
	npad	1

; 453  : 
; 454  : #if defined(_M_CEE)
; 455  :             _Facet_Register_m(_Pfmod);
; 456  : #else // ^^^ defined(_M_CEE) / !defined(_M_CEE) vvv
; 457  :             _Facet_Register(_Pfmod);

	mov	rcx, QWORD PTR _Pfmod$3[rsp]
	call	?_Facet_Register@std@@YAXPEAV_Facet_base@1@@Z ; std::_Facet_Register

; 458  : #endif // ^^^ !defined(_M_CEE) ^^^
; 459  : 
; 460  :             _Pfmod->_Incref();

	mov	rax, QWORD PTR _Pfmod$3[rsp]
	mov	rax, QWORD PTR [rax]
	mov	rcx, QWORD PTR _Pfmod$3[rsp]
	call	QWORD PTR [rax+8]

; 461  :             _Facetptr<_Facet>::_Psave = _Psave;

	mov	rax, QWORD PTR _Psave$2[rsp]
	mov	QWORD PTR ?_Psave@?$_Facetptr@V?$ctype@D@std@@@std@@2PEBVfacet@locale@2@EB, rax ; std::_Facetptr<std::ctype<char> >::_Psave

; 462  :             _Pf                       = _Psave;

	mov	rax, QWORD PTR _Psave$2[rsp]
	mov	QWORD PTR _Pf$4[rsp], rax

; 463  : 
; 464  :             (void) _Psave_guard.release();

	lea	rcx, QWORD PTR _Psave_guard$5[rsp]
	call	?release@?$unique_ptr@V_Facet_base@std@@U?$default_delete@V_Facet_base@std@@@2@@std@@QEAAPEAV_Facet_base@2@XZ ; std::unique_ptr<std::_Facet_base,std::default_delete<std::_Facet_base> >::release
	npad	1

; 465  :         }

	lea	rcx, QWORD PTR _Psave_guard$5[rsp]
	call	??1?$unique_ptr@V_Facet_base@std@@U?$default_delete@V_Facet_base@std@@@2@@std@@QEAA@XZ ; std::unique_ptr<std::_Facet_base,std::default_delete<std::_Facet_base> >::~unique_ptr<std::_Facet_base,std::default_delete<std::_Facet_base> >
$LN2@use_facet:

; 466  :     }
; 467  : 
; 468  :     return static_cast<const _Facet&>(*_Pf); // should be dynamic_cast

	mov	rax, QWORD PTR _Pf$4[rsp]
	mov	QWORD PTR $T7[rsp], rax
	lea	rcx, QWORD PTR _Lock$1[rsp]
	call	??1_Lockit@std@@QEAA@XZ			; std::_Lockit::~_Lockit
	mov	rax, QWORD PTR $T7[rsp]

; 469  :     _END_LOCK()
; 470  : } // end of use_facet body

	add	rsp, 104				; 00000068H
	ret	0
$LN10@use_facet:
??$use_facet@V?$ctype@D@std@@@std@@YAAEBV?$ctype@D@0@AEBVlocale@0@@Z ENDP ; std::use_facet<std::ctype<char> >
_TEXT	ENDS
; Function compile flags: /Odtp
;	COMDAT text$x
text$x	SEGMENT
_Lock$1 = 32
_Psave$2 = 40
_Pfmod$3 = 48
_Pf$4 = 56
_Psave_guard$5 = 64
_Id$6 = 72
$T7 = 80
_Loc$ = 112
?dtor$0@?0???$use_facet@V?$ctype@D@std@@@std@@YAAEBV?$ctype@D@0@AEBVlocale@0@@Z@4HA PROC ; `std::use_facet<std::ctype<char> >'::`1'::dtor$0
	push	rbp
	sub	rsp, 32					; 00000020H
	mov	rbp, rdx
	lea	rcx, QWORD PTR _Lock$1[rbp]
	call	??1_Lockit@std@@QEAA@XZ			; std::_Lockit::~_Lockit
	add	rsp, 32					; 00000020H
	pop	rbp
	ret	0
?dtor$0@?0???$use_facet@V?$ctype@D@std@@@std@@YAAEBV?$ctype@D@0@AEBVlocale@0@@Z@4HA ENDP ; `std::use_facet<std::ctype<char> >'::`1'::dtor$0
text$x	ENDS
; Function compile flags: /Odtp
;	COMDAT text$x
text$x	SEGMENT
_Lock$1 = 32
_Psave$2 = 40
_Pfmod$3 = 48
_Pf$4 = 56
_Psave_guard$5 = 64
_Id$6 = 72
$T7 = 80
_Loc$ = 112
?dtor$1@?0???$use_facet@V?$ctype@D@std@@@std@@YAAEBV?$ctype@D@0@AEBVlocale@0@@Z@4HA PROC ; `std::use_facet<std::ctype<char> >'::`1'::dtor$1
	push	rbp
	sub	rsp, 32					; 00000020H
	mov	rbp, rdx
	lea	rcx, QWORD PTR _Psave_guard$5[rbp]
	call	??1?$unique_ptr@V_Facet_base@std@@U?$default_delete@V_Facet_base@std@@@2@@std@@QEAA@XZ ; std::unique_ptr<std::_Facet_base,std::default_delete<std::_Facet_base> >::~unique_ptr<std::_Facet_base,std::default_delete<std::_Facet_base> >
	add	rsp, 32					; 00000020H
	pop	rbp
	ret	0
?dtor$1@?0???$use_facet@V?$ctype@D@std@@@std@@YAAEBV?$ctype@D@0@AEBVlocale@0@@Z@4HA ENDP ; `std::use_facet<std::ctype<char> >'::`1'::dtor$1
text$x	ENDS
; Function compile flags: /Odtp
;	COMDAT ??_G?$ctype@D@std@@MEAAPEAXI@Z
_TEXT	SEGMENT
this$ = 48
__flags$ = 56
??_G?$ctype@D@std@@MEAAPEAXI@Z PROC			; std::ctype<char>::`scalar deleting destructor', COMDAT
$LN4:
	mov	DWORD PTR [rsp+16], edx
	mov	QWORD PTR [rsp+8], rcx
	sub	rsp, 40					; 00000028H
	mov	rcx, QWORD PTR this$[rsp]
	call	??1?$ctype@D@std@@MEAA@XZ		; std::ctype<char>::~ctype<char>
	mov	eax, DWORD PTR __flags$[rsp]
	and	eax, 1
	test	eax, eax
	je	SHORT $LN2@scalar
	mov	edx, 48					; 00000030H
	mov	rcx, QWORD PTR this$[rsp]
	call	??3@YAXPEAX_K@Z				; operator delete
$LN2@scalar:
	mov	rax, QWORD PTR this$[rsp]
	add	rsp, 40					; 00000028H
	ret	0
??_G?$ctype@D@std@@MEAAPEAXI@Z ENDP			; std::ctype<char>::`scalar deleting destructor'
_TEXT	ENDS
; Function compile flags: /Odtp
; File F:\software installation\Visual Studio Installation\VC\Tools\MSVC\14.38.33130\include\xlocale
;	COMDAT ?do_narrow@?$ctype@D@std@@MEBAPEBDPEBD0DPEAD@Z
_TEXT	SEGMENT
this$ = 48
_First$ = 56
_Last$ = 64
__formal$ = 72
_Dest$ = 80
?do_narrow@?$ctype@D@std@@MEBAPEBDPEBD0DPEAD@Z PROC	; std::ctype<char>::do_narrow, COMDAT

; 2816 :         char* _Dest) const { // narrow elements in [_First, _Last) to chars

$LN3:
	mov	BYTE PTR [rsp+32], r9b
	mov	QWORD PTR [rsp+24], r8
	mov	QWORD PTR [rsp+16], rdx
	mov	QWORD PTR [rsp+8], rcx
	sub	rsp, 40					; 00000028H

; 2817 :         _Adl_verify_range(_First, _Last);

	lea	rdx, QWORD PTR _Last$[rsp]
	lea	rcx, QWORD PTR _First$[rsp]
	call	??$_Adl_verify_range@PEBDPEBD@std@@YAXAEBQEBD0@Z ; std::_Adl_verify_range<char const *,char const *>

; 2818 :         _CSTD memcpy(_Dest, _First, static_cast<size_t>(_Last - _First));

	mov	rax, QWORD PTR _First$[rsp]
	mov	rcx, QWORD PTR _Last$[rsp]
	sub	rcx, rax
	mov	rax, rcx
	mov	r8, rax
	mov	rdx, QWORD PTR _First$[rsp]
	mov	rcx, QWORD PTR _Dest$[rsp]
	call	memcpy

; 2819 :         return _Last;

	mov	rax, QWORD PTR _Last$[rsp]

; 2820 :     }

	add	rsp, 40					; 00000028H
	ret	0
?do_narrow@?$ctype@D@std@@MEBAPEBDPEBD0DPEAD@Z ENDP	; std::ctype<char>::do_narrow
_TEXT	ENDS
; Function compile flags: /Odtp
; File F:\software installation\Visual Studio Installation\VC\Tools\MSVC\14.38.33130\include\xlocale
;	COMDAT ?do_narrow@?$ctype@D@std@@MEBADDD@Z
_TEXT	SEGMENT
this$ = 8
_Ch$ = 16
__formal$ = 24
?do_narrow@?$ctype@D@std@@MEBADDD@Z PROC		; std::ctype<char>::do_narrow, COMDAT

; 2811 :     virtual _Elem __CLR_OR_THIS_CALL do_narrow(_Elem _Ch, char) const { // narrow char

	mov	BYTE PTR [rsp+24], r8b
	mov	BYTE PTR [rsp+16], dl
	mov	QWORD PTR [rsp+8], rcx

; 2812 :         return _Ch;

	movzx	eax, BYTE PTR _Ch$[rsp]

; 2813 :     }

	ret	0
?do_narrow@?$ctype@D@std@@MEBADDD@Z ENDP		; std::ctype<char>::do_narrow
_TEXT	ENDS
; Function compile flags: /Odtp
; File F:\software installation\Visual Studio Installation\VC\Tools\MSVC\14.38.33130\include\xlocale
;	COMDAT ?do_widen@?$ctype@D@std@@MEBAPEBDPEBD0PEAD@Z
_TEXT	SEGMENT
this$ = 48
_First$ = 56
_Last$ = 64
_Dest$ = 72
?do_widen@?$ctype@D@std@@MEBAPEBDPEBD0PEAD@Z PROC	; std::ctype<char>::do_widen, COMDAT

; 2805 :         const char* _First, const char* _Last, _Elem* _Dest) const { // widen chars in [_First, _Last)

$LN3:
	mov	QWORD PTR [rsp+32], r9
	mov	QWORD PTR [rsp+24], r8
	mov	QWORD PTR [rsp+16], rdx
	mov	QWORD PTR [rsp+8], rcx
	sub	rsp, 40					; 00000028H

; 2806 :         _Adl_verify_range(_First, _Last);

	lea	rdx, QWORD PTR _Last$[rsp]
	lea	rcx, QWORD PTR _First$[rsp]
	call	??$_Adl_verify_range@PEBDPEBD@std@@YAXAEBQEBD0@Z ; std::_Adl_verify_range<char const *,char const *>

; 2807 :         _CSTD memcpy(_Dest, _First, static_cast<size_t>(_Last - _First));

	mov	rax, QWORD PTR _First$[rsp]
	mov	rcx, QWORD PTR _Last$[rsp]
	sub	rcx, rax
	mov	rax, rcx
	mov	r8, rax
	mov	rdx, QWORD PTR _First$[rsp]
	mov	rcx, QWORD PTR _Dest$[rsp]
	call	memcpy

; 2808 :         return _Last;

	mov	rax, QWORD PTR _Last$[rsp]

; 2809 :     }

	add	rsp, 40					; 00000028H
	ret	0
?do_widen@?$ctype@D@std@@MEBAPEBDPEBD0PEAD@Z ENDP	; std::ctype<char>::do_widen
_TEXT	ENDS
; Function compile flags: /Odtp
; File F:\software installation\Visual Studio Installation\VC\Tools\MSVC\14.38.33130\include\xlocale
;	COMDAT ?do_widen@?$ctype@D@std@@MEBADD@Z
_TEXT	SEGMENT
this$ = 8
_Byte$ = 16
?do_widen@?$ctype@D@std@@MEBADD@Z PROC			; std::ctype<char>::do_widen, COMDAT

; 2800 :     virtual _Elem __CLR_OR_THIS_CALL do_widen(char _Byte) const { // widen char

	mov	BYTE PTR [rsp+16], dl
	mov	QWORD PTR [rsp+8], rcx

; 2801 :         return _Byte;

	movzx	eax, BYTE PTR _Byte$[rsp]

; 2802 :     }

	ret	0
?do_widen@?$ctype@D@std@@MEBADD@Z ENDP			; std::ctype<char>::do_widen
_TEXT	ENDS
; Function compile flags: /Odtp
; File F:\software installation\Visual Studio Installation\VC\Tools\MSVC\14.38.33130\include\xlocale
;	COMDAT ?do_toupper@?$ctype@D@std@@MEBAPEBDPEADPEBD@Z
_TEXT	SEGMENT
this$ = 48
_First$ = 56
_Last$ = 64
?do_toupper@?$ctype@D@std@@MEBAPEBDPEADPEBD@Z PROC	; std::ctype<char>::do_toupper, COMDAT

; 2791 :         const _Elem* _Last) const { // convert [_First, _Last) in place to upper case

$LN6:
	mov	QWORD PTR [rsp+24], r8
	mov	QWORD PTR [rsp+16], rdx
	mov	QWORD PTR [rsp+8], rcx
	sub	rsp, 40					; 00000028H

; 2792 :         _Adl_verify_range(_First, _Last);

	lea	rdx, QWORD PTR _Last$[rsp]
	lea	rcx, QWORD PTR _First$[rsp]
	call	??$_Adl_verify_range@PEADPEBD@std@@YAXAEBQEADAEBQEBD@Z ; std::_Adl_verify_range<char *,char const *>

; 2793 :         for (; _First != _Last; ++_First) {

	jmp	SHORT $LN4@do_toupper
$LN2@do_toupper:
	mov	rax, QWORD PTR _First$[rsp]
	inc	rax
	mov	QWORD PTR _First$[rsp], rax
$LN4@do_toupper:
	mov	rax, QWORD PTR _Last$[rsp]
	cmp	QWORD PTR _First$[rsp], rax
	je	SHORT $LN3@do_toupper

; 2794 :             *_First = static_cast<_Elem>(_Toupper(static_cast<unsigned char>(*_First), &_Ctype));

	mov	rax, QWORD PTR this$[rsp]
	add	rax, 16
	mov	rcx, QWORD PTR _First$[rsp]
	movzx	ecx, BYTE PTR [rcx]
	mov	rdx, rax
	call	_Toupper
	mov	rcx, QWORD PTR _First$[rsp]
	mov	BYTE PTR [rcx], al

; 2795 :         }

	jmp	SHORT $LN2@do_toupper
$LN3@do_toupper:

; 2796 : 
; 2797 :         return _First;

	mov	rax, QWORD PTR _First$[rsp]

; 2798 :     }

	add	rsp, 40					; 00000028H
	ret	0
?do_toupper@?$ctype@D@std@@MEBAPEBDPEADPEBD@Z ENDP	; std::ctype<char>::do_toupper
_TEXT	ENDS
; Function compile flags: /Odtp
; File F:\software installation\Visual Studio Installation\VC\Tools\MSVC\14.38.33130\include\xlocale
;	COMDAT ?do_toupper@?$ctype@D@std@@MEBADD@Z
_TEXT	SEGMENT
this$ = 48
_Ch$ = 56
?do_toupper@?$ctype@D@std@@MEBADD@Z PROC		; std::ctype<char>::do_toupper, COMDAT

; 2786 :     virtual _Elem __CLR_OR_THIS_CALL do_toupper(_Elem _Ch) const { // convert element to upper case

$LN3:
	mov	BYTE PTR [rsp+16], dl
	mov	QWORD PTR [rsp+8], rcx
	sub	rsp, 40					; 00000028H

; 2787 :         return static_cast<_Elem>(_Toupper(static_cast<unsigned char>(_Ch), &_Ctype));

	mov	rax, QWORD PTR this$[rsp]
	add	rax, 16
	movzx	ecx, BYTE PTR _Ch$[rsp]
	mov	rdx, rax
	call	_Toupper

; 2788 :     }

	add	rsp, 40					; 00000028H
	ret	0
?do_toupper@?$ctype@D@std@@MEBADD@Z ENDP		; std::ctype<char>::do_toupper
_TEXT	ENDS
; Function compile flags: /Odtp
; File F:\software installation\Visual Studio Installation\VC\Tools\MSVC\14.38.33130\include\xlocale
;	COMDAT ?do_tolower@?$ctype@D@std@@MEBAPEBDPEADPEBD@Z
_TEXT	SEGMENT
this$ = 48
_First$ = 56
_Last$ = 64
?do_tolower@?$ctype@D@std@@MEBAPEBDPEADPEBD@Z PROC	; std::ctype<char>::do_tolower, COMDAT

; 2777 :         const _Elem* _Last) const { // convert [_First, _Last) in place to lower case

$LN6:
	mov	QWORD PTR [rsp+24], r8
	mov	QWORD PTR [rsp+16], rdx
	mov	QWORD PTR [rsp+8], rcx
	sub	rsp, 40					; 00000028H

; 2778 :         _Adl_verify_range(_First, _Last);

	lea	rdx, QWORD PTR _Last$[rsp]
	lea	rcx, QWORD PTR _First$[rsp]
	call	??$_Adl_verify_range@PEADPEBD@std@@YAXAEBQEADAEBQEBD@Z ; std::_Adl_verify_range<char *,char const *>

; 2779 :         for (; _First != _Last; ++_First) {

	jmp	SHORT $LN4@do_tolower
$LN2@do_tolower:
	mov	rax, QWORD PTR _First$[rsp]
	inc	rax
	mov	QWORD PTR _First$[rsp], rax
$LN4@do_tolower:
	mov	rax, QWORD PTR _Last$[rsp]
	cmp	QWORD PTR _First$[rsp], rax
	je	SHORT $LN3@do_tolower

; 2780 :             *_First = static_cast<_Elem>(_Tolower(static_cast<unsigned char>(*_First), &_Ctype));

	mov	rax, QWORD PTR this$[rsp]
	add	rax, 16
	mov	rcx, QWORD PTR _First$[rsp]
	movzx	ecx, BYTE PTR [rcx]
	mov	rdx, rax
	call	_Tolower
	mov	rcx, QWORD PTR _First$[rsp]
	mov	BYTE PTR [rcx], al

; 2781 :         }

	jmp	SHORT $LN2@do_tolower
$LN3@do_tolower:

; 2782 : 
; 2783 :         return _First;

	mov	rax, QWORD PTR _First$[rsp]

; 2784 :     }

	add	rsp, 40					; 00000028H
	ret	0
?do_tolower@?$ctype@D@std@@MEBAPEBDPEADPEBD@Z ENDP	; std::ctype<char>::do_tolower
_TEXT	ENDS
; Function compile flags: /Odtp
; File F:\software installation\Visual Studio Installation\VC\Tools\MSVC\14.38.33130\include\xlocale
;	COMDAT ?do_tolower@?$ctype@D@std@@MEBADD@Z
_TEXT	SEGMENT
this$ = 48
_Ch$ = 56
?do_tolower@?$ctype@D@std@@MEBADD@Z PROC		; std::ctype<char>::do_tolower, COMDAT

; 2772 :     virtual _Elem __CLR_OR_THIS_CALL do_tolower(_Elem _Ch) const { // convert element to lower case

$LN3:
	mov	BYTE PTR [rsp+16], dl
	mov	QWORD PTR [rsp+8], rcx
	sub	rsp, 40					; 00000028H

; 2773 :         return static_cast<_Elem>(_Tolower(static_cast<unsigned char>(_Ch), &_Ctype));

	mov	rax, QWORD PTR this$[rsp]
	add	rax, 16
	movzx	ecx, BYTE PTR _Ch$[rsp]
	mov	rdx, rax
	call	_Tolower

; 2774 :     }

	add	rsp, 40					; 00000028H
	ret	0
?do_tolower@?$ctype@D@std@@MEBADD@Z ENDP		; std::ctype<char>::do_tolower
_TEXT	ENDS
; Function compile flags: /Odtp
; File F:\software installation\Visual Studio Installation\VC\Tools\MSVC\14.38.33130\include\xlocale
;	COMDAT ?_Tidy@?$ctype@D@std@@IEAAXXZ
_TEXT	SEGMENT
$T1 = 32
this$ = 64
?_Tidy@?$ctype@D@std@@IEAAXXZ PROC			; std::ctype<char>::_Tidy, COMDAT

; 2762 :     void __CLR_OR_THIS_CALL _Tidy() noexcept { // free any allocated storage

$LN6:
	mov	QWORD PTR [rsp+8], rcx
	sub	rsp, 56					; 00000038H

; 2763 :         if (0 < _Ctype._Delfl) {

	mov	rax, QWORD PTR this$[rsp]
	cmp	DWORD PTR [rax+32], 0
	jle	SHORT $LN2@Tidy

; 2764 :             _CSTD free(const_cast<short*>(_Ctype._Table));

	mov	rax, QWORD PTR this$[rsp]
	mov	rcx, QWORD PTR [rax+24]
	call	free
	jmp	SHORT $LN3@Tidy
$LN2@Tidy:

; 2765 :         } else if (_Ctype._Delfl < 0) {

	mov	rax, QWORD PTR this$[rsp]
	cmp	DWORD PTR [rax+32], 0
	jge	SHORT $LN3@Tidy

; 2766 :             delete[] _Ctype._Table;

	mov	rax, QWORD PTR this$[rsp]
	mov	rax, QWORD PTR [rax+24]
	mov	QWORD PTR $T1[rsp], rax
	mov	rcx, QWORD PTR $T1[rsp]
	call	??_V@YAXPEAX@Z				; operator delete[]
$LN3@Tidy:

; 2767 :         }
; 2768 : 
; 2769 :         _CSTD free(_Ctype._LocaleName);

	mov	rax, QWORD PTR this$[rsp]
	mov	rcx, QWORD PTR [rax+40]
	call	free

; 2770 :     }

	add	rsp, 56					; 00000038H
	ret	0
?_Tidy@?$ctype@D@std@@IEAAXXZ ENDP			; std::ctype<char>::_Tidy
_TEXT	ENDS
; Function compile flags: /Odtp
; File F:\software installation\Visual Studio Installation\VC\Tools\MSVC\14.38.33130\include\xlocale
;	COMDAT ?_Init@?$ctype@D@std@@IEAAXAEBV_Locinfo@2@@Z
_TEXT	SEGMENT
$T1 = 32
this$ = 96
_Lobj$ = 104
?_Init@?$ctype@D@std@@IEAAXAEBV_Locinfo@2@@Z PROC	; std::ctype<char>::_Init, COMDAT

; 2758 :     void __CLR_OR_THIS_CALL _Init(const _Locinfo& _Lobj) { // initialize from _Lobj

$LN3:
	mov	QWORD PTR [rsp+16], rdx
	mov	QWORD PTR [rsp+8], rcx
	push	rsi
	push	rdi
	sub	rsp, 72					; 00000048H

; 2759 :         _Ctype = _Lobj._Getctype();

	lea	rdx, QWORD PTR $T1[rsp]
	mov	rcx, QWORD PTR _Lobj$[rsp]
	call	?_Getctype@_Locinfo@std@@QEBA?AU_Ctypevec@@XZ ; std::_Locinfo::_Getctype
	mov	rcx, QWORD PTR this$[rsp]
	lea	rdi, QWORD PTR [rcx+16]
	mov	rsi, rax
	mov	ecx, 32					; 00000020H
	rep movsb

; 2760 :     }

	add	rsp, 72					; 00000048H
	pop	rdi
	pop	rsi
	ret	0
?_Init@?$ctype@D@std@@IEAAXAEBV_Locinfo@2@@Z ENDP	; std::ctype<char>::_Init
_TEXT	ENDS
; Function compile flags: /Odtp
; File F:\software installation\Visual Studio Installation\VC\Tools\MSVC\14.38.33130\include\xlocale
;	COMDAT ??1?$ctype@D@std@@MEAA@XZ
_TEXT	SEGMENT
this$ = 48
??1?$ctype@D@std@@MEAA@XZ PROC				; std::ctype<char>::~ctype<char>, COMDAT

; 2754 :     __CLR_OR_THIS_CALL ~ctype() noexcept override {

$LN3:
	mov	QWORD PTR [rsp+8], rcx
	sub	rsp, 40					; 00000028H
	mov	rax, QWORD PTR this$[rsp]
	lea	rcx, OFFSET FLAT:??_7?$ctype@D@std@@6B@
	mov	QWORD PTR [rax], rcx

; 2755 :         _Tidy();

	mov	rcx, QWORD PTR this$[rsp]
	call	?_Tidy@?$ctype@D@std@@IEAAXXZ		; std::ctype<char>::_Tidy

; 2756 :     }

	mov	rcx, QWORD PTR this$[rsp]
	call	??1ctype_base@std@@UEAA@XZ		; std::ctype_base::~ctype_base
	add	rsp, 40					; 00000028H
	ret	0
??1?$ctype@D@std@@MEAA@XZ ENDP				; std::ctype<char>::~ctype<char>
_TEXT	ENDS
; Function compile flags: /Odtp
; File F:\software installation\Visual Studio Installation\VC\Tools\MSVC\14.38.33130\include\xlocale
;	COMDAT ?_Getcat@?$ctype@D@std@@SA_KPEAPEBVfacet@locale@2@PEBV42@@Z
_TEXT	SEGMENT
$T1 = 32
$T2 = 40
tv89 = 48
tv131 = 56
tv128 = 64
$T3 = 72
$T4 = 80
_Ppf$ = 208
_Ploc$ = 216
?_Getcat@?$ctype@D@std@@SA_KPEAPEBVfacet@locale@2@PEBV42@@Z PROC ; std::ctype<char>::_Getcat, COMDAT

; 2735 :     static size_t __CLRCALL_OR_CDECL _Getcat(const locale::facet** _Ppf = nullptr, const locale* _Ploc = nullptr) {

$LN10:
	mov	QWORD PTR [rsp+16], rdx
	mov	QWORD PTR [rsp+8], rcx
	sub	rsp, 200				; 000000c8H
	mov	DWORD PTR $T1[rsp], 0

; 2736 :         if (_Ppf && !*_Ppf) {

	cmp	QWORD PTR _Ppf$[rsp], 0
	je	$LN2@Getcat
	mov	rax, QWORD PTR _Ppf$[rsp]
	cmp	QWORD PTR [rax], 0
	jne	$LN2@Getcat

; 2737 :             *_Ppf = new ctype<_Elem>(_Locinfo(_Ploc->_C_str()));

	mov	ecx, 48					; 00000030H
	call	??2@YAPEAX_K@Z				; operator new
	mov	QWORD PTR $T2[rsp], rax
	cmp	QWORD PTR $T2[rsp], 0
	je	SHORT $LN4@Getcat
	mov	rcx, QWORD PTR _Ploc$[rsp]
	call	?_C_str@locale@std@@QEBAPEBDXZ		; std::locale::_C_str
	mov	rdx, rax
	lea	rcx, QWORD PTR $T4[rsp]
	call	??0_Locinfo@std@@QEAA@PEBD@Z		; std::_Locinfo::_Locinfo
	mov	QWORD PTR tv131[rsp], rax
	mov	rax, QWORD PTR tv131[rsp]
	mov	QWORD PTR tv128[rsp], rax
	mov	eax, DWORD PTR $T1[rsp]
	or	eax, 1
	mov	DWORD PTR $T1[rsp], eax
	xor	r8d, r8d
	mov	rdx, QWORD PTR tv128[rsp]
	mov	rcx, QWORD PTR $T2[rsp]
	call	??0?$ctype@D@std@@QEAA@AEBV_Locinfo@1@_K@Z ; std::ctype<char>::ctype<char>
	mov	QWORD PTR tv89[rsp], rax
	jmp	SHORT $LN5@Getcat
$LN4@Getcat:
	mov	QWORD PTR tv89[rsp], 0
$LN5@Getcat:
	mov	rax, QWORD PTR tv89[rsp]
	mov	QWORD PTR $T3[rsp], rax
	mov	rax, QWORD PTR _Ppf$[rsp]
	mov	rcx, QWORD PTR $T3[rsp]
	mov	QWORD PTR [rax], rcx
	mov	eax, DWORD PTR $T1[rsp]
	and	eax, 1
	test	eax, eax
	je	SHORT $LN2@Getcat
	and	DWORD PTR $T1[rsp], -2
	lea	rcx, QWORD PTR $T4[rsp]
	call	??1_Locinfo@std@@QEAA@XZ		; std::_Locinfo::~_Locinfo
$LN2@Getcat:

; 2738 :         }
; 2739 : 
; 2740 :         return _X_CTYPE;

	mov	eax, 2

; 2741 :     }

	add	rsp, 200				; 000000c8H
	ret	0
?_Getcat@?$ctype@D@std@@SA_KPEAPEBVfacet@locale@2@PEBV42@@Z ENDP ; std::ctype<char>::_Getcat
_TEXT	ENDS
; Function compile flags: /Odtp
;	COMDAT text$x
text$x	SEGMENT
$T1 = 32
$T2 = 40
tv89 = 48
tv131 = 56
tv128 = 64
$T3 = 72
$T4 = 80
_Ppf$ = 208
_Ploc$ = 216
?dtor$0@?0??_Getcat@?$ctype@D@std@@SA_KPEAPEBVfacet@locale@2@PEBV42@@Z@4HA PROC ; `std::ctype<char>::_Getcat'::`1'::dtor$0
	push	rbp
	sub	rsp, 32					; 00000020H
	mov	rbp, rdx
	mov	edx, 48					; 00000030H
	mov	rcx, QWORD PTR $T2[rbp]
	call	??3@YAXPEAX_K@Z				; operator delete
	add	rsp, 32					; 00000020H
	pop	rbp
	ret	0
?dtor$0@?0??_Getcat@?$ctype@D@std@@SA_KPEAPEBVfacet@locale@2@PEBV42@@Z@4HA ENDP ; `std::ctype<char>::_Getcat'::`1'::dtor$0
text$x	ENDS
; Function compile flags: /Odtp
;	COMDAT text$x
text$x	SEGMENT
$T1 = 32
$T2 = 40
tv89 = 48
tv131 = 56
tv128 = 64
$T3 = 72
$T4 = 80
_Ppf$ = 208
_Ploc$ = 216
?dtor$1@?0??_Getcat@?$ctype@D@std@@SA_KPEAPEBVfacet@locale@2@PEBV42@@Z@4HA PROC ; `std::ctype<char>::_Getcat'::`1'::dtor$1
	push	rbp
	sub	rsp, 32					; 00000020H
	mov	rbp, rdx
	mov	eax, DWORD PTR $T1[rbp]
	and	eax, 1
	test	eax, eax
	je	SHORT $LN8@dtor$1
	and	DWORD PTR $T1[rbp], -2
	lea	rcx, QWORD PTR $T4[rbp]
	call	??1_Locinfo@std@@QEAA@XZ		; std::_Locinfo::~_Locinfo
$LN8@dtor$1:
	add	rsp, 32					; 00000020H
	pop	rbp
	ret	0
?dtor$1@?0??_Getcat@?$ctype@D@std@@SA_KPEAPEBVfacet@locale@2@PEBV42@@Z@4HA ENDP ; `std::ctype<char>::_Getcat'::`1'::dtor$1
text$x	ENDS
; Function compile flags: /Odtp
; File F:\software installation\Visual Studio Installation\VC\Tools\MSVC\14.38.33130\include\xlocale
;	COMDAT ??0?$ctype@D@std@@QEAA@AEBV_Locinfo@1@_K@Z
_TEXT	SEGMENT
this$ = 48
_Lobj$ = 56
_Refs$ = 64
??0?$ctype@D@std@@QEAA@AEBV_Locinfo@1@_K@Z PROC		; std::ctype<char>::ctype<char>, COMDAT

; 2731 :     __CLR_OR_THIS_CALL ctype(const _Locinfo& _Lobj, size_t _Refs = 0) : ctype_base(_Refs) {

$LN4:
	mov	QWORD PTR [rsp+24], r8
	mov	QWORD PTR [rsp+16], rdx
	mov	QWORD PTR [rsp+8], rcx
	sub	rsp, 40					; 00000028H
	mov	rdx, QWORD PTR _Refs$[rsp]
	mov	rcx, QWORD PTR this$[rsp]
	call	??0ctype_base@std@@QEAA@_K@Z		; std::ctype_base::ctype_base
	npad	1
	mov	rax, QWORD PTR this$[rsp]
	lea	rcx, OFFSET FLAT:??_7?$ctype@D@std@@6B@
	mov	QWORD PTR [rax], rcx

; 2732 :         _Init(_Lobj);

	mov	rdx, QWORD PTR _Lobj$[rsp]
	mov	rcx, QWORD PTR this$[rsp]
	call	?_Init@?$ctype@D@std@@IEAAXAEBV_Locinfo@2@@Z ; std::ctype<char>::_Init
	npad	1

; 2733 :     }

	mov	rax, QWORD PTR this$[rsp]
	add	rsp, 40					; 00000028H
	ret	0
??0?$ctype@D@std@@QEAA@AEBV_Locinfo@1@_K@Z ENDP		; std::ctype<char>::ctype<char>
_TEXT	ENDS
; Function compile flags: /Odtp
;	COMDAT text$x
text$x	SEGMENT
this$ = 48
_Lobj$ = 56
_Refs$ = 64
?dtor$0@?0???0?$ctype@D@std@@QEAA@AEBV_Locinfo@1@_K@Z@4HA PROC ; `std::ctype<char>::ctype<char>'::`1'::dtor$0
	push	rbp
	sub	rsp, 32					; 00000020H
	mov	rbp, rdx
	mov	rcx, QWORD PTR this$[rbp]
	call	??1ctype_base@std@@UEAA@XZ		; std::ctype_base::~ctype_base
	add	rsp, 32					; 00000020H
	pop	rbp
	ret	0
?dtor$0@?0???0?$ctype@D@std@@QEAA@AEBV_Locinfo@1@_K@Z@4HA ENDP ; `std::ctype<char>::ctype<char>'::`1'::dtor$0
text$x	ENDS
; Function compile flags: /Odtp
; File F:\software installation\Visual Studio Installation\VC\Tools\MSVC\14.38.33130\include\xlocale
;	COMDAT ?widen@?$ctype@D@std@@QEBADD@Z
_TEXT	SEGMENT
this$ = 48
_Byte$ = 56
?widen@?$ctype@D@std@@QEBADD@Z PROC			; std::ctype<char>::widen, COMDAT

; 2694 :     _Elem __CLR_OR_THIS_CALL widen(char _Byte) const { // widen char

$LN3:
	mov	BYTE PTR [rsp+16], dl
	mov	QWORD PTR [rsp+8], rcx
	sub	rsp, 40					; 00000028H

; 2695 :         return do_widen(_Byte);

	mov	rax, QWORD PTR this$[rsp]
	mov	rax, QWORD PTR [rax]
	movzx	edx, BYTE PTR _Byte$[rsp]
	mov	rcx, QWORD PTR this$[rsp]
	call	QWORD PTR [rax+64]

; 2696 :     }

	add	rsp, 40					; 00000028H
	ret	0
?widen@?$ctype@D@std@@QEBADD@Z ENDP			; std::ctype<char>::widen
_TEXT	ENDS
; Function compile flags: /Odtp
;	COMDAT ??_Gctype_base@std@@UEAAPEAXI@Z
_TEXT	SEGMENT
this$ = 48
__flags$ = 56
??_Gctype_base@std@@UEAAPEAXI@Z PROC			; std::ctype_base::`scalar deleting destructor', COMDAT
$LN4:
	mov	DWORD PTR [rsp+16], edx
	mov	QWORD PTR [rsp+8], rcx
	sub	rsp, 40					; 00000028H
	mov	rcx, QWORD PTR this$[rsp]
	call	??1ctype_base@std@@UEAA@XZ		; std::ctype_base::~ctype_base
	mov	eax, DWORD PTR __flags$[rsp]
	and	eax, 1
	test	eax, eax
	je	SHORT $LN2@scalar
	mov	edx, 16
	mov	rcx, QWORD PTR this$[rsp]
	call	??3@YAXPEAX_K@Z				; operator delete
$LN2@scalar:
	mov	rax, QWORD PTR this$[rsp]
	add	rsp, 40					; 00000028H
	ret	0
??_Gctype_base@std@@UEAAPEAXI@Z ENDP			; std::ctype_base::`scalar deleting destructor'
_TEXT	ENDS
; Function compile flags: /Odtp
; File F:\software installation\Visual Studio Installation\VC\Tools\MSVC\14.38.33130\include\xlocale
;	COMDAT ??1ctype_base@std@@UEAA@XZ
_TEXT	SEGMENT
this$ = 48
??1ctype_base@std@@UEAA@XZ PROC				; std::ctype_base::~ctype_base, COMDAT

; 2390 :     __CLR_OR_THIS_CALL ~ctype_base() noexcept override {}

$LN3:
	mov	QWORD PTR [rsp+8], rcx
	sub	rsp, 40					; 00000028H
	mov	rax, QWORD PTR this$[rsp]
	lea	rcx, OFFSET FLAT:??_7ctype_base@std@@6B@
	mov	QWORD PTR [rax], rcx
	mov	rcx, QWORD PTR this$[rsp]
	call	??1facet@locale@std@@MEAA@XZ		; std::locale::facet::~facet
	add	rsp, 40					; 00000028H
	ret	0
??1ctype_base@std@@UEAA@XZ ENDP				; std::ctype_base::~ctype_base
_TEXT	ENDS
; Function compile flags: /Odtp
; File F:\software installation\Visual Studio Installation\VC\Tools\MSVC\14.38.33130\include\xlocale
;	COMDAT ??0ctype_base@std@@QEAA@_K@Z
_TEXT	SEGMENT
this$ = 48
_Refs$ = 56
??0ctype_base@std@@QEAA@_K@Z PROC			; std::ctype_base::ctype_base, COMDAT

; 2387 :     __CLR_OR_THIS_CALL ctype_base(size_t _Refs = 0) noexcept // strengthened

$LN3:
	mov	QWORD PTR [rsp+16], rdx
	mov	QWORD PTR [rsp+8], rcx
	sub	rsp, 40					; 00000028H

; 2388 :         : locale::facet(_Refs) {}

	mov	rdx, QWORD PTR _Refs$[rsp]
	mov	rcx, QWORD PTR this$[rsp]
	call	??0facet@locale@std@@IEAA@_K@Z		; std::locale::facet::facet
	mov	rax, QWORD PTR this$[rsp]
	lea	rcx, OFFSET FLAT:??_7ctype_base@std@@6B@
	mov	QWORD PTR [rax], rcx
	mov	rax, QWORD PTR this$[rsp]
	add	rsp, 40					; 00000028H
	ret	0
??0ctype_base@std@@QEAA@_K@Z ENDP			; std::ctype_base::ctype_base
_TEXT	ENDS
; Function compile flags: /Odtp
; File F:\software installation\Visual Studio Installation\VC\Tools\MSVC\14.38.33130\include\xutility
;	COMDAT ??$_Adl_verify_range@PEBDPEBD@std@@YAXAEBQEBD0@Z
_TEXT	SEGMENT
_First$ = 8
_Last$ = 16
??$_Adl_verify_range@PEBDPEBD@std@@YAXAEBQEBD0@Z PROC	; std::_Adl_verify_range<char const *,char const *>, COMDAT

; 1152 : constexpr void _Adl_verify_range(const _Iter& _First, const _Sentinel& _Last) {

	mov	QWORD PTR [rsp+16], rdx
	mov	QWORD PTR [rsp+8], rcx

; 1153 :     // check that [_First, _Last) forms an iterator range
; 1154 :     if constexpr (_Range_verifiable_v<_Iter, _Sentinel>) {
; 1155 :         _Verify_range(_First, _Last);
; 1156 :     }
; 1157 : }

	ret	0
??$_Adl_verify_range@PEBDPEBD@std@@YAXAEBQEBD0@Z ENDP	; std::_Adl_verify_range<char const *,char const *>
_TEXT	ENDS
; Function compile flags: /Odtp
; File F:\software installation\Visual Studio Installation\VC\Tools\MSVC\14.38.33130\include\xlocale
;	COMDAT ?_Getfacet@locale@std@@QEBAPEBVfacet@12@_K@Z
_TEXT	SEGMENT
tv71 = 32
_Facptr$ = 40
_Ptr0$ = 48
this$ = 80
_Id$ = 88
?_Getfacet@locale@std@@QEBAPEBVfacet@12@_K@Z PROC	; std::locale::_Getfacet, COMDAT

; 380  :     const facet* _Getfacet(size_t _Id) const { // look up a facet in locale object

$LN8:
	mov	QWORD PTR [rsp+16], rdx
	mov	QWORD PTR [rsp+8], rcx
	sub	rsp, 72					; 00000048H

; 381  :         const facet* _Facptr = _Id < _Ptr->_Facetcount ? _Ptr->_Facetvec[_Id] : nullptr; // null if id off end

	mov	rax, QWORD PTR this$[rsp]
	mov	rax, QWORD PTR [rax+8]
	mov	rax, QWORD PTR [rax+24]
	cmp	QWORD PTR _Id$[rsp], rax
	jae	SHORT $LN6@Getfacet
	mov	rax, QWORD PTR this$[rsp]
	mov	rax, QWORD PTR [rax+8]
	mov	rax, QWORD PTR [rax+16]
	mov	rcx, QWORD PTR _Id$[rsp]
	mov	rax, QWORD PTR [rax+rcx*8]
	mov	QWORD PTR tv71[rsp], rax
	jmp	SHORT $LN7@Getfacet
$LN6@Getfacet:
	mov	QWORD PTR tv71[rsp], 0
$LN7@Getfacet:
	mov	rax, QWORD PTR tv71[rsp]
	mov	QWORD PTR _Facptr$[rsp], rax

; 382  :         if (_Facptr || !_Ptr->_Xparent) {

	cmp	QWORD PTR _Facptr$[rsp], 0
	jne	SHORT $LN3@Getfacet
	mov	rax, QWORD PTR this$[rsp]
	mov	rax, QWORD PTR [rax+8]
	movzx	eax, BYTE PTR [rax+36]
	test	eax, eax
	jne	SHORT $LN2@Getfacet
$LN3@Getfacet:

; 383  :             return _Facptr; // found facet or not transparent

	mov	rax, QWORD PTR _Facptr$[rsp]
	jmp	SHORT $LN1@Getfacet
$LN2@Getfacet:

; 384  :         }
; 385  : 
; 386  :         // look in current locale
; 387  :         locale::_Locimp* _Ptr0 = _Getgloballocale();

	call	?_Getgloballocale@locale@std@@CAPEAV_Locimp@12@XZ ; std::locale::_Getgloballocale
	mov	QWORD PTR _Ptr0$[rsp], rax

; 388  :         if (_Id < _Ptr0->_Facetcount) {

	mov	rax, QWORD PTR _Ptr0$[rsp]
	mov	rax, QWORD PTR [rax+24]
	cmp	QWORD PTR _Id$[rsp], rax
	jae	SHORT $LN4@Getfacet

; 389  :             return _Ptr0->_Facetvec[_Id]; // get from current locale

	mov	rax, QWORD PTR _Ptr0$[rsp]
	mov	rax, QWORD PTR [rax+16]
	mov	rcx, QWORD PTR _Id$[rsp]
	mov	rax, QWORD PTR [rax+rcx*8]
	jmp	SHORT $LN1@Getfacet
$LN4@Getfacet:

; 390  :         }
; 391  : 
; 392  :         return nullptr; // no entry in current locale

	xor	eax, eax
$LN1@Getfacet:

; 393  :     }

	add	rsp, 72					; 00000048H
	ret	0
?_Getfacet@locale@std@@QEBAPEBVfacet@12@_K@Z ENDP	; std::locale::_Getfacet
_TEXT	ENDS
; Function compile flags: /Odtp
; File F:\software installation\Visual Studio Installation\VC\Tools\MSVC\14.38.33130\include\xlocale
;	COMDAT ?_C_str@locale@std@@QEBAPEBDXZ
_TEXT	SEGMENT
tv70 = 32
this$ = 64
?_C_str@locale@std@@QEBAPEBDXZ PROC			; std::locale::_C_str, COMDAT

; 376  :     _Ret_z_ const char* _C_str() const noexcept {

$LN5:
	mov	QWORD PTR [rsp+8], rcx
	sub	rsp, 56					; 00000038H

; 377  :         return _Ptr ? _Ptr->_Name.c_str() : "";

	mov	rax, QWORD PTR this$[rsp]
	cmp	QWORD PTR [rax+8], 0
	je	SHORT $LN3@C_str
	mov	rax, QWORD PTR this$[rsp]
	mov	rax, QWORD PTR [rax+8]
	add	rax, 40					; 00000028H
	mov	rcx, rax
	call	?c_str@?$_Yarn@D@std@@QEBAPEBDXZ	; std::_Yarn<char>::c_str
	mov	QWORD PTR tv70[rsp], rax
	jmp	SHORT $LN4@C_str
$LN3@C_str:
	lea	rax, OFFSET FLAT:??_C@_00CNPNBAHC@@
	mov	QWORD PTR tv70[rsp], rax
$LN4@C_str:
	mov	rax, QWORD PTR tv70[rsp]

; 378  :     }

	add	rsp, 56					; 00000038H
	ret	0
?_C_str@locale@std@@QEBAPEBDXZ ENDP			; std::locale::_C_str
_TEXT	ENDS
; Function compile flags: /Odtp
; File F:\software installation\Visual Studio Installation\VC\Tools\MSVC\14.38.33130\include\xlocale
;	COMDAT ??1locale@std@@QEAA@XZ
_TEXT	SEGMENT
$T1 = 32
tv84 = 40
this$ = 64
??1locale@std@@QEAA@XZ PROC				; std::locale::~locale, COMDAT

; 357  :     ~locale() noexcept {

$LN6:
	mov	QWORD PTR [rsp+8], rcx
	sub	rsp, 56					; 00000038H

; 358  :         if (_Ptr) {

	mov	rax, QWORD PTR this$[rsp]
	cmp	QWORD PTR [rax+8], 0
	je	SHORT $LN2@locale

; 359  :             delete _Ptr->_Decref();

	mov	rax, QWORD PTR this$[rsp]
	mov	rax, QWORD PTR [rax+8]
	mov	rcx, QWORD PTR this$[rsp]
	mov	rcx, QWORD PTR [rcx+8]
	mov	rax, QWORD PTR [rax]
	call	QWORD PTR [rax+16]
	mov	QWORD PTR $T1[rsp], rax
	cmp	QWORD PTR $T1[rsp], 0
	je	SHORT $LN4@locale
	mov	rax, QWORD PTR $T1[rsp]
	mov	rax, QWORD PTR [rax]
	mov	edx, 1
	mov	rcx, QWORD PTR $T1[rsp]
	call	QWORD PTR [rax]
	mov	QWORD PTR tv84[rsp], rax
	jmp	SHORT $LN2@locale
$LN4@locale:
	mov	QWORD PTR tv84[rsp], 0
$LN2@locale:

; 360  :         }
; 361  :     }

	add	rsp, 56					; 00000038H
	ret	0
??1locale@std@@QEAA@XZ ENDP				; std::locale::~locale
_TEXT	ENDS
; Function compile flags: /Odtp
; File F:\software installation\Visual Studio Installation\VC\Tools\MSVC\14.38.33130\include\xlocale
;	COMDAT ??0locale@std@@QEAA@AEBV01@@Z
_TEXT	SEGMENT
this$ = 48
_Right$ = 56
??0locale@std@@QEAA@AEBV01@@Z PROC			; std::locale::locale, COMDAT

; 272  :     locale(const locale& _Right) noexcept : _Ptr(_Right._Ptr) {

$LN3:
	mov	QWORD PTR [rsp+16], rdx
	mov	QWORD PTR [rsp+8], rcx
	sub	rsp, 40					; 00000028H
	mov	rax, QWORD PTR this$[rsp]
	mov	rcx, QWORD PTR _Right$[rsp]
	mov	rcx, QWORD PTR [rcx+8]
	mov	QWORD PTR [rax+8], rcx

; 273  :         _Ptr->_Incref();

	mov	rax, QWORD PTR this$[rsp]
	mov	rax, QWORD PTR [rax+8]
	mov	rcx, QWORD PTR this$[rsp]
	mov	rcx, QWORD PTR [rcx+8]
	mov	rax, QWORD PTR [rax]
	call	QWORD PTR [rax+8]

; 274  :     }

	mov	rax, QWORD PTR this$[rsp]
	add	rsp, 40					; 00000028H
	ret	0
??0locale@std@@QEAA@AEBV01@@Z ENDP			; std::locale::locale
_TEXT	ENDS
; Function compile flags: /Odtp
;	COMDAT ??_Gfacet@locale@std@@MEAAPEAXI@Z
_TEXT	SEGMENT
this$ = 48
__flags$ = 56
??_Gfacet@locale@std@@MEAAPEAXI@Z PROC			; std::locale::facet::`scalar deleting destructor', COMDAT
$LN4:
	mov	DWORD PTR [rsp+16], edx
	mov	QWORD PTR [rsp+8], rcx
	sub	rsp, 40					; 00000028H
	mov	rcx, QWORD PTR this$[rsp]
	call	??1facet@locale@std@@MEAA@XZ		; std::locale::facet::~facet
	mov	eax, DWORD PTR __flags$[rsp]
	and	eax, 1
	test	eax, eax
	je	SHORT $LN2@scalar
	mov	edx, 16
	mov	rcx, QWORD PTR this$[rsp]
	call	??3@YAXPEAX_K@Z				; operator delete
$LN2@scalar:
	mov	rax, QWORD PTR this$[rsp]
	add	rsp, 40					; 00000028H
	ret	0
??_Gfacet@locale@std@@MEAAPEAXI@Z ENDP			; std::locale::facet::`scalar deleting destructor'
_TEXT	ENDS
; Function compile flags: /Odtp
; File F:\software installation\Visual Studio Installation\VC\Tools\MSVC\14.38.33130\include\xlocale
;	COMDAT ??1facet@locale@std@@MEAA@XZ
_TEXT	SEGMENT
this$ = 48
??1facet@locale@std@@MEAA@XZ PROC			; std::locale::facet::~facet, COMDAT

; 150  :         __CLR_OR_THIS_CALL ~facet() noexcept override {}

$LN3:
	mov	QWORD PTR [rsp+8], rcx
	sub	rsp, 40					; 00000028H
	mov	rax, QWORD PTR this$[rsp]
	lea	rcx, OFFSET FLAT:??_7facet@locale@std@@6B@
	mov	QWORD PTR [rax], rcx
	mov	rcx, QWORD PTR this$[rsp]
	call	??1_Facet_base@std@@UEAA@XZ		; std::_Facet_base::~_Facet_base
	add	rsp, 40					; 00000028H
	ret	0
??1facet@locale@std@@MEAA@XZ ENDP			; std::locale::facet::~facet
_TEXT	ENDS
; Function compile flags: /Odtp
; File F:\software installation\Visual Studio Installation\VC\Tools\MSVC\14.38.33130\include\xlocale
;	COMDAT ??0facet@locale@std@@IEAA@_K@Z
_TEXT	SEGMENT
this$ = 48
_Initrefs$ = 56
??0facet@locale@std@@IEAA@_K@Z PROC			; std::locale::facet::facet, COMDAT

; 148  :         {}

$LN3:
	mov	QWORD PTR [rsp+16], rdx
	mov	QWORD PTR [rsp+8], rcx
	sub	rsp, 40					; 00000028H
	mov	rcx, QWORD PTR this$[rsp]
	call	??0_Facet_base@std@@QEAA@XZ
	mov	rax, QWORD PTR this$[rsp]
	lea	rcx, OFFSET FLAT:??_7facet@locale@std@@6B@
	mov	QWORD PTR [rax], rcx

; 147  :             : _Myrefs(static_cast<_Atomic_counter_t>(_Initrefs)) // non-atomic initialization

	mov	rax, QWORD PTR this$[rsp]
	mov	ecx, DWORD PTR _Initrefs$[rsp]
	mov	DWORD PTR [rax+8], ecx

; 148  :         {}

	mov	rax, QWORD PTR this$[rsp]
	add	rsp, 40					; 00000028H
	ret	0
??0facet@locale@std@@IEAA@_K@Z ENDP			; std::locale::facet::facet
_TEXT	ENDS
; Function compile flags: /Odtp
; File F:\software installation\Visual Studio Installation\VC\Tools\MSVC\14.38.33130\include\xlocale
;	COMDAT ?_Decref@facet@locale@std@@UEAAPEAV_Facet_base@3@XZ
_TEXT	SEGMENT
this$ = 8
?_Decref@facet@locale@std@@UEAAPEAV_Facet_base@3@XZ PROC ; std::locale::facet::_Decref, COMDAT

; 134  :         _Facet_base* __CLR_OR_THIS_CALL _Decref() noexcept override { // decrement use count

	mov	QWORD PTR [rsp+8], rcx

; 135  :             if (_MT_DECR(_Myrefs) == 0) {

	mov	rax, QWORD PTR this$[rsp]
	add	rax, 8
	mov	ecx, -1
	lock xadd DWORD PTR [rax], ecx
	dec	ecx
	mov	eax, ecx
	test	eax, eax
	jne	SHORT $LN2@Decref

; 136  :                 return this;

	mov	rax, QWORD PTR this$[rsp]
	jmp	SHORT $LN1@Decref
$LN2@Decref:

; 137  :             }
; 138  : 
; 139  :             return nullptr;

	xor	eax, eax
$LN1@Decref:

; 140  :         }

	ret	0
?_Decref@facet@locale@std@@UEAAPEAV_Facet_base@3@XZ ENDP ; std::locale::facet::_Decref
_TEXT	ENDS
; Function compile flags: /Odtp
; File F:\software installation\Visual Studio Installation\VC\Tools\MSVC\14.38.33130\include\xlocale
;	COMDAT ?_Incref@facet@locale@std@@UEAAXXZ
_TEXT	SEGMENT
this$ = 8
?_Incref@facet@locale@std@@UEAAXXZ PROC			; std::locale::facet::_Incref, COMDAT

; 130  :         void __CLR_OR_THIS_CALL _Incref() noexcept override { // increment use count

	mov	QWORD PTR [rsp+8], rcx

; 131  :             _MT_INCR(_Myrefs);

	mov	rax, QWORD PTR this$[rsp]
	add	rax, 8
	lock inc DWORD PTR [rax]

; 132  :         }

	ret	0
?_Incref@facet@locale@std@@UEAAXXZ ENDP			; std::locale::facet::_Incref
_TEXT	ENDS
; Function compile flags: /Odtp
; File F:\software installation\Visual Studio Installation\VC\Tools\MSVC\14.38.33130\include\xlocale
;	COMDAT ??Bid@locale@std@@QEAA_KXZ
_TEXT	SEGMENT
_Lock$1 = 32
this$ = 64
??Bid@locale@std@@QEAA_KXZ PROC				; std::locale::id::operator unsigned __int64, COMDAT

; 100  :         __CLR_OR_THIS_CALL operator size_t() { // get stamp, with lazy allocation

$LN6:
	mov	QWORD PTR [rsp+8], rcx
	sub	rsp, 56					; 00000038H

; 101  :             if (_Id == 0) { // still zero, allocate stamp

	mov	rax, QWORD PTR this$[rsp]
	cmp	QWORD PTR [rax], 0
	jne	SHORT $LN2@operator

; 102  :                 _BEGIN_LOCK(_LOCK_LOCALE)

	xor	edx, edx
	lea	rcx, QWORD PTR _Lock$1[rsp]
	call	??0_Lockit@std@@QEAA@H@Z		; std::_Lockit::_Lockit

; 103  :                 if (_Id == 0) {

	mov	rax, QWORD PTR this$[rsp]
	cmp	QWORD PTR [rax], 0
	jne	SHORT $LN3@operator

; 104  :                     _Id = static_cast<size_t>(++_Id_cnt);

	mov	eax, DWORD PTR ?_Id_cnt@id@locale@std@@0HA ; std::locale::id::_Id_cnt
	inc	eax
	mov	DWORD PTR ?_Id_cnt@id@locale@std@@0HA, eax ; std::locale::id::_Id_cnt
	movsxd	rax, DWORD PTR ?_Id_cnt@id@locale@std@@0HA ; std::locale::id::_Id_cnt
	mov	rcx, QWORD PTR this$[rsp]
	mov	QWORD PTR [rcx], rax
$LN3@operator:

; 105  :                 }
; 106  :                 _END_LOCK()

	lea	rcx, QWORD PTR _Lock$1[rsp]
	call	??1_Lockit@std@@QEAA@XZ			; std::_Lockit::~_Lockit
$LN2@operator:

; 107  :             }
; 108  :             return _Id;

	mov	rax, QWORD PTR this$[rsp]
	mov	rax, QWORD PTR [rax]

; 109  :         }

	add	rsp, 56					; 00000038H
	ret	0
??Bid@locale@std@@QEAA_KXZ ENDP				; std::locale::id::operator unsigned __int64
_TEXT	ENDS
; Function compile flags: /Odtp
; File F:\software installation\Visual Studio Installation\VC\Tools\MSVC\14.38.33130\include\xlocinfo
;	COMDAT ?_Tidy@?$_Yarn@_W@std@@AEAAXXZ
_TEXT	SEGMENT
this$ = 48
?_Tidy@?$_Yarn@_W@std@@AEAAXXZ PROC			; std::_Yarn<wchar_t>::_Tidy, COMDAT

; 199  :     void __CLR_OR_THIS_CALL _Tidy() noexcept {

$LN4:
	mov	QWORD PTR [rsp+8], rcx
	sub	rsp, 40					; 00000028H

; 200  :         if (_Myptr) {

	mov	rax, QWORD PTR this$[rsp]
	cmp	QWORD PTR [rax], 0
	je	SHORT $LN2@Tidy

; 201  : #ifdef _DEBUG
; 202  :             _free_dbg(_Myptr, _CRT_BLOCK);
; 203  : #else
; 204  :             _CSTD free(_Myptr);

	mov	rax, QWORD PTR this$[rsp]
	mov	rcx, QWORD PTR [rax]
	call	free
$LN2@Tidy:

; 205  : #endif
; 206  :         }
; 207  : 
; 208  :         _Myptr = nullptr;

	mov	rax, QWORD PTR this$[rsp]
	mov	QWORD PTR [rax], 0

; 209  :     }

	add	rsp, 40					; 00000028H
	ret	0
?_Tidy@?$_Yarn@_W@std@@AEAAXXZ ENDP			; std::_Yarn<wchar_t>::_Tidy
_TEXT	ENDS
; Function compile flags: /Odtp
; File F:\software installation\Visual Studio Installation\VC\Tools\MSVC\14.38.33130\include\xlocinfo
;	COMDAT ??1?$_Yarn@_W@std@@QEAA@XZ
_TEXT	SEGMENT
this$ = 48
??1?$_Yarn@_W@std@@QEAA@XZ PROC				; std::_Yarn<wchar_t>::~_Yarn<wchar_t>, COMDAT

; 178  :     __CLR_OR_THIS_CALL ~_Yarn() noexcept {

$LN3:
	mov	QWORD PTR [rsp+8], rcx
	sub	rsp, 40					; 00000028H

; 179  :         _Tidy();

	mov	rcx, QWORD PTR this$[rsp]
	call	?_Tidy@?$_Yarn@_W@std@@AEAAXXZ		; std::_Yarn<wchar_t>::_Tidy

; 180  :     }

	add	rsp, 40					; 00000028H
	ret	0
??1?$_Yarn@_W@std@@QEAA@XZ ENDP				; std::_Yarn<wchar_t>::~_Yarn<wchar_t>
_TEXT	ENDS
; Function compile flags: /Odtp
; File F:\software installation\Visual Studio Installation\VC\Tools\MSVC\14.38.33130\include\xlocinfo
;	COMDAT ??0?$_Yarn@_W@std@@QEAA@XZ
_TEXT	SEGMENT
this$ = 8
??0?$_Yarn@_W@std@@QEAA@XZ PROC				; std::_Yarn<wchar_t>::_Yarn<wchar_t>, COMDAT

; 137  :     __CLR_OR_THIS_CALL _Yarn() noexcept : _Myptr(nullptr), _Nul(0) {}

	mov	QWORD PTR [rsp+8], rcx
	mov	rax, QWORD PTR this$[rsp]
	mov	QWORD PTR [rax], 0
	xor	eax, eax
	mov	rcx, QWORD PTR this$[rsp]
	mov	WORD PTR [rcx+8], ax
	mov	rax, QWORD PTR this$[rsp]
	ret	0
??0?$_Yarn@_W@std@@QEAA@XZ ENDP				; std::_Yarn<wchar_t>::_Yarn<wchar_t>
_TEXT	ENDS
; Function compile flags: /Odtp
; File F:\software installation\Visual Studio Installation\VC\Tools\MSVC\14.38.33130\include\xlocinfo
;	COMDAT ?_Tidy@?$_Yarn@D@std@@AEAAXXZ
_TEXT	SEGMENT
this$ = 48
?_Tidy@?$_Yarn@D@std@@AEAAXXZ PROC			; std::_Yarn<char>::_Tidy, COMDAT

; 199  :     void __CLR_OR_THIS_CALL _Tidy() noexcept {

$LN4:
	mov	QWORD PTR [rsp+8], rcx
	sub	rsp, 40					; 00000028H

; 200  :         if (_Myptr) {

	mov	rax, QWORD PTR this$[rsp]
	cmp	QWORD PTR [rax], 0
	je	SHORT $LN2@Tidy

; 201  : #ifdef _DEBUG
; 202  :             _free_dbg(_Myptr, _CRT_BLOCK);
; 203  : #else
; 204  :             _CSTD free(_Myptr);

	mov	rax, QWORD PTR this$[rsp]
	mov	rcx, QWORD PTR [rax]
	call	free
$LN2@Tidy:

; 205  : #endif
; 206  :         }
; 207  : 
; 208  :         _Myptr = nullptr;

	mov	rax, QWORD PTR this$[rsp]
	mov	QWORD PTR [rax], 0

; 209  :     }

	add	rsp, 40					; 00000028H
	ret	0
?_Tidy@?$_Yarn@D@std@@AEAAXXZ ENDP			; std::_Yarn<char>::_Tidy
_TEXT	ENDS
; Function compile flags: /Odtp
; File F:\software installation\Visual Studio Installation\VC\Tools\MSVC\14.38.33130\include\xlocinfo
;	COMDAT ?c_str@?$_Yarn@D@std@@QEBAPEBDXZ
_TEXT	SEGMENT
tv68 = 0
this$ = 32
?c_str@?$_Yarn@D@std@@QEBAPEBDXZ PROC			; std::_Yarn<char>::c_str, COMDAT

; 186  :     _Ret_z_ const _Elem* __CLR_OR_THIS_CALL c_str() const noexcept {

$LN5:
	mov	QWORD PTR [rsp+8], rcx
	sub	rsp, 24

; 187  :         return _Myptr ? _Myptr : &_Nul;

	mov	rax, QWORD PTR this$[rsp]
	cmp	QWORD PTR [rax], 0
	je	SHORT $LN3@c_str
	mov	rax, QWORD PTR this$[rsp]
	mov	rax, QWORD PTR [rax]
	mov	QWORD PTR tv68[rsp], rax
	jmp	SHORT $LN4@c_str
$LN3@c_str:
	mov	rax, QWORD PTR this$[rsp]
	add	rax, 8
	mov	QWORD PTR tv68[rsp], rax
$LN4@c_str:
	mov	rax, QWORD PTR tv68[rsp]

; 188  :     }

	add	rsp, 24
	ret	0
?c_str@?$_Yarn@D@std@@QEBAPEBDXZ ENDP			; std::_Yarn<char>::c_str
_TEXT	ENDS
; Function compile flags: /Odtp
; File F:\software installation\Visual Studio Installation\VC\Tools\MSVC\14.38.33130\include\xlocinfo
;	COMDAT ??1?$_Yarn@D@std@@QEAA@XZ
_TEXT	SEGMENT
this$ = 48
??1?$_Yarn@D@std@@QEAA@XZ PROC				; std::_Yarn<char>::~_Yarn<char>, COMDAT

; 178  :     __CLR_OR_THIS_CALL ~_Yarn() noexcept {

$LN3:
	mov	QWORD PTR [rsp+8], rcx
	sub	rsp, 40					; 00000028H

; 179  :         _Tidy();

	mov	rcx, QWORD PTR this$[rsp]
	call	?_Tidy@?$_Yarn@D@std@@AEAAXXZ		; std::_Yarn<char>::_Tidy

; 180  :     }

	add	rsp, 40					; 00000028H
	ret	0
??1?$_Yarn@D@std@@QEAA@XZ ENDP				; std::_Yarn<char>::~_Yarn<char>
_TEXT	ENDS
; Function compile flags: /Odtp
; File F:\software installation\Visual Studio Installation\VC\Tools\MSVC\14.38.33130\include\xlocinfo
;	COMDAT ??0?$_Yarn@D@std@@QEAA@XZ
_TEXT	SEGMENT
this$ = 8
??0?$_Yarn@D@std@@QEAA@XZ PROC				; std::_Yarn<char>::_Yarn<char>, COMDAT

; 137  :     __CLR_OR_THIS_CALL _Yarn() noexcept : _Myptr(nullptr), _Nul(0) {}

	mov	QWORD PTR [rsp+8], rcx
	mov	rax, QWORD PTR this$[rsp]
	mov	QWORD PTR [rax], 0
	mov	rax, QWORD PTR this$[rsp]
	mov	BYTE PTR [rax+8], 0
	mov	rax, QWORD PTR this$[rsp]
	ret	0
??0?$_Yarn@D@std@@QEAA@XZ ENDP				; std::_Yarn<char>::_Yarn<char>
_TEXT	ENDS
; Function compile flags: /Odtp
; File F:\software installation\Visual Studio Installation\VC\Tools\MSVC\14.38.33130\include\xlocinfo
;	COMDAT ?_Getctype@_Locinfo@std@@QEBA?AU_Ctypevec@@XZ
_TEXT	SEGMENT
$T1 = 32
$T2 = 64
this$ = 128
__$ReturnUdt$ = 136
?_Getctype@_Locinfo@std@@QEBA?AU_Ctypevec@@XZ PROC	; std::_Locinfo::_Getctype, COMDAT

; 273  :     _Ctypevec __CLR_OR_THIS_CALL _Getctype() const {

$LN3:
	mov	QWORD PTR [rsp+16], rdx
	mov	QWORD PTR [rsp+8], rcx
	push	rsi
	push	rdi
	sub	rsp, 104				; 00000068H

; 274  :         return ::_Getctype();

	lea	rcx, QWORD PTR $T2[rsp]
	call	_Getctype
	lea	rcx, QWORD PTR $T1[rsp]
	mov	rdi, rcx
	mov	rsi, rax
	mov	ecx, 32					; 00000020H
	rep movsb
	lea	rax, QWORD PTR $T1[rsp]
	mov	rdi, QWORD PTR __$ReturnUdt$[rsp]
	mov	rsi, rax
	mov	ecx, 32					; 00000020H
	rep movsb
	mov	rax, QWORD PTR __$ReturnUdt$[rsp]

; 275  :     }

	add	rsp, 104				; 00000068H
	pop	rdi
	pop	rsi
	ret	0
?_Getctype@_Locinfo@std@@QEBA?AU_Ctypevec@@XZ ENDP	; std::_Locinfo::_Getctype
_TEXT	ENDS
; Function compile flags: /Odtp
; File F:\software installation\Visual Studio Installation\VC\Tools\MSVC\14.38.33130\include\xlocinfo
;	COMDAT ??1_Locinfo@std@@QEAA@XZ
_TEXT	SEGMENT
this$ = 48
??1_Locinfo@std@@QEAA@XZ PROC				; std::_Locinfo::~_Locinfo, COMDAT

; 253  :     __CLR_OR_THIS_CALL ~_Locinfo() noexcept {

$LN3:
	mov	QWORD PTR [rsp+8], rcx
	sub	rsp, 40					; 00000028H

; 254  :         _Locinfo_dtor(this);

	mov	rcx, QWORD PTR this$[rsp]
	call	?_Locinfo_dtor@_Locinfo@std@@SAXPEAV12@@Z ; std::_Locinfo::_Locinfo_dtor

; 255  :     }

	mov	rax, QWORD PTR this$[rsp]
	add	rax, 88					; 00000058H
	mov	rcx, rax
	call	??1?$_Yarn@D@std@@QEAA@XZ		; std::_Yarn<char>::~_Yarn<char>
	mov	rax, QWORD PTR this$[rsp]
	add	rax, 72					; 00000048H
	mov	rcx, rax
	call	??1?$_Yarn@D@std@@QEAA@XZ		; std::_Yarn<char>::~_Yarn<char>
	mov	rax, QWORD PTR this$[rsp]
	add	rax, 56					; 00000038H
	mov	rcx, rax
	call	??1?$_Yarn@_W@std@@QEAA@XZ		; std::_Yarn<wchar_t>::~_Yarn<wchar_t>
	mov	rax, QWORD PTR this$[rsp]
	add	rax, 40					; 00000028H
	mov	rcx, rax
	call	??1?$_Yarn@_W@std@@QEAA@XZ		; std::_Yarn<wchar_t>::~_Yarn<wchar_t>
	mov	rax, QWORD PTR this$[rsp]
	add	rax, 24
	mov	rcx, rax
	call	??1?$_Yarn@D@std@@QEAA@XZ		; std::_Yarn<char>::~_Yarn<char>
	mov	rax, QWORD PTR this$[rsp]
	add	rax, 8
	mov	rcx, rax
	call	??1?$_Yarn@D@std@@QEAA@XZ		; std::_Yarn<char>::~_Yarn<char>
	mov	rax, QWORD PTR this$[rsp]
	mov	rcx, rax
	call	??1_Lockit@std@@QEAA@XZ			; std::_Lockit::~_Lockit
	npad	1
	add	rsp, 40					; 00000028H
	ret	0
??1_Locinfo@std@@QEAA@XZ ENDP				; std::_Locinfo::~_Locinfo
_TEXT	ENDS
; Function compile flags: /Odtp
; File F:\software installation\Visual Studio Installation\VC\Tools\MSVC\14.38.33130\include\xlocinfo
;	COMDAT ??0_Locinfo@std@@QEAA@PEBD@Z
_TEXT	SEGMENT
this$ = 48
_Pch$ = 56
??0_Locinfo@std@@QEAA@PEBD@Z PROC			; std::_Locinfo::_Locinfo, COMDAT

; 231  :     {

$LN12:
	mov	QWORD PTR [rsp+16], rdx
	mov	QWORD PTR [rsp+8], rcx
	sub	rsp, 40					; 00000028H

; 229  :         : _Lock(_LOCK_LOCALE)

	mov	rax, QWORD PTR this$[rsp]
	xor	edx, edx
	mov	rcx, rax
	call	??0_Lockit@std@@QEAA@H@Z		; std::_Lockit::_Lockit
	npad	1

; 231  :     {

	mov	rax, QWORD PTR this$[rsp]
	add	rax, 8
	mov	rcx, rax
	call	??0?$_Yarn@D@std@@QEAA@XZ		; std::_Yarn<char>::_Yarn<char>
	npad	1
	mov	rax, QWORD PTR this$[rsp]
	add	rax, 24
	mov	rcx, rax
	call	??0?$_Yarn@D@std@@QEAA@XZ		; std::_Yarn<char>::_Yarn<char>
	npad	1
	mov	rax, QWORD PTR this$[rsp]
	add	rax, 40					; 00000028H
	mov	rcx, rax
	call	??0?$_Yarn@_W@std@@QEAA@XZ		; std::_Yarn<wchar_t>::_Yarn<wchar_t>
	npad	1
	mov	rax, QWORD PTR this$[rsp]
	add	rax, 56					; 00000038H
	mov	rcx, rax
	call	??0?$_Yarn@_W@std@@QEAA@XZ		; std::_Yarn<wchar_t>::_Yarn<wchar_t>
	npad	1
	mov	rax, QWORD PTR this$[rsp]
	add	rax, 72					; 00000048H
	mov	rcx, rax
	call	??0?$_Yarn@D@std@@QEAA@XZ		; std::_Yarn<char>::_Yarn<char>
	npad	1
	mov	rax, QWORD PTR this$[rsp]
	add	rax, 88					; 00000058H
	mov	rcx, rax
	call	??0?$_Yarn@D@std@@QEAA@XZ		; std::_Yarn<char>::_Yarn<char>
	npad	1

; 232  :         if (_Pch) {

	cmp	QWORD PTR _Pch$[rsp], 0
	je	SHORT $LN2@Locinfo

; 233  :             _Locinfo_ctor(this, _Pch);

	mov	rdx, QWORD PTR _Pch$[rsp]
	mov	rcx, QWORD PTR this$[rsp]
	call	?_Locinfo_ctor@_Locinfo@std@@SAXPEAV12@PEBD@Z ; std::_Locinfo::_Locinfo_ctor

; 234  :             return;

	jmp	SHORT $LN1@Locinfo
$LN2@Locinfo:

; 235  :         }
; 236  : 
; 237  :         _Xruntime_error("bad locale name");

	lea	rcx, OFFSET FLAT:??_C@_0BA@ELKIONDK@bad?5locale?5name@
	call	?_Xruntime_error@std@@YAXPEBD@Z		; std::_Xruntime_error
	npad	1
$LN1@Locinfo:

; 238  :     }

	mov	rax, QWORD PTR this$[rsp]
	add	rsp, 40					; 00000028H
	ret	0
$LN11@Locinfo:
??0_Locinfo@std@@QEAA@PEBD@Z ENDP			; std::_Locinfo::_Locinfo
_TEXT	ENDS
; Function compile flags: /Odtp
;	COMDAT text$x
text$x	SEGMENT
this$ = 48
_Pch$ = 56
?dtor$0@?0???0_Locinfo@std@@QEAA@PEBD@Z@4HA PROC	; `std::_Locinfo::_Locinfo'::`1'::dtor$0
	push	rbp
	sub	rsp, 32					; 00000020H
	mov	rbp, rdx
	mov	rcx, QWORD PTR this$[rbp]
	call	??1_Lockit@std@@QEAA@XZ			; std::_Lockit::~_Lockit
	add	rsp, 32					; 00000020H
	pop	rbp
	ret	0
?dtor$0@?0???0_Locinfo@std@@QEAA@PEBD@Z@4HA ENDP	; `std::_Locinfo::_Locinfo'::`1'::dtor$0
text$x	ENDS
; Function compile flags: /Odtp
;	COMDAT text$x
text$x	SEGMENT
this$ = 48
_Pch$ = 56
?dtor$1@?0???0_Locinfo@std@@QEAA@PEBD@Z@4HA PROC	; `std::_Locinfo::_Locinfo'::`1'::dtor$1
	push	rbp
	sub	rsp, 32					; 00000020H
	mov	rbp, rdx
	mov	rcx, QWORD PTR this$[rbp]
	add	rcx, 8
	call	??1?$_Yarn@D@std@@QEAA@XZ		; std::_Yarn<char>::~_Yarn<char>
	add	rsp, 32					; 00000020H
	pop	rbp
	ret	0
?dtor$1@?0???0_Locinfo@std@@QEAA@PEBD@Z@4HA ENDP	; `std::_Locinfo::_Locinfo'::`1'::dtor$1
text$x	ENDS
; Function compile flags: /Odtp
;	COMDAT text$x
text$x	SEGMENT
this$ = 48
_Pch$ = 56
?dtor$2@?0???0_Locinfo@std@@QEAA@PEBD@Z@4HA PROC	; `std::_Locinfo::_Locinfo'::`1'::dtor$2
	push	rbp
	sub	rsp, 32					; 00000020H
	mov	rbp, rdx
	mov	rcx, QWORD PTR this$[rbp]
	add	rcx, 24
	call	??1?$_Yarn@D@std@@QEAA@XZ		; std::_Yarn<char>::~_Yarn<char>
	add	rsp, 32					; 00000020H
	pop	rbp
	ret	0
?dtor$2@?0???0_Locinfo@std@@QEAA@PEBD@Z@4HA ENDP	; `std::_Locinfo::_Locinfo'::`1'::dtor$2
text$x	ENDS
; Function compile flags: /Odtp
;	COMDAT text$x
text$x	SEGMENT
this$ = 48
_Pch$ = 56
?dtor$3@?0???0_Locinfo@std@@QEAA@PEBD@Z@4HA PROC	; `std::_Locinfo::_Locinfo'::`1'::dtor$3
	push	rbp
	sub	rsp, 32					; 00000020H
	mov	rbp, rdx
	mov	rcx, QWORD PTR this$[rbp]
	add	rcx, 40					; 00000028H
	call	??1?$_Yarn@_W@std@@QEAA@XZ		; std::_Yarn<wchar_t>::~_Yarn<wchar_t>
	add	rsp, 32					; 00000020H
	pop	rbp
	ret	0
?dtor$3@?0???0_Locinfo@std@@QEAA@PEBD@Z@4HA ENDP	; `std::_Locinfo::_Locinfo'::`1'::dtor$3
text$x	ENDS
; Function compile flags: /Odtp
;	COMDAT text$x
text$x	SEGMENT
this$ = 48
_Pch$ = 56
?dtor$4@?0???0_Locinfo@std@@QEAA@PEBD@Z@4HA PROC	; `std::_Locinfo::_Locinfo'::`1'::dtor$4
	push	rbp
	sub	rsp, 32					; 00000020H
	mov	rbp, rdx
	mov	rcx, QWORD PTR this$[rbp]
	add	rcx, 56					; 00000038H
	call	??1?$_Yarn@_W@std@@QEAA@XZ		; std::_Yarn<wchar_t>::~_Yarn<wchar_t>
	add	rsp, 32					; 00000020H
	pop	rbp
	ret	0
?dtor$4@?0???0_Locinfo@std@@QEAA@PEBD@Z@4HA ENDP	; `std::_Locinfo::_Locinfo'::`1'::dtor$4
text$x	ENDS
; Function compile flags: /Odtp
;	COMDAT text$x
text$x	SEGMENT
this$ = 48
_Pch$ = 56
?dtor$5@?0???0_Locinfo@std@@QEAA@PEBD@Z@4HA PROC	; `std::_Locinfo::_Locinfo'::`1'::dtor$5
	push	rbp
	sub	rsp, 32					; 00000020H
	mov	rbp, rdx
	mov	rcx, QWORD PTR this$[rbp]
	add	rcx, 72					; 00000048H
	call	??1?$_Yarn@D@std@@QEAA@XZ		; std::_Yarn<char>::~_Yarn<char>
	add	rsp, 32					; 00000020H
	pop	rbp
	ret	0
?dtor$5@?0???0_Locinfo@std@@QEAA@PEBD@Z@4HA ENDP	; `std::_Locinfo::_Locinfo'::`1'::dtor$5
text$x	ENDS
; Function compile flags: /Odtp
;	COMDAT text$x
text$x	SEGMENT
this$ = 48
_Pch$ = 56
?dtor$6@?0???0_Locinfo@std@@QEAA@PEBD@Z@4HA PROC	; `std::_Locinfo::_Locinfo'::`1'::dtor$6
	push	rbp
	sub	rsp, 32					; 00000020H
	mov	rbp, rdx
	mov	rcx, QWORD PTR this$[rbp]
	add	rcx, 88					; 00000058H
	call	??1?$_Yarn@D@std@@QEAA@XZ		; std::_Yarn<char>::~_Yarn<char>
	add	rsp, 32					; 00000020H
	pop	rbp
	ret	0
?dtor$6@?0???0_Locinfo@std@@QEAA@PEBD@Z@4HA ENDP	; `std::_Locinfo::_Locinfo'::`1'::dtor$6
text$x	ENDS
; Function compile flags: /Odtp
;	COMDAT ??_G_Facet_base@std@@UEAAPEAXI@Z
_TEXT	SEGMENT
this$ = 48
__flags$ = 56
??_G_Facet_base@std@@UEAAPEAXI@Z PROC			; std::_Facet_base::`scalar deleting destructor', COMDAT
$LN4:
	mov	DWORD PTR [rsp+16], edx
	mov	QWORD PTR [rsp+8], rcx
	sub	rsp, 40					; 00000028H
	mov	rcx, QWORD PTR this$[rsp]
	call	??1_Facet_base@std@@UEAA@XZ		; std::_Facet_base::~_Facet_base
	mov	eax, DWORD PTR __flags$[rsp]
	and	eax, 1
	test	eax, eax
	je	SHORT $LN2@scalar
	mov	edx, 8
	mov	rcx, QWORD PTR this$[rsp]
	call	??3@YAXPEAX_K@Z				; operator delete
$LN2@scalar:
	mov	rax, QWORD PTR this$[rsp]
	add	rsp, 40					; 00000028H
	ret	0
??_G_Facet_base@std@@UEAAPEAXI@Z ENDP			; std::_Facet_base::`scalar deleting destructor'
_TEXT	ENDS
; Function compile flags: /Odtp
;	COMDAT ??0_Facet_base@std@@QEAA@XZ
_TEXT	SEGMENT
this$ = 8
??0_Facet_base@std@@QEAA@XZ PROC			; std::_Facet_base::_Facet_base, COMDAT
	mov	QWORD PTR [rsp+8], rcx
	mov	rax, QWORD PTR this$[rsp]
	lea	rcx, OFFSET FLAT:??_7_Facet_base@std@@6B@
	mov	QWORD PTR [rax], rcx
	mov	rax, QWORD PTR this$[rsp]
	ret	0
??0_Facet_base@std@@QEAA@XZ ENDP			; std::_Facet_base::_Facet_base
_TEXT	ENDS
; Function compile flags: /Odtp
; File F:\software installation\Visual Studio Installation\VC\Tools\MSVC\14.38.33130\include\xfacet
;	COMDAT ??1_Facet_base@std@@UEAA@XZ
_TEXT	SEGMENT
this$ = 8
??1_Facet_base@std@@UEAA@XZ PROC			; std::_Facet_base::~_Facet_base, COMDAT

; 25   :     virtual __CLR_OR_THIS_CALL ~_Facet_base() noexcept {} // ensure that derived classes can be destroyed properly

	mov	QWORD PTR [rsp+8], rcx
	mov	rax, QWORD PTR this$[rsp]
	lea	rcx, OFFSET FLAT:??_7_Facet_base@std@@6B@
	mov	QWORD PTR [rax], rcx
	ret	0
??1_Facet_base@std@@UEAA@XZ ENDP			; std::_Facet_base::~_Facet_base
_TEXT	ENDS
; Function compile flags: /Odtp
; File F:\software installation\Visual Studio Installation\VC\Tools\MSVC\14.38.33130\include\typeinfo
;	COMDAT ?_Throw_bad_cast@std@@YAXXZ
_TEXT	SEGMENT
$T1 = 32
?_Throw_bad_cast@std@@YAXXZ PROC			; std::_Throw_bad_cast, COMDAT

; 66   : [[noreturn]] inline void _Throw_bad_cast() {

$LN3:
	sub	rsp, 72					; 00000048H

; 67   :     _THROW(bad_cast{});

	lea	rcx, QWORD PTR $T1[rsp]
	call	??0bad_cast@std@@QEAA@XZ		; std::bad_cast::bad_cast
	lea	rdx, OFFSET FLAT:_TI2?AVbad_cast@std@@
	lea	rcx, QWORD PTR $T1[rsp]
	call	_CxxThrowException
$LN2@Throw_bad_:

; 68   : }

	add	rsp, 72					; 00000048H
	ret	0
?_Throw_bad_cast@std@@YAXXZ ENDP			; std::_Throw_bad_cast
_TEXT	ENDS
; Function compile flags: /Odtp
;	COMDAT ??_Gbad_cast@std@@UEAAPEAXI@Z
_TEXT	SEGMENT
this$ = 48
__flags$ = 56
??_Gbad_cast@std@@UEAAPEAXI@Z PROC			; std::bad_cast::`scalar deleting destructor', COMDAT
$LN4:
	mov	DWORD PTR [rsp+16], edx
	mov	QWORD PTR [rsp+8], rcx
	sub	rsp, 40					; 00000028H
	mov	rcx, QWORD PTR this$[rsp]
	call	??1bad_cast@std@@UEAA@XZ
	mov	eax, DWORD PTR __flags$[rsp]
	and	eax, 1
	test	eax, eax
	je	SHORT $LN2@scalar
	mov	edx, 24
	mov	rcx, QWORD PTR this$[rsp]
	call	??3@YAXPEAX_K@Z				; operator delete
$LN2@scalar:
	mov	rax, QWORD PTR this$[rsp]
	add	rsp, 40					; 00000028H
	ret	0
??_Gbad_cast@std@@UEAAPEAXI@Z ENDP			; std::bad_cast::`scalar deleting destructor'
_TEXT	ENDS
; Function compile flags: /Odtp
;	COMDAT ??0bad_cast@std@@QEAA@AEBV01@@Z
_TEXT	SEGMENT
this$ = 48
__that$ = 56
??0bad_cast@std@@QEAA@AEBV01@@Z PROC			; std::bad_cast::bad_cast, COMDAT
$LN3:
	mov	QWORD PTR [rsp+16], rdx
	mov	QWORD PTR [rsp+8], rcx
	sub	rsp, 40					; 00000028H
	mov	rdx, QWORD PTR __that$[rsp]
	mov	rcx, QWORD PTR this$[rsp]
	call	??0exception@std@@QEAA@AEBV01@@Z	; std::exception::exception
	mov	rax, QWORD PTR this$[rsp]
	lea	rcx, OFFSET FLAT:??_7bad_cast@std@@6B@
	mov	QWORD PTR [rax], rcx
	mov	rax, QWORD PTR this$[rsp]
	add	rsp, 40					; 00000028H
	ret	0
??0bad_cast@std@@QEAA@AEBV01@@Z ENDP			; std::bad_cast::bad_cast
_TEXT	ENDS
; Function compile flags: /Odtp
;	COMDAT ??1bad_cast@std@@UEAA@XZ
_TEXT	SEGMENT
this$ = 48
??1bad_cast@std@@UEAA@XZ PROC				; std::bad_cast::~bad_cast, COMDAT
$LN3:
	mov	QWORD PTR [rsp+8], rcx
	sub	rsp, 40					; 00000028H
	mov	rcx, QWORD PTR this$[rsp]
	call	??1exception@std@@UEAA@XZ		; std::exception::~exception
	add	rsp, 40					; 00000028H
	ret	0
??1bad_cast@std@@UEAA@XZ ENDP				; std::bad_cast::~bad_cast
_TEXT	ENDS
; Function compile flags: /Odtp
; File F:\software installation\Visual Studio Installation\VC\Tools\MSVC\14.38.33130\include\vcruntime_typeinfo.h
;	COMDAT ??0bad_cast@std@@QEAA@XZ
_TEXT	SEGMENT
this$ = 48
??0bad_cast@std@@QEAA@XZ PROC				; std::bad_cast::bad_cast, COMDAT

; 153  :     {

$LN3:
	mov	QWORD PTR [rsp+8], rcx
	sub	rsp, 40					; 00000028H

; 152  :         : exception("bad cast", 1)

	mov	r8d, 1
	lea	rdx, OFFSET FLAT:??_C@_08EPJLHIJG@bad?5cast@
	mov	rcx, QWORD PTR this$[rsp]
	call	??0exception@std@@QEAA@QEBDH@Z		; std::exception::exception

; 153  :     {

	mov	rax, QWORD PTR this$[rsp]
	lea	rcx, OFFSET FLAT:??_7bad_cast@std@@6B@
	mov	QWORD PTR [rax], rcx

; 154  :     }

	mov	rax, QWORD PTR this$[rsp]
	add	rsp, 40					; 00000028H
	ret	0
??0bad_cast@std@@QEAA@XZ ENDP				; std::bad_cast::bad_cast
_TEXT	ENDS
; Function compile flags: /Odtp
; File F:\software installation\Visual Studio Installation\VC\Tools\MSVC\14.38.33130\include\system_error
;	COMDAT ??$_Immortalize_memcpy_image@V_Iostream_error_category2@std@@@std@@YAAEBV_Iostream_error_category2@0@XZ
_TEXT	SEGMENT
??$_Immortalize_memcpy_image@V_Iostream_error_category2@std@@@std@@YAAEBV_Iostream_error_category2@0@XZ PROC ; std::_Immortalize_memcpy_image<std::_Iostream_error_category2>, COMDAT

; 676  :     static _Constexpr_immortalize_impl<_Ty> _Static;
; 677  :     return _Static._Storage;

	lea	rax, OFFSET FLAT:?_Static@?1???$_Immortalize_memcpy_image@V_Iostream_error_category2@std@@@std@@YAAEBV_Iostream_error_category2@1@XZ@4U?$_Constexpr_immortalize_impl@V_Iostream_error_category2@std@@@1@A ; `std::_Immortalize_memcpy_image<std::_Iostream_error_category2>'::`2'::_Static

; 678  : }

	ret	0
??$_Immortalize_memcpy_image@V_Iostream_error_category2@std@@@std@@YAAEBV_Iostream_error_category2@0@XZ ENDP ; std::_Immortalize_memcpy_image<std::_Iostream_error_category2>
_TEXT	ENDS
; Function compile flags: /Odtp
;	COMDAT ??_G_Iostream_error_category2@std@@UEAAPEAXI@Z
_TEXT	SEGMENT
this$ = 48
__flags$ = 56
??_G_Iostream_error_category2@std@@UEAAPEAXI@Z PROC	; std::_Iostream_error_category2::`scalar deleting destructor', COMDAT
$LN4:
	mov	DWORD PTR [rsp+16], edx
	mov	QWORD PTR [rsp+8], rcx
	sub	rsp, 40					; 00000028H
	mov	rcx, QWORD PTR this$[rsp]
	call	??1_Iostream_error_category2@std@@UEAA@XZ
	mov	eax, DWORD PTR __flags$[rsp]
	and	eax, 1
	test	eax, eax
	je	SHORT $LN2@scalar
	mov	edx, 16
	mov	rcx, QWORD PTR this$[rsp]
	call	??3@YAXPEAX_K@Z				; operator delete
$LN2@scalar:
	mov	rax, QWORD PTR this$[rsp]
	add	rsp, 40					; 00000028H
	ret	0
??_G_Iostream_error_category2@std@@UEAAPEAXI@Z ENDP	; std::_Iostream_error_category2::`scalar deleting destructor'
_TEXT	ENDS
; Function compile flags: /Odtp
;	COMDAT ??1_Iostream_error_category2@std@@UEAA@XZ
_TEXT	SEGMENT
this$ = 48
??1_Iostream_error_category2@std@@UEAA@XZ PROC		; std::_Iostream_error_category2::~_Iostream_error_category2, COMDAT
$LN3:
	mov	QWORD PTR [rsp+8], rcx
	sub	rsp, 40					; 00000028H
	mov	rcx, QWORD PTR this$[rsp]
	call	??1error_category@std@@UEAA@XZ		; std::error_category::~error_category
	add	rsp, 40					; 00000028H
	ret	0
??1_Iostream_error_category2@std@@UEAA@XZ ENDP		; std::_Iostream_error_category2::~_Iostream_error_category2
_TEXT	ENDS
; Function compile flags: /Odtp
; File F:\software installation\Visual Studio Installation\VC\Tools\MSVC\14.38.33130\include\system_error
;	COMDAT ?message@_Iostream_error_category2@std@@UEBA?AV?$basic_string@DU?$char_traits@D@std@@V?$allocator@D@2@@2@H@Z
_TEXT	SEGMENT
$T1 = 32
_Iostream_error_length$2 = 40
this$ = 64
__$ReturnUdt$ = 72
_Errcode$ = 80
?message@_Iostream_error_category2@std@@UEBA?AV?$basic_string@DU?$char_traits@D@std@@V?$allocator@D@2@@2@H@Z PROC ; std::_Iostream_error_category2::message, COMDAT

; 563  :     _NODISCARD string message(int _Errcode) const override {

$LN7:
	mov	DWORD PTR [rsp+24], r8d
	mov	QWORD PTR [rsp+16], rdx
	mov	QWORD PTR [rsp+8], rcx
	sub	rsp, 56					; 00000038H
	mov	DWORD PTR $T1[rsp], 0

; 564  :         if (_Errcode == static_cast<int>(io_errc::stream)) {

	cmp	DWORD PTR _Errcode$[rsp], 1
	jne	SHORT $LN2@message

; 565  :             static constexpr char _Iostream_error[] = "iostream stream error";
; 566  :             constexpr size_t _Iostream_error_length = sizeof(_Iostream_error) - 1; // TRANSITION, DevCom-906503

	mov	QWORD PTR _Iostream_error_length$2[rsp], 21

; 567  :             return string{_Iostream_error, _Iostream_error_length};

	mov	r8d, 21
	lea	rdx, OFFSET FLAT:?_Iostream_error@?4??message@_Iostream_error_category2@std@@UEBA?AV?$basic_string@DU?$char_traits@D@std@@V?$allocator@D@2@@3@H@Z@4QBDB ; `std::_Iostream_error_category2::message'::`5'::_Iostream_error
	mov	rcx, QWORD PTR __$ReturnUdt$[rsp]
	call	??0?$basic_string@DU?$char_traits@D@std@@V?$allocator@D@2@@std@@QEAA@QEBD_K@Z ; std::basic_string<char,std::char_traits<char>,std::allocator<char> >::basic_string<char,std::char_traits<char>,std::allocator<char> >
	mov	eax, DWORD PTR $T1[rsp]
	or	eax, 1
	mov	DWORD PTR $T1[rsp], eax
	mov	rax, QWORD PTR __$ReturnUdt$[rsp]
	jmp	SHORT $LN1@message

; 568  :         } else {

	jmp	SHORT $LN1@message
$LN2@message:

; 569  :             return _Syserror_map(_Errcode);

	mov	ecx, DWORD PTR _Errcode$[rsp]
	call	?_Syserror_map@std@@YAPEBDH@Z		; std::_Syserror_map
	mov	rdx, rax
	mov	rcx, QWORD PTR __$ReturnUdt$[rsp]
	call	??0?$basic_string@DU?$char_traits@D@std@@V?$allocator@D@2@@std@@QEAA@QEBD@Z ; std::basic_string<char,std::char_traits<char>,std::allocator<char> >::basic_string<char,std::char_traits<char>,std::allocator<char> >
	mov	eax, DWORD PTR $T1[rsp]
	or	eax, 1
	mov	DWORD PTR $T1[rsp], eax
	mov	rax, QWORD PTR __$ReturnUdt$[rsp]
$LN1@message:

; 570  :         }
; 571  :     }

	add	rsp, 56					; 00000038H
	ret	0
?message@_Iostream_error_category2@std@@UEBA?AV?$basic_string@DU?$char_traits@D@std@@V?$allocator@D@2@@2@H@Z ENDP ; std::_Iostream_error_category2::message
_TEXT	ENDS
; Function compile flags: /Odtp
; File F:\software installation\Visual Studio Installation\VC\Tools\MSVC\14.38.33130\include\system_error
;	COMDAT ?name@_Iostream_error_category2@std@@UEBAPEBDXZ
_TEXT	SEGMENT
this$ = 8
?name@_Iostream_error_category2@std@@UEBAPEBDXZ PROC	; std::_Iostream_error_category2::name, COMDAT

; 559  :     _NODISCARD const char* name() const noexcept override {

	mov	QWORD PTR [rsp+8], rcx

; 560  :         return "iostream";

	lea	rax, OFFSET FLAT:??_C@_08LLGCOLLL@iostream@

; 561  :     }

	ret	0
?name@_Iostream_error_category2@std@@UEBAPEBDXZ ENDP	; std::_Iostream_error_category2::name
_TEXT	ENDS
; Function compile flags: /Odtp
;	COMDAT ??_Gsystem_error@std@@UEAAPEAXI@Z
_TEXT	SEGMENT
this$ = 48
__flags$ = 56
??_Gsystem_error@std@@UEAAPEAXI@Z PROC			; std::system_error::`scalar deleting destructor', COMDAT
$LN4:
	mov	DWORD PTR [rsp+16], edx
	mov	QWORD PTR [rsp+8], rcx
	sub	rsp, 40					; 00000028H
	mov	rcx, QWORD PTR this$[rsp]
	call	??1system_error@std@@UEAA@XZ
	mov	eax, DWORD PTR __flags$[rsp]
	and	eax, 1
	test	eax, eax
	je	SHORT $LN2@scalar
	mov	edx, 40					; 00000028H
	mov	rcx, QWORD PTR this$[rsp]
	call	??3@YAXPEAX_K@Z				; operator delete
$LN2@scalar:
	mov	rax, QWORD PTR this$[rsp]
	add	rsp, 40					; 00000028H
	ret	0
??_Gsystem_error@std@@UEAAPEAXI@Z ENDP			; std::system_error::`scalar deleting destructor'
_TEXT	ENDS
; Function compile flags: /Odtp
;	COMDAT ??0system_error@std@@QEAA@AEBV01@@Z
_TEXT	SEGMENT
this$ = 48
__that$ = 56
??0system_error@std@@QEAA@AEBV01@@Z PROC		; std::system_error::system_error, COMDAT
$LN3:
	mov	QWORD PTR [rsp+16], rdx
	mov	QWORD PTR [rsp+8], rcx
	sub	rsp, 40					; 00000028H
	mov	rdx, QWORD PTR __that$[rsp]
	mov	rcx, QWORD PTR this$[rsp]
	call	??0_System_error@std@@QEAA@AEBV01@@Z
	mov	rax, QWORD PTR this$[rsp]
	lea	rcx, OFFSET FLAT:??_7system_error@std@@6B@
	mov	QWORD PTR [rax], rcx
	mov	rax, QWORD PTR this$[rsp]
	add	rsp, 40					; 00000028H
	ret	0
??0system_error@std@@QEAA@AEBV01@@Z ENDP		; std::system_error::system_error
_TEXT	ENDS
; Function compile flags: /Odtp
;	COMDAT ??1system_error@std@@UEAA@XZ
_TEXT	SEGMENT
this$ = 48
??1system_error@std@@UEAA@XZ PROC			; std::system_error::~system_error, COMDAT
$LN3:
	mov	QWORD PTR [rsp+8], rcx
	sub	rsp, 40					; 00000028H
	mov	rcx, QWORD PTR this$[rsp]
	call	??1_System_error@std@@UEAA@XZ
	add	rsp, 40					; 00000028H
	ret	0
??1system_error@std@@UEAA@XZ ENDP			; std::system_error::~system_error
_TEXT	ENDS
; Function compile flags: /Odtp
; File F:\software installation\Visual Studio Installation\VC\Tools\MSVC\14.38.33130\include\system_error
;	COMDAT ??0system_error@std@@QEAA@Verror_code@1@PEBD@Z
_TEXT	SEGMENT
$T1 = 32
$T2 = 48
__$ArrayPad$ = 80
this$ = 128
_Errcode$ = 136
_Message$ = 144
??0system_error@std@@QEAA@Verror_code@1@PEBD@Z PROC	; std::system_error::system_error, COMDAT

; 498  :     system_error(error_code _Errcode, const char* _Message) : _Mybase(_Errcode, _Message) {}

$LN5:
	mov	QWORD PTR [rsp+24], r8
	mov	QWORD PTR [rsp+16], rdx
	mov	QWORD PTR [rsp+8], rcx
	push	rsi
	push	rdi
	sub	rsp, 104				; 00000068H
	mov	rax, QWORD PTR __security_cookie
	xor	rax, rsp
	mov	QWORD PTR __$ArrayPad$[rsp], rax
	mov	rdx, QWORD PTR _Message$[rsp]
	lea	rcx, QWORD PTR $T2[rsp]
	call	??0?$basic_string@DU?$char_traits@D@std@@V?$allocator@D@2@@std@@QEAA@QEBD@Z ; std::basic_string<char,std::char_traits<char>,std::allocator<char> >::basic_string<char,std::char_traits<char>,std::allocator<char> >
	npad	1
	lea	rax, QWORD PTR $T1[rsp]
	mov	rdi, rax
	mov	rsi, QWORD PTR _Errcode$[rsp]
	mov	ecx, 16
	rep movsb
	lea	r8, QWORD PTR $T2[rsp]
	lea	rdx, QWORD PTR $T1[rsp]
	mov	rcx, QWORD PTR this$[rsp]
	call	??0_System_error@std@@IEAA@Verror_code@1@AEBV?$basic_string@DU?$char_traits@D@std@@V?$allocator@D@2@@1@@Z ; std::_System_error::_System_error
	npad	1
	lea	rcx, QWORD PTR $T2[rsp]
	call	??1?$basic_string@DU?$char_traits@D@std@@V?$allocator@D@2@@std@@QEAA@XZ ; std::basic_string<char,std::char_traits<char>,std::allocator<char> >::~basic_string<char,std::char_traits<char>,std::allocator<char> >
	mov	rax, QWORD PTR this$[rsp]
	lea	rcx, OFFSET FLAT:??_7system_error@std@@6B@
	mov	QWORD PTR [rax], rcx
	mov	rax, QWORD PTR this$[rsp]
	mov	rcx, QWORD PTR __$ArrayPad$[rsp]
	xor	rcx, rsp
	call	__security_check_cookie
	add	rsp, 104				; 00000068H
	pop	rdi
	pop	rsi
	ret	0
??0system_error@std@@QEAA@Verror_code@1@PEBD@Z ENDP	; std::system_error::system_error
_TEXT	ENDS
; Function compile flags: /Odtp
;	COMDAT text$x
text$x	SEGMENT
$T1 = 32
$T2 = 48
__$ArrayPad$ = 80
this$ = 128
_Errcode$ = 136
_Message$ = 144
?dtor$0@?0???0system_error@std@@QEAA@Verror_code@1@PEBD@Z@4HA PROC ; `std::system_error::system_error'::`1'::dtor$0
	push	rbp
	sub	rsp, 32					; 00000020H
	mov	rbp, rdx
	lea	rcx, QWORD PTR $T2[rbp]
	call	??1?$basic_string@DU?$char_traits@D@std@@V?$allocator@D@2@@std@@QEAA@XZ ; std::basic_string<char,std::char_traits<char>,std::allocator<char> >::~basic_string<char,std::char_traits<char>,std::allocator<char> >
	add	rsp, 32					; 00000020H
	pop	rbp
	ret	0
?dtor$0@?0???0system_error@std@@QEAA@Verror_code@1@PEBD@Z@4HA ENDP ; `std::system_error::system_error'::`1'::dtor$0
text$x	ENDS
; Function compile flags: /Odtp
;	COMDAT ??_G_System_error@std@@UEAAPEAXI@Z
_TEXT	SEGMENT
this$ = 48
__flags$ = 56
??_G_System_error@std@@UEAAPEAXI@Z PROC			; std::_System_error::`scalar deleting destructor', COMDAT
$LN4:
	mov	DWORD PTR [rsp+16], edx
	mov	QWORD PTR [rsp+8], rcx
	sub	rsp, 40					; 00000028H
	mov	rcx, QWORD PTR this$[rsp]
	call	??1_System_error@std@@UEAA@XZ
	mov	eax, DWORD PTR __flags$[rsp]
	and	eax, 1
	test	eax, eax
	je	SHORT $LN2@scalar
	mov	edx, 40					; 00000028H
	mov	rcx, QWORD PTR this$[rsp]
	call	??3@YAXPEAX_K@Z				; operator delete
$LN2@scalar:
	mov	rax, QWORD PTR this$[rsp]
	add	rsp, 40					; 00000028H
	ret	0
??_G_System_error@std@@UEAAPEAXI@Z ENDP			; std::_System_error::`scalar deleting destructor'
_TEXT	ENDS
; Function compile flags: /Odtp
;	COMDAT ??0_System_error@std@@QEAA@AEBV01@@Z
_TEXT	SEGMENT
this$ = 64
__that$ = 72
??0_System_error@std@@QEAA@AEBV01@@Z PROC		; std::_System_error::_System_error, COMDAT
$LN3:
	mov	QWORD PTR [rsp+16], rdx
	mov	QWORD PTR [rsp+8], rcx
	push	rsi
	push	rdi
	sub	rsp, 40					; 00000028H
	mov	rdx, QWORD PTR __that$[rsp]
	mov	rcx, QWORD PTR this$[rsp]
	call	??0runtime_error@std@@QEAA@AEBV01@@Z
	mov	rax, QWORD PTR this$[rsp]
	lea	rcx, OFFSET FLAT:??_7_System_error@std@@6B@
	mov	QWORD PTR [rax], rcx
	mov	rax, QWORD PTR this$[rsp]
	mov	rcx, QWORD PTR __that$[rsp]
	lea	rdi, QWORD PTR [rax+24]
	lea	rsi, QWORD PTR [rcx+24]
	mov	ecx, 16
	rep movsb
	mov	rax, QWORD PTR this$[rsp]
	add	rsp, 40					; 00000028H
	pop	rdi
	pop	rsi
	ret	0
??0_System_error@std@@QEAA@AEBV01@@Z ENDP		; std::_System_error::_System_error
_TEXT	ENDS
; Function compile flags: /Odtp
;	COMDAT ??1_System_error@std@@UEAA@XZ
_TEXT	SEGMENT
this$ = 48
??1_System_error@std@@UEAA@XZ PROC			; std::_System_error::~_System_error, COMDAT
$LN3:
	mov	QWORD PTR [rsp+8], rcx
	sub	rsp, 40					; 00000028H
	mov	rcx, QWORD PTR this$[rsp]
	call	??1runtime_error@std@@UEAA@XZ
	add	rsp, 40					; 00000028H
	ret	0
??1_System_error@std@@UEAA@XZ ENDP			; std::_System_error::~_System_error
_TEXT	ENDS
; Function compile flags: /Odtp
; File F:\software installation\Visual Studio Installation\VC\Tools\MSVC\14.38.33130\include\system_error
;	COMDAT ??0_System_error@std@@IEAA@Verror_code@1@AEBV?$basic_string@DU?$char_traits@D@std@@V?$allocator@D@2@@1@@Z
_TEXT	SEGMENT
$T1 = 32
tv131 = 40
tv69 = 48
tv133 = 56
$T2 = 64
$T3 = 80
$T4 = 112
__$ArrayPad$ = 144
this$ = 192
_Errcode$ = 200
_Message$ = 208
??0_System_error@std@@IEAA@Verror_code@1@AEBV?$basic_string@DU?$char_traits@D@std@@V?$allocator@D@2@@1@@Z PROC ; std::_System_error::_System_error, COMDAT

; 483  :     _System_error(error_code _Errcode, const string& _Message)

$LN6:
	mov	QWORD PTR [rsp+24], r8
	mov	QWORD PTR [rsp+16], rdx
	mov	QWORD PTR [rsp+8], rcx
	push	rsi
	push	rdi
	sub	rsp, 168				; 000000a8H
	mov	rax, QWORD PTR __security_cookie
	xor	rax, rsp
	mov	QWORD PTR __$ArrayPad$[rsp], rax

; 484  :         : runtime_error(_Makestr(_Errcode, _Message)), _Mycode(_Errcode) {}

	lea	rax, QWORD PTR $T3[rsp]
	mov	QWORD PTR $T1[rsp], rax
	mov	rdx, QWORD PTR _Message$[rsp]
	mov	rcx, QWORD PTR $T1[rsp]
	call	??0?$basic_string@DU?$char_traits@D@std@@V?$allocator@D@2@@std@@QEAA@AEBV01@@Z ; std::basic_string<char,std::char_traits<char>,std::allocator<char> >::basic_string<char,std::char_traits<char>,std::allocator<char> >
	mov	QWORD PTR tv131[rsp], rax
	lea	rax, QWORD PTR $T2[rsp]
	mov	rdi, rax
	mov	rsi, QWORD PTR _Errcode$[rsp]
	mov	ecx, 16
	rep movsb
	mov	r8, QWORD PTR tv131[rsp]
	lea	rdx, QWORD PTR $T2[rsp]
	lea	rcx, QWORD PTR $T4[rsp]
	call	?_Makestr@_System_error@std@@CA?AV?$basic_string@DU?$char_traits@D@std@@V?$allocator@D@2@@2@Verror_code@2@V32@@Z ; std::_System_error::_Makestr
	mov	QWORD PTR tv69[rsp], rax
	mov	rax, QWORD PTR tv69[rsp]
	mov	QWORD PTR tv133[rsp], rax
	mov	rdx, QWORD PTR tv133[rsp]
	mov	rcx, QWORD PTR this$[rsp]
	call	??0runtime_error@std@@QEAA@AEBV?$basic_string@DU?$char_traits@D@std@@V?$allocator@D@2@@1@@Z ; std::runtime_error::runtime_error
	npad	1
	lea	rcx, QWORD PTR $T4[rsp]
	call	??1?$basic_string@DU?$char_traits@D@std@@V?$allocator@D@2@@std@@QEAA@XZ ; std::basic_string<char,std::char_traits<char>,std::allocator<char> >::~basic_string<char,std::char_traits<char>,std::allocator<char> >
	mov	rax, QWORD PTR this$[rsp]
	lea	rcx, OFFSET FLAT:??_7_System_error@std@@6B@
	mov	QWORD PTR [rax], rcx
	mov	rax, QWORD PTR this$[rsp]
	lea	rdi, QWORD PTR [rax+24]
	mov	rsi, QWORD PTR _Errcode$[rsp]
	mov	ecx, 16
	rep movsb
	mov	rax, QWORD PTR this$[rsp]
	mov	rcx, QWORD PTR __$ArrayPad$[rsp]
	xor	rcx, rsp
	call	__security_check_cookie
	add	rsp, 168				; 000000a8H
	pop	rdi
	pop	rsi
	ret	0
??0_System_error@std@@IEAA@Verror_code@1@AEBV?$basic_string@DU?$char_traits@D@std@@V?$allocator@D@2@@1@@Z ENDP ; std::_System_error::_System_error
_TEXT	ENDS
; Function compile flags: /Odtp
;	COMDAT text$x
text$x	SEGMENT
$T1 = 32
tv131 = 40
tv69 = 48
tv133 = 56
$T2 = 64
$T3 = 80
$T4 = 112
__$ArrayPad$ = 144
this$ = 192
_Errcode$ = 200
_Message$ = 208
?dtor$1@?0???0_System_error@std@@IEAA@Verror_code@1@AEBV?$basic_string@DU?$char_traits@D@std@@V?$allocator@D@2@@1@@Z@4HA PROC ; `std::_System_error::_System_error'::`1'::dtor$1
	push	rbp
	sub	rsp, 32					; 00000020H
	mov	rbp, rdx
	lea	rcx, QWORD PTR $T4[rbp]
	call	??1?$basic_string@DU?$char_traits@D@std@@V?$allocator@D@2@@std@@QEAA@XZ ; std::basic_string<char,std::char_traits<char>,std::allocator<char> >::~basic_string<char,std::char_traits<char>,std::allocator<char> >
	add	rsp, 32					; 00000020H
	pop	rbp
	ret	0
?dtor$1@?0???0_System_error@std@@IEAA@Verror_code@1@AEBV?$basic_string@DU?$char_traits@D@std@@V?$allocator@D@2@@1@@Z@4HA ENDP ; `std::_System_error::_System_error'::`1'::dtor$1
text$x	ENDS
; Function compile flags: /Odtp
; File F:\software installation\Visual Studio Installation\VC\Tools\MSVC\14.38.33130\include\system_error
;	COMDAT ?_Makestr@_System_error@std@@CA?AV?$basic_string@DU?$char_traits@D@std@@V?$allocator@D@2@@2@Verror_code@2@V32@@Z
_TEXT	SEGMENT
$T1 = 32
tv79 = 40
tv84 = 48
$T2 = 56
__$ArrayPad$ = 88
__$ReturnUdt$ = 112
_Errcode$ = 120
_Message$ = 128
?_Makestr@_System_error@std@@CA?AV?$basic_string@DU?$char_traits@D@std@@V?$allocator@D@2@@2@Verror_code@2@V32@@Z PROC ; std::_System_error::_Makestr, COMDAT

; 471  :     static string _Makestr(error_code _Errcode, string _Message) { // compose error message

$LN8:
	mov	QWORD PTR [rsp+24], r8
	mov	QWORD PTR [rsp+16], rdx
	mov	QWORD PTR [rsp+8], rcx
	sub	rsp, 104				; 00000068H
	mov	rax, QWORD PTR __security_cookie
	xor	rax, rsp
	mov	QWORD PTR __$ArrayPad$[rsp], rax
	mov	DWORD PTR $T1[rsp], 0

; 472  :         if (!_Message.empty()) {

	mov	rcx, QWORD PTR _Message$[rsp]
	call	?empty@?$basic_string@DU?$char_traits@D@std@@V?$allocator@D@2@@std@@QEBA_NXZ ; std::basic_string<char,std::char_traits<char>,std::allocator<char> >::empty
	movzx	eax, al
	test	eax, eax
	jne	SHORT $LN2@Makestr

; 473  :             _Message.append(": ");

	lea	rdx, OFFSET FLAT:??_C@_02LMMGGCAJ@?3?5@
	mov	rcx, QWORD PTR _Message$[rsp]
	call	?append@?$basic_string@DU?$char_traits@D@std@@V?$allocator@D@2@@std@@QEAAAEAV12@QEBD@Z ; std::basic_string<char,std::char_traits<char>,std::allocator<char> >::append
$LN2@Makestr:

; 474  :         }
; 475  : 
; 476  :         _Message.append(_Errcode.message());

	lea	rdx, QWORD PTR $T2[rsp]
	mov	rcx, QWORD PTR _Errcode$[rsp]
	call	?message@error_code@std@@QEBA?AV?$basic_string@DU?$char_traits@D@std@@V?$allocator@D@2@@2@XZ ; std::error_code::message
	mov	QWORD PTR tv79[rsp], rax
	mov	rax, QWORD PTR tv79[rsp]
	mov	QWORD PTR tv84[rsp], rax
	mov	rdx, QWORD PTR tv84[rsp]
	mov	rcx, QWORD PTR _Message$[rsp]
	call	?append@?$basic_string@DU?$char_traits@D@std@@V?$allocator@D@2@@std@@QEAAAEAV12@AEBV12@@Z ; std::basic_string<char,std::char_traits<char>,std::allocator<char> >::append
	npad	1
	lea	rcx, QWORD PTR $T2[rsp]
	call	??1?$basic_string@DU?$char_traits@D@std@@V?$allocator@D@2@@std@@QEAA@XZ ; std::basic_string<char,std::char_traits<char>,std::allocator<char> >::~basic_string<char,std::char_traits<char>,std::allocator<char> >

; 477  :         return _Message;

	mov	rdx, QWORD PTR _Message$[rsp]
	mov	rcx, QWORD PTR __$ReturnUdt$[rsp]
	call	??0?$basic_string@DU?$char_traits@D@std@@V?$allocator@D@2@@std@@QEAA@$$QEAV01@@Z ; std::basic_string<char,std::char_traits<char>,std::allocator<char> >::basic_string<char,std::char_traits<char>,std::allocator<char> >
	mov	eax, DWORD PTR $T1[rsp]
	or	eax, 1
	mov	DWORD PTR $T1[rsp], eax
	mov	rcx, QWORD PTR _Message$[rsp]
	call	??1?$basic_string@DU?$char_traits@D@std@@V?$allocator@D@2@@std@@QEAA@XZ ; std::basic_string<char,std::char_traits<char>,std::allocator<char> >::~basic_string<char,std::char_traits<char>,std::allocator<char> >
	mov	rax, QWORD PTR __$ReturnUdt$[rsp]

; 478  :     }

	mov	rcx, QWORD PTR __$ArrayPad$[rsp]
	xor	rcx, rsp
	call	__security_check_cookie
	add	rsp, 104				; 00000068H
	ret	0
?_Makestr@_System_error@std@@CA?AV?$basic_string@DU?$char_traits@D@std@@V?$allocator@D@2@@2@Verror_code@2@V32@@Z ENDP ; std::_System_error::_Makestr
_TEXT	ENDS
; Function compile flags: /Odtp
;	COMDAT text$x
text$x	SEGMENT
$T1 = 32
tv79 = 40
tv84 = 48
$T2 = 56
__$ArrayPad$ = 88
__$ReturnUdt$ = 112
_Errcode$ = 120
_Message$ = 128
?dtor$0@?0??_Makestr@_System_error@std@@CA?AV?$basic_string@DU?$char_traits@D@std@@V?$allocator@D@2@@2@Verror_code@2@V32@@Z@4HA PROC ; `std::_System_error::_Makestr'::`1'::dtor$0
	push	rbp
	sub	rsp, 32					; 00000020H
	mov	rbp, rdx
	mov	rcx, QWORD PTR _Message$[rbp]
	call	??1?$basic_string@DU?$char_traits@D@std@@V?$allocator@D@2@@std@@QEAA@XZ ; std::basic_string<char,std::char_traits<char>,std::allocator<char> >::~basic_string<char,std::char_traits<char>,std::allocator<char> >
	add	rsp, 32					; 00000020H
	pop	rbp
	ret	0
?dtor$0@?0??_Makestr@_System_error@std@@CA?AV?$basic_string@DU?$char_traits@D@std@@V?$allocator@D@2@@2@Verror_code@2@V32@@Z@4HA ENDP ; `std::_System_error::_Makestr'::`1'::dtor$0
text$x	ENDS
; Function compile flags: /Odtp
;	COMDAT text$x
text$x	SEGMENT
$T1 = 32
tv79 = 40
tv84 = 48
$T2 = 56
__$ArrayPad$ = 88
__$ReturnUdt$ = 112
_Errcode$ = 120
_Message$ = 128
?dtor$1@?0??_Makestr@_System_error@std@@CA?AV?$basic_string@DU?$char_traits@D@std@@V?$allocator@D@2@@2@Verror_code@2@V32@@Z@4HA PROC ; `std::_System_error::_Makestr'::`1'::dtor$1
	push	rbp
	sub	rsp, 32					; 00000020H
	mov	rbp, rdx
	lea	rcx, QWORD PTR $T2[rbp]
	call	??1?$basic_string@DU?$char_traits@D@std@@V?$allocator@D@2@@std@@QEAA@XZ ; std::basic_string<char,std::char_traits<char>,std::allocator<char> >::~basic_string<char,std::char_traits<char>,std::allocator<char> >
	add	rsp, 32					; 00000020H
	pop	rbp
	ret	0
?dtor$1@?0??_Makestr@_System_error@std@@CA?AV?$basic_string@DU?$char_traits@D@std@@V?$allocator@D@2@@2@Verror_code@2@V32@@Z@4HA ENDP ; `std::_System_error::_Makestr'::`1'::dtor$1
text$x	ENDS
; Function compile flags: /Odtp
; File F:\software installation\Visual Studio Installation\VC\Tools\MSVC\14.38.33130\include\system_error
;	COMDAT ?make_error_code@std@@YA?AVerror_code@1@W4io_errc@1@@Z
_TEXT	SEGMENT
__$ReturnUdt$ = 48
_Ec$ = 56
?make_error_code@std@@YA?AVerror_code@1@W4io_errc@1@@Z PROC ; std::make_error_code, COMDAT

; 437  : _EXPORT_STD _NODISCARD inline error_code make_error_code(io_errc _Ec) noexcept {

$LN3:
	mov	DWORD PTR [rsp+16], edx
	mov	QWORD PTR [rsp+8], rcx
	sub	rsp, 40					; 00000028H

; 438  :     return error_code(static_cast<int>(_Ec), _STD iostream_category());

	call	?iostream_category@std@@YAAEBVerror_category@1@XZ ; std::iostream_category
	mov	r8, rax
	mov	edx, DWORD PTR _Ec$[rsp]
	mov	rcx, QWORD PTR __$ReturnUdt$[rsp]
	call	??0error_code@std@@QEAA@HAEBVerror_category@1@@Z ; std::error_code::error_code
	mov	rax, QWORD PTR __$ReturnUdt$[rsp]

; 439  : }

	add	rsp, 40					; 00000028H
	ret	0
?make_error_code@std@@YA?AVerror_code@1@W4io_errc@1@@Z ENDP ; std::make_error_code
_TEXT	ENDS
; Function compile flags: /Odtp
; File F:\software installation\Visual Studio Installation\VC\Tools\MSVC\14.38.33130\include\system_error
;	COMDAT ??8std@@YA_NAEBVerror_condition@0@0@Z
_TEXT	SEGMENT
tv78 = 32
tv72 = 36
tv69 = 40
_Left$ = 64
_Right$ = 72
??8std@@YA_NAEBVerror_condition@0@0@Z PROC		; std::operator==, COMDAT

; 308  :     _NODISCARD_FRIEND bool operator==(const error_condition& _Left, const error_condition& _Right) noexcept {

$LN5:
	mov	QWORD PTR [rsp+16], rdx
	mov	QWORD PTR [rsp+8], rcx
	sub	rsp, 56					; 00000038H

; 309  :         return _Left.category() == _Right.category() && _Left.value() == _Right.value();

	mov	rcx, QWORD PTR _Right$[rsp]
	call	?category@error_condition@std@@QEBAAEBVerror_category@2@XZ ; std::error_condition::category
	mov	QWORD PTR tv69[rsp], rax
	mov	rcx, QWORD PTR _Left$[rsp]
	call	?category@error_condition@std@@QEBAAEBVerror_category@2@XZ ; std::error_condition::category
	mov	rcx, QWORD PTR tv69[rsp]
	mov	rdx, rcx
	mov	rcx, rax
	call	??8error_category@std@@QEBA_NAEBV01@@Z	; std::error_category::operator==
	movzx	eax, al
	test	eax, eax
	je	SHORT $LN3@operator
	mov	rcx, QWORD PTR _Left$[rsp]
	call	?value@error_condition@std@@QEBAHXZ	; std::error_condition::value
	mov	DWORD PTR tv72[rsp], eax
	mov	rcx, QWORD PTR _Right$[rsp]
	call	?value@error_condition@std@@QEBAHXZ	; std::error_condition::value
	mov	ecx, DWORD PTR tv72[rsp]
	cmp	ecx, eax
	jne	SHORT $LN3@operator
	mov	DWORD PTR tv78[rsp], 1
	jmp	SHORT $LN4@operator
$LN3@operator:
	mov	DWORD PTR tv78[rsp], 0
$LN4@operator:
	movzx	eax, BYTE PTR tv78[rsp]

; 310  :     }

	add	rsp, 56					; 00000038H
	ret	0
??8std@@YA_NAEBVerror_condition@0@0@Z ENDP		; std::operator==
_TEXT	ENDS
; Function compile flags: /Odtp
; File F:\software installation\Visual Studio Installation\VC\Tools\MSVC\14.38.33130\include\system_error
;	COMDAT ?category@error_condition@std@@QEBAAEBVerror_category@2@XZ
_TEXT	SEGMENT
this$ = 8
?category@error_condition@std@@QEBAAEBVerror_category@2@XZ PROC ; std::error_condition::category, COMDAT

; 295  :     _NODISCARD const error_category& category() const noexcept {

	mov	QWORD PTR [rsp+8], rcx

; 296  :         return *_Mycat;

	mov	rax, QWORD PTR this$[rsp]
	mov	rax, QWORD PTR [rax+8]

; 297  :     }

	ret	0
?category@error_condition@std@@QEBAAEBVerror_category@2@XZ ENDP ; std::error_condition::category
_TEXT	ENDS
; Function compile flags: /Odtp
; File F:\software installation\Visual Studio Installation\VC\Tools\MSVC\14.38.33130\include\system_error
;	COMDAT ?value@error_condition@std@@QEBAHXZ
_TEXT	SEGMENT
this$ = 8
?value@error_condition@std@@QEBAHXZ PROC		; std::error_condition::value, COMDAT

; 291  :     _NODISCARD int value() const noexcept {

	mov	QWORD PTR [rsp+8], rcx

; 292  :         return _Myval;

	mov	rax, QWORD PTR this$[rsp]
	mov	eax, DWORD PTR [rax]

; 293  :     }

	ret	0
?value@error_condition@std@@QEBAHXZ ENDP		; std::error_condition::value
_TEXT	ENDS
; Function compile flags: /Odtp
; File F:\software installation\Visual Studio Installation\VC\Tools\MSVC\14.38.33130\include\system_error
;	COMDAT ??0error_condition@std@@QEAA@HAEBVerror_category@1@@Z
_TEXT	SEGMENT
this$ = 8
_Val$ = 16
_Cat$ = 24
??0error_condition@std@@QEAA@HAEBVerror_category@1@@Z PROC ; std::error_condition::error_condition, COMDAT

; 266  :     error_condition(int _Val, const error_category& _Cat) noexcept : _Myval(_Val), _Mycat(&_Cat) {}

	mov	QWORD PTR [rsp+24], r8
	mov	DWORD PTR [rsp+16], edx
	mov	QWORD PTR [rsp+8], rcx
	mov	rax, QWORD PTR this$[rsp]
	mov	ecx, DWORD PTR _Val$[rsp]
	mov	DWORD PTR [rax], ecx
	mov	rax, QWORD PTR this$[rsp]
	mov	rcx, QWORD PTR _Cat$[rsp]
	mov	QWORD PTR [rax+8], rcx
	mov	rax, QWORD PTR this$[rsp]
	ret	0
??0error_condition@std@@QEAA@HAEBVerror_category@1@@Z ENDP ; std::error_condition::error_condition
_TEXT	ENDS
; Function compile flags: /Odtp
; File F:\software installation\Visual Studio Installation\VC\Tools\MSVC\14.38.33130\include\system_error
;	COMDAT ?message@error_code@std@@QEBA?AV?$basic_string@DU?$char_traits@D@std@@V?$allocator@D@2@@2@XZ
_TEXT	SEGMENT
$T1 = 32
tv67 = 40
tv70 = 48
this$ = 80
__$ReturnUdt$ = 88
?message@error_code@std@@QEBA?AV?$basic_string@DU?$char_traits@D@std@@V?$allocator@D@2@@2@XZ PROC ; std::error_code::message, COMDAT

; 208  :     _NODISCARD string message() const {

$LN5:
	mov	QWORD PTR [rsp+16], rdx
	mov	QWORD PTR [rsp+8], rcx
	sub	rsp, 72					; 00000048H
	mov	DWORD PTR $T1[rsp], 0

; 209  :         return category().message(value());

	mov	rcx, QWORD PTR this$[rsp]
	call	?category@error_code@std@@QEBAAEBVerror_category@2@XZ ; std::error_code::category
	mov	QWORD PTR tv67[rsp], rax
	mov	rcx, QWORD PTR this$[rsp]
	call	?value@error_code@std@@QEBAHXZ		; std::error_code::value
	mov	rcx, QWORD PTR tv67[rsp]
	mov	rcx, QWORD PTR [rcx]
	mov	QWORD PTR tv70[rsp], rcx
	mov	r8d, eax
	mov	rdx, QWORD PTR __$ReturnUdt$[rsp]
	mov	rcx, QWORD PTR tv67[rsp]
	mov	rax, QWORD PTR tv70[rsp]
	call	QWORD PTR [rax+16]
	mov	eax, DWORD PTR $T1[rsp]
	or	eax, 1
	mov	DWORD PTR $T1[rsp], eax
	mov	rax, QWORD PTR __$ReturnUdt$[rsp]

; 210  :     }

	add	rsp, 72					; 00000048H
	ret	0
?message@error_code@std@@QEBA?AV?$basic_string@DU?$char_traits@D@std@@V?$allocator@D@2@@2@XZ ENDP ; std::error_code::message
_TEXT	ENDS
; Function compile flags: /Odtp
; File F:\software installation\Visual Studio Installation\VC\Tools\MSVC\14.38.33130\include\system_error
;	COMDAT ?category@error_code@std@@QEBAAEBVerror_category@2@XZ
_TEXT	SEGMENT
this$ = 8
?category@error_code@std@@QEBAAEBVerror_category@2@XZ PROC ; std::error_code::category, COMDAT

; 202  :     _NODISCARD const error_category& category() const noexcept {

	mov	QWORD PTR [rsp+8], rcx

; 203  :         return *_Mycat;

	mov	rax, QWORD PTR this$[rsp]
	mov	rax, QWORD PTR [rax+8]

; 204  :     }

	ret	0
?category@error_code@std@@QEBAAEBVerror_category@2@XZ ENDP ; std::error_code::category
_TEXT	ENDS
; Function compile flags: /Odtp
; File F:\software installation\Visual Studio Installation\VC\Tools\MSVC\14.38.33130\include\system_error
;	COMDAT ?value@error_code@std@@QEBAHXZ
_TEXT	SEGMENT
this$ = 8
?value@error_code@std@@QEBAHXZ PROC			; std::error_code::value, COMDAT

; 198  :     _NODISCARD int value() const noexcept {

	mov	QWORD PTR [rsp+8], rcx

; 199  :         return _Myval;

	mov	rax, QWORD PTR this$[rsp]
	mov	eax, DWORD PTR [rax]

; 200  :     }

	ret	0
?value@error_code@std@@QEBAHXZ ENDP			; std::error_code::value
_TEXT	ENDS
; Function compile flags: /Odtp
; File F:\software installation\Visual Studio Installation\VC\Tools\MSVC\14.38.33130\include\system_error
;	COMDAT ??0error_code@std@@QEAA@HAEBVerror_category@1@@Z
_TEXT	SEGMENT
this$ = 8
_Val$ = 16
_Cat$ = 24
??0error_code@std@@QEAA@HAEBVerror_category@1@@Z PROC	; std::error_code::error_code, COMDAT

; 173  :     error_code(int _Val, const error_category& _Cat) noexcept : _Myval(_Val), _Mycat(&_Cat) {}

	mov	QWORD PTR [rsp+24], r8
	mov	DWORD PTR [rsp+16], edx
	mov	QWORD PTR [rsp+8], rcx
	mov	rax, QWORD PTR this$[rsp]
	mov	ecx, DWORD PTR _Val$[rsp]
	mov	DWORD PTR [rax], ecx
	mov	rax, QWORD PTR this$[rsp]
	mov	rcx, QWORD PTR _Cat$[rsp]
	mov	QWORD PTR [rax+8], rcx
	mov	rax, QWORD PTR this$[rsp]
	ret	0
??0error_code@std@@QEAA@HAEBVerror_category@1@@Z ENDP	; std::error_code::error_code
_TEXT	ENDS
; Function compile flags: /Odtp
; File F:\software installation\Visual Studio Installation\VC\Tools\MSVC\14.38.33130\include\type_traits
;	COMDAT ??$_Bit_cast@_KT_Addr_storage@error_category@std@@$0A@@std@@YA_KAEBT_Addr_storage@error_category@0@@Z
_TEXT	SEGMENT
$T1 = 0
_Val$ = 32
??$_Bit_cast@_KT_Addr_storage@error_category@std@@$0A@@std@@YA_KAEBT_Addr_storage@error_category@0@@Z PROC ; std::_Bit_cast<unsigned __int64,std::error_category::_Addr_storage,0>, COMDAT

; 2512 : _NODISCARD constexpr _To _Bit_cast(const _From& _Val) noexcept {

$LN3:
	mov	QWORD PTR [rsp+8], rcx
	sub	rsp, 24

; 2513 :     return __builtin_bit_cast(_To, _Val);

	mov	rax, QWORD PTR _Val$[rsp]
	mov	rax, QWORD PTR [rax]
	mov	QWORD PTR $T1[rsp], rax
	mov	rax, QWORD PTR $T1[rsp]

; 2514 : }

	add	rsp, 24
	ret	0
??$_Bit_cast@_KT_Addr_storage@error_category@std@@$0A@@std@@YA_KAEBT_Addr_storage@error_category@0@@Z ENDP ; std::_Bit_cast<unsigned __int64,std::error_category::_Addr_storage,0>
_TEXT	ENDS
; Function compile flags: /Odtp
; File F:\software installation\Visual Studio Installation\VC\Tools\MSVC\14.38.33130\include\system_error
;	COMDAT ??8error_category@std@@QEBA_NAEBV01@@Z
_TEXT	SEGMENT
tv71 = 32
tv64 = 40
this$ = 64
_Right$ = 72
??8error_category@std@@QEBA_NAEBV01@@Z PROC		; std::error_category::operator==, COMDAT

; 99   :     _NODISCARD bool operator==(const error_category& _Right) const noexcept {

$LN5:
	mov	QWORD PTR [rsp+16], rdx
	mov	QWORD PTR [rsp+8], rcx
	sub	rsp, 56					; 00000038H

; 100  : #ifdef _M_CEE_PURE
; 101  :         return _Addr == _Right._Addr;
; 102  : #else // ^^^ defined(_M_CEE_PURE) / !defined(_M_CEE_PURE) vvv
; 103  :         return _Bit_cast<uintptr_t>(_Addr) == _Bit_cast<uintptr_t>(_Right._Addr);

	mov	rax, QWORD PTR this$[rsp]
	add	rax, 8
	mov	rcx, rax
	call	??$_Bit_cast@_KT_Addr_storage@error_category@std@@$0A@@std@@YA_KAEBT_Addr_storage@error_category@0@@Z ; std::_Bit_cast<unsigned __int64,std::error_category::_Addr_storage,0>
	mov	QWORD PTR tv64[rsp], rax
	mov	rcx, QWORD PTR _Right$[rsp]
	add	rcx, 8
	call	??$_Bit_cast@_KT_Addr_storage@error_category@std@@$0A@@std@@YA_KAEBT_Addr_storage@error_category@0@@Z ; std::_Bit_cast<unsigned __int64,std::error_category::_Addr_storage,0>
	mov	rcx, QWORD PTR tv64[rsp]
	cmp	rcx, rax
	jne	SHORT $LN3@operator
	mov	DWORD PTR tv71[rsp], 1
	jmp	SHORT $LN4@operator
$LN3@operator:
	mov	DWORD PTR tv71[rsp], 0
$LN4@operator:
	movzx	eax, BYTE PTR tv71[rsp]

; 104  : #endif // ^^^ !defined(_M_CEE_PURE) ^^^
; 105  :     }

	add	rsp, 56					; 00000038H
	ret	0
??8error_category@std@@QEBA_NAEBV01@@Z ENDP		; std::error_category::operator==
_TEXT	ENDS
; Function compile flags: /Odtp
; File F:\software installation\Visual Studio Installation\VC\Tools\MSVC\14.38.33130\include\system_error
;	COMDAT ?equivalent@error_category@std@@UEBA_NAEBVerror_code@2@H@Z
_TEXT	SEGMENT
tv74 = 32
this$ = 64
_Code$ = 72
_Errval$ = 80
?equivalent@error_category@std@@UEBA_NAEBVerror_code@2@H@Z PROC ; std::error_category::equivalent, COMDAT

; 424  : _NODISCARD inline bool error_category::equivalent(const error_code& _Code, int _Errval) const noexcept {

$LN5:
	mov	DWORD PTR [rsp+24], r8d
	mov	QWORD PTR [rsp+16], rdx
	mov	QWORD PTR [rsp+8], rcx
	sub	rsp, 56					; 00000038H

; 425  :     return *this == _Code.category() && _Code.value() == _Errval;

	mov	rcx, QWORD PTR _Code$[rsp]
	call	?category@error_code@std@@QEBAAEBVerror_category@2@XZ ; std::error_code::category
	mov	rdx, rax
	mov	rcx, QWORD PTR this$[rsp]
	call	??8error_category@std@@QEBA_NAEBV01@@Z	; std::error_category::operator==
	movzx	eax, al
	test	eax, eax
	je	SHORT $LN3@equivalent
	mov	rcx, QWORD PTR _Code$[rsp]
	call	?value@error_code@std@@QEBAHXZ		; std::error_code::value
	cmp	eax, DWORD PTR _Errval$[rsp]
	jne	SHORT $LN3@equivalent
	mov	DWORD PTR tv74[rsp], 1
	jmp	SHORT $LN4@equivalent
$LN3@equivalent:
	mov	DWORD PTR tv74[rsp], 0
$LN4@equivalent:
	movzx	eax, BYTE PTR tv74[rsp]

; 426  : }

	add	rsp, 56					; 00000038H
	ret	0
?equivalent@error_category@std@@UEBA_NAEBVerror_code@2@H@Z ENDP ; std::error_category::equivalent
_TEXT	ENDS
; Function compile flags: /Odtp
; File F:\software installation\Visual Studio Installation\VC\Tools\MSVC\14.38.33130\include\system_error
;	COMDAT ?equivalent@error_category@std@@UEBA_NHAEBVerror_condition@2@@Z
_TEXT	SEGMENT
$T1 = 32
this$ = 64
_Errval$ = 72
_Cond$ = 80
?equivalent@error_category@std@@UEBA_NHAEBVerror_condition@2@@Z PROC ; std::error_category::equivalent, COMDAT

; 420  : _NODISCARD inline bool error_category::equivalent(int _Errval, const error_condition& _Cond) const noexcept {

$LN3:
	mov	QWORD PTR [rsp+24], r8
	mov	DWORD PTR [rsp+16], edx
	mov	QWORD PTR [rsp+8], rcx
	sub	rsp, 56					; 00000038H

; 421  :     return default_error_condition(_Errval) == _Cond;

	mov	rax, QWORD PTR this$[rsp]
	mov	rax, QWORD PTR [rax]
	mov	r8d, DWORD PTR _Errval$[rsp]
	lea	rdx, QWORD PTR $T1[rsp]
	mov	rcx, QWORD PTR this$[rsp]
	call	QWORD PTR [rax+24]
	mov	rdx, QWORD PTR _Cond$[rsp]
	mov	rcx, rax
	call	??8std@@YA_NAEBVerror_condition@0@0@Z	; std::operator==

; 422  : }

	add	rsp, 56					; 00000038H
	ret	0
?equivalent@error_category@std@@UEBA_NHAEBVerror_condition@2@@Z ENDP ; std::error_category::equivalent
_TEXT	ENDS
; Function compile flags: /Odtp
; File F:\software installation\Visual Studio Installation\VC\Tools\MSVC\14.38.33130\include\system_error
;	COMDAT ?default_error_condition@error_category@std@@UEBA?AVerror_condition@2@H@Z
_TEXT	SEGMENT
this$ = 48
__$ReturnUdt$ = 56
_Errval$ = 64
?default_error_condition@error_category@std@@UEBA?AVerror_condition@2@H@Z PROC ; std::error_category::default_error_condition, COMDAT

; 415  : _NODISCARD inline error_condition error_category::default_error_condition(int _Errval) const noexcept {

$LN3:
	mov	DWORD PTR [rsp+24], r8d
	mov	QWORD PTR [rsp+16], rdx
	mov	QWORD PTR [rsp+8], rcx
	sub	rsp, 40					; 00000028H

; 416  :     // make error_condition for error code
; 417  :     return error_condition(_Errval, *this);

	mov	r8, QWORD PTR this$[rsp]
	mov	edx, DWORD PTR _Errval$[rsp]
	mov	rcx, QWORD PTR __$ReturnUdt$[rsp]
	call	??0error_condition@std@@QEAA@HAEBVerror_category@1@@Z ; std::error_condition::error_condition
	mov	rax, QWORD PTR __$ReturnUdt$[rsp]

; 418  : }

	add	rsp, 40					; 00000028H
	ret	0
?default_error_condition@error_category@std@@UEBA?AVerror_condition@2@H@Z ENDP ; std::error_category::default_error_condition
_TEXT	ENDS
; Function compile flags: /Odtp
; File F:\software installation\Visual Studio Installation\VC\Tools\MSVC\14.38.33130\include\system_error
;	COMDAT ??1error_category@std@@UEAA@XZ
_TEXT	SEGMENT
this$ = 8
??1error_category@std@@UEAA@XZ PROC			; std::error_category::~error_category, COMDAT

; 87   :     _CONSTEXPR20 virtual ~error_category() noexcept = default;

	mov	QWORD PTR [rsp+8], rcx
	ret	0
??1error_category@std@@UEAA@XZ ENDP			; std::error_category::~error_category
_TEXT	ENDS
; Function compile flags: /Odtp
; File F:\software installation\Visual Studio Installation\VC\Tools\MSVC\14.38.33130\include\system_error
;	COMDAT ?iostream_category@std@@YAAEBVerror_category@1@XZ
_TEXT	SEGMENT
?iostream_category@std@@YAAEBVerror_category@1@XZ PROC	; std::iostream_category, COMDAT

; 704  : _EXPORT_STD _NODISCARD inline const error_category& iostream_category() noexcept {

$LN3:
	sub	rsp, 40					; 00000028H

; 705  :     return _Immortalize_memcpy_image<_Iostream_error_category2>();

	call	??$_Immortalize_memcpy_image@V_Iostream_error_category2@std@@@std@@YAAEBV_Iostream_error_category2@0@XZ ; std::_Immortalize_memcpy_image<std::_Iostream_error_category2>

; 706  : }

	add	rsp, 40					; 00000028H
	ret	0
?iostream_category@std@@YAAEBVerror_category@1@XZ ENDP	; std::iostream_category
_TEXT	ENDS
; Function compile flags: /Odtp
;	COMDAT ??_Gruntime_error@std@@UEAAPEAXI@Z
_TEXT	SEGMENT
this$ = 48
__flags$ = 56
??_Gruntime_error@std@@UEAAPEAXI@Z PROC			; std::runtime_error::`scalar deleting destructor', COMDAT
$LN4:
	mov	DWORD PTR [rsp+16], edx
	mov	QWORD PTR [rsp+8], rcx
	sub	rsp, 40					; 00000028H
	mov	rcx, QWORD PTR this$[rsp]
	call	??1runtime_error@std@@UEAA@XZ
	mov	eax, DWORD PTR __flags$[rsp]
	and	eax, 1
	test	eax, eax
	je	SHORT $LN2@scalar
	mov	edx, 24
	mov	rcx, QWORD PTR this$[rsp]
	call	??3@YAXPEAX_K@Z				; operator delete
$LN2@scalar:
	mov	rax, QWORD PTR this$[rsp]
	add	rsp, 40					; 00000028H
	ret	0
??_Gruntime_error@std@@UEAAPEAXI@Z ENDP			; std::runtime_error::`scalar deleting destructor'
_TEXT	ENDS
; Function compile flags: /Odtp
;	COMDAT ??0runtime_error@std@@QEAA@AEBV01@@Z
_TEXT	SEGMENT
this$ = 48
__that$ = 56
??0runtime_error@std@@QEAA@AEBV01@@Z PROC		; std::runtime_error::runtime_error, COMDAT
$LN3:
	mov	QWORD PTR [rsp+16], rdx
	mov	QWORD PTR [rsp+8], rcx
	sub	rsp, 40					; 00000028H
	mov	rdx, QWORD PTR __that$[rsp]
	mov	rcx, QWORD PTR this$[rsp]
	call	??0exception@std@@QEAA@AEBV01@@Z	; std::exception::exception
	mov	rax, QWORD PTR this$[rsp]
	lea	rcx, OFFSET FLAT:??_7runtime_error@std@@6B@
	mov	QWORD PTR [rax], rcx
	mov	rax, QWORD PTR this$[rsp]
	add	rsp, 40					; 00000028H
	ret	0
??0runtime_error@std@@QEAA@AEBV01@@Z ENDP		; std::runtime_error::runtime_error
_TEXT	ENDS
; Function compile flags: /Odtp
;	COMDAT ??1runtime_error@std@@UEAA@XZ
_TEXT	SEGMENT
this$ = 48
??1runtime_error@std@@UEAA@XZ PROC			; std::runtime_error::~runtime_error, COMDAT
$LN3:
	mov	QWORD PTR [rsp+8], rcx
	sub	rsp, 40					; 00000028H
	mov	rcx, QWORD PTR this$[rsp]
	call	??1exception@std@@UEAA@XZ		; std::exception::~exception
	add	rsp, 40					; 00000028H
	ret	0
??1runtime_error@std@@UEAA@XZ ENDP			; std::runtime_error::~runtime_error
_TEXT	ENDS
; Function compile flags: /Odtp
; File F:\software installation\Visual Studio Installation\VC\Tools\MSVC\14.38.33130\include\stdexcept
;	COMDAT ??0runtime_error@std@@QEAA@AEBV?$basic_string@DU?$char_traits@D@std@@V?$allocator@D@2@@1@@Z
_TEXT	SEGMENT
this$ = 48
_Message$ = 56
??0runtime_error@std@@QEAA@AEBV?$basic_string@DU?$char_traits@D@std@@V?$allocator@D@2@@1@@Z PROC ; std::runtime_error::runtime_error, COMDAT

; 104  :     explicit runtime_error(const string& _Message) : _Mybase(_Message.c_str()) {}

$LN4:
	mov	QWORD PTR [rsp+16], rdx
	mov	QWORD PTR [rsp+8], rcx
	sub	rsp, 40					; 00000028H
	mov	rcx, QWORD PTR _Message$[rsp]
	call	?c_str@?$basic_string@DU?$char_traits@D@std@@V?$allocator@D@2@@std@@QEBAPEBDXZ ; std::basic_string<char,std::char_traits<char>,std::allocator<char> >::c_str
	mov	rdx, rax
	mov	rcx, QWORD PTR this$[rsp]
	call	??0exception@std@@QEAA@QEBD@Z		; std::exception::exception
	mov	rax, QWORD PTR this$[rsp]
	lea	rcx, OFFSET FLAT:??_7runtime_error@std@@6B@
	mov	QWORD PTR [rax], rcx
	mov	rax, QWORD PTR this$[rsp]
	add	rsp, 40					; 00000028H
	ret	0
??0runtime_error@std@@QEAA@AEBV?$basic_string@DU?$char_traits@D@std@@V?$allocator@D@2@@1@@Z ENDP ; std::runtime_error::runtime_error
_TEXT	ENDS
; Function compile flags: /Odtp
;	COMDAT ??1?$_Compressed_pair@V?$allocator@D@std@@V?$_String_val@U?$_Simple_types@D@std@@@2@$00@std@@QEAA@XZ
_TEXT	SEGMENT
this$ = 48
??1?$_Compressed_pair@V?$allocator@D@std@@V?$_String_val@U?$_Simple_types@D@std@@@2@$00@std@@QEAA@XZ PROC ; std::_Compressed_pair<std::allocator<char>,std::_String_val<std::_Simple_types<char> >,1>::~_Compressed_pair<std::allocator<char>,std::_String_val<std::_Simple_types<char> >,1>, COMDAT
$LN3:
	mov	QWORD PTR [rsp+8], rcx
	sub	rsp, 40					; 00000028H
	mov	rax, QWORD PTR this$[rsp]
	mov	rcx, rax
	call	??1?$_String_val@U?$_Simple_types@D@std@@@std@@QEAA@XZ
	add	rsp, 40					; 00000028H
	ret	0
??1?$_Compressed_pair@V?$allocator@D@std@@V?$_String_val@U?$_Simple_types@D@std@@@2@$00@std@@QEAA@XZ ENDP ; std::_Compressed_pair<std::allocator<char>,std::_String_val<std::_Simple_types<char> >,1>::~_Compressed_pair<std::allocator<char>,std::_String_val<std::_Simple_types<char> >,1>
_TEXT	ENDS
; Function compile flags: /Odtp
; File F:\software installation\Visual Studio Installation\VC\Tools\MSVC\14.38.33130\include\xmemory
;	COMDAT ?_Get_first@?$_Compressed_pair@V?$allocator@D@std@@V?$_String_val@U?$_Simple_types@D@std@@@2@$00@std@@QEBAAEBV?$allocator@D@2@XZ
_TEXT	SEGMENT
this$ = 8
?_Get_first@?$_Compressed_pair@V?$allocator@D@std@@V?$_String_val@U?$_Simple_types@D@std@@@2@$00@std@@QEBAAEBV?$allocator@D@2@XZ PROC ; std::_Compressed_pair<std::allocator<char>,std::_String_val<std::_Simple_types<char> >,1>::_Get_first, COMDAT

; 1530 :     constexpr const _Ty1& _Get_first() const noexcept {

	mov	QWORD PTR [rsp+8], rcx

; 1531 :         return *this;

	mov	rax, QWORD PTR this$[rsp]

; 1532 :     }

	ret	0
?_Get_first@?$_Compressed_pair@V?$allocator@D@std@@V?$_String_val@U?$_Simple_types@D@std@@@2@$00@std@@QEBAAEBV?$allocator@D@2@XZ ENDP ; std::_Compressed_pair<std::allocator<char>,std::_String_val<std::_Simple_types<char> >,1>::_Get_first
_TEXT	ENDS
; Function compile flags: /Odtp
; File F:\software installation\Visual Studio Installation\VC\Tools\MSVC\14.38.33130\include\xmemory
;	COMDAT ?_Get_first@?$_Compressed_pair@V?$allocator@D@std@@V?$_String_val@U?$_Simple_types@D@std@@@2@$00@std@@QEAAAEAV?$allocator@D@2@XZ
_TEXT	SEGMENT
this$ = 8
?_Get_first@?$_Compressed_pair@V?$allocator@D@std@@V?$_String_val@U?$_Simple_types@D@std@@@2@$00@std@@QEAAAEAV?$allocator@D@2@XZ PROC ; std::_Compressed_pair<std::allocator<char>,std::_String_val<std::_Simple_types<char> >,1>::_Get_first, COMDAT

; 1526 :     constexpr _Ty1& _Get_first() noexcept {

	mov	QWORD PTR [rsp+8], rcx

; 1527 :         return *this;

	mov	rax, QWORD PTR this$[rsp]

; 1528 :     }

	ret	0
?_Get_first@?$_Compressed_pair@V?$allocator@D@std@@V?$_String_val@U?$_Simple_types@D@std@@@2@$00@std@@QEAAAEAV?$allocator@D@2@XZ ENDP ; std::_Compressed_pair<std::allocator<char>,std::_String_val<std::_Simple_types<char> >,1>::_Get_first
_TEXT	ENDS
; Function compile flags: /Odtp
; File F:\software installation\Visual Studio Installation\VC\Tools\MSVC\14.38.33130\include\xstring
;	COMDAT ?_Getal@?$basic_string@DU?$char_traits@D@std@@V?$allocator@D@2@@std@@AEBAAEBV?$allocator@D@2@XZ
_TEXT	SEGMENT
this$ = 48
?_Getal@?$basic_string@DU?$char_traits@D@std@@V?$allocator@D@2@@std@@AEBAAEBV?$allocator@D@2@XZ PROC ; std::basic_string<char,std::char_traits<char>,std::allocator<char> >::_Getal, COMDAT

; 4869 :     _CONSTEXPR20 const _Alty& _Getal() const noexcept {

$LN3:
	mov	QWORD PTR [rsp+8], rcx
	sub	rsp, 40					; 00000028H

; 4870 :         return _Mypair._Get_first();

	mov	rax, QWORD PTR this$[rsp]
	mov	rcx, rax
	call	?_Get_first@?$_Compressed_pair@V?$allocator@D@std@@V?$_String_val@U?$_Simple_types@D@std@@@2@$00@std@@QEBAAEBV?$allocator@D@2@XZ ; std::_Compressed_pair<std::allocator<char>,std::_String_val<std::_Simple_types<char> >,1>::_Get_first

; 4871 :     }

	add	rsp, 40					; 00000028H
	ret	0
?_Getal@?$basic_string@DU?$char_traits@D@std@@V?$allocator@D@2@@std@@AEBAAEBV?$allocator@D@2@XZ ENDP ; std::basic_string<char,std::char_traits<char>,std::allocator<char> >::_Getal
_TEXT	ENDS
; Function compile flags: /Odtp
; File F:\software installation\Visual Studio Installation\VC\Tools\MSVC\14.38.33130\include\xstring
;	COMDAT ?_Getal@?$basic_string@DU?$char_traits@D@std@@V?$allocator@D@2@@std@@AEAAAEAV?$allocator@D@2@XZ
_TEXT	SEGMENT
this$ = 48
?_Getal@?$basic_string@DU?$char_traits@D@std@@V?$allocator@D@2@@std@@AEAAAEAV?$allocator@D@2@XZ PROC ; std::basic_string<char,std::char_traits<char>,std::allocator<char> >::_Getal, COMDAT

; 4865 :     _CONSTEXPR20 _Alty& _Getal() noexcept {

$LN3:
	mov	QWORD PTR [rsp+8], rcx
	sub	rsp, 40					; 00000028H

; 4866 :         return _Mypair._Get_first();

	mov	rax, QWORD PTR this$[rsp]
	mov	rcx, rax
	call	?_Get_first@?$_Compressed_pair@V?$allocator@D@std@@V?$_String_val@U?$_Simple_types@D@std@@@2@$00@std@@QEAAAEAV?$allocator@D@2@XZ ; std::_Compressed_pair<std::allocator<char>,std::_String_val<std::_Simple_types<char> >,1>::_Get_first

; 4867 :     }

	add	rsp, 40					; 00000028H
	ret	0
?_Getal@?$basic_string@DU?$char_traits@D@std@@V?$allocator@D@2@@std@@AEAAAEAV?$allocator@D@2@XZ ENDP ; std::basic_string<char,std::char_traits<char>,std::allocator<char> >::_Getal
_TEXT	ENDS
; Function compile flags: /Odtp
; File F:\software installation\Visual Studio Installation\VC\Tools\MSVC\14.38.33130\include\xstring
;	COMDAT ?_Swap_proxy_and_iterators@?$basic_string@DU?$char_traits@D@std@@V?$allocator@D@2@@std@@AEAAXAEAV12@@Z
_TEXT	SEGMENT
this$ = 48
_Right$ = 56
?_Swap_proxy_and_iterators@?$basic_string@DU?$char_traits@D@std@@V?$allocator@D@2@@std@@AEAAXAEAV12@@Z PROC ; std::basic_string<char,std::char_traits<char>,std::allocator<char> >::_Swap_proxy_and_iterators, COMDAT

; 4861 :     _CONSTEXPR20 void _Swap_proxy_and_iterators(basic_string& _Right) noexcept {

$LN3:
	mov	QWORD PTR [rsp+16], rdx
	mov	QWORD PTR [rsp+8], rcx
	sub	rsp, 40					; 00000028H

; 4862 :         _Mypair._Myval2._Swap_proxy_and_iterators(_Right._Mypair._Myval2);

	mov	rax, QWORD PTR _Right$[rsp]
	mov	rcx, QWORD PTR this$[rsp]
	mov	rdx, rax
	call	?_Swap_proxy_and_iterators@_Container_base0@std@@QEAAXAEAU12@@Z ; std::_Container_base0::_Swap_proxy_and_iterators

; 4863 :     }

	add	rsp, 40					; 00000028H
	ret	0
?_Swap_proxy_and_iterators@?$basic_string@DU?$char_traits@D@std@@V?$allocator@D@2@@std@@AEAAXAEAV12@@Z ENDP ; std::basic_string<char,std::char_traits<char>,std::allocator<char> >::_Swap_proxy_and_iterators
_TEXT	ENDS
; Function compile flags: /Odtp
; File F:\software installation\Visual Studio Installation\VC\Tools\MSVC\14.38.33130\include\xstring
;	COMDAT ?_Tidy_deallocate@?$basic_string@DU?$char_traits@D@std@@V?$allocator@D@2@@std@@AEAAXXZ
_TEXT	SEGMENT
$T1 = 32
_My_data$ = 40
_Ptr$2 = 48
_Al$3 = 56
this$ = 80
?_Tidy_deallocate@?$basic_string@DU?$char_traits@D@std@@V?$allocator@D@2@@std@@AEAAXXZ PROC ; std::basic_string<char,std::char_traits<char>,std::allocator<char> >::_Tidy_deallocate, COMDAT

; 4837 :     _CONSTEXPR20 void _Tidy_deallocate() noexcept { // initialize buffer, deallocating any storage

$LN4:
	mov	QWORD PTR [rsp+8], rcx
	sub	rsp, 72					; 00000048H

; 4838 :         auto& _My_data = _Mypair._Myval2;

	mov	rax, QWORD PTR this$[rsp]
	mov	QWORD PTR _My_data$[rsp], rax

; 4839 :         _My_data._Orphan_all();

	mov	rcx, QWORD PTR _My_data$[rsp]
	call	?_Orphan_all@_Container_base0@std@@QEAAXXZ ; std::_Container_base0::_Orphan_all

; 4840 :         if (_My_data._Large_mode_engaged()) {

	mov	rcx, QWORD PTR _My_data$[rsp]
	call	?_Large_mode_engaged@?$_String_val@U?$_Simple_types@D@std@@@std@@QEBA_NXZ ; std::_String_val<std::_Simple_types<char> >::_Large_mode_engaged
	movzx	eax, al
	test	eax, eax
	je	SHORT $LN2@Tidy_deall

; 4841 :             _ASAN_STRING_REMOVE(*this);
; 4842 :             const pointer _Ptr = _My_data._Bx._Ptr;

	mov	rax, QWORD PTR _My_data$[rsp]
	mov	rax, QWORD PTR [rax]
	mov	QWORD PTR _Ptr$2[rsp], rax

; 4843 :             auto& _Al          = _Getal();

	mov	rcx, QWORD PTR this$[rsp]
	call	?_Getal@?$basic_string@DU?$char_traits@D@std@@V?$allocator@D@2@@std@@AEAAAEAV?$allocator@D@2@XZ ; std::basic_string<char,std::char_traits<char>,std::allocator<char> >::_Getal
	mov	QWORD PTR _Al$3[rsp], rax

; 4844 :             _Destroy_in_place(_My_data._Bx._Ptr);

	mov	rax, QWORD PTR _My_data$[rsp]
	mov	rcx, rax
	call	??$_Destroy_in_place@PEAD@std@@YAXAEAPEAD@Z ; std::_Destroy_in_place<char *>

; 4845 :             _My_data._Activate_SSO_buffer();

	mov	rcx, QWORD PTR _My_data$[rsp]
	call	?_Activate_SSO_buffer@?$_String_val@U?$_Simple_types@D@std@@@std@@QEAAXXZ ; std::_String_val<std::_Simple_types<char> >::_Activate_SSO_buffer

; 4846 :             _Deallocate_for_capacity(_Al, _Ptr, _My_data._Myres);

	mov	rax, QWORD PTR _My_data$[rsp]
	mov	r8, QWORD PTR [rax+24]
	mov	rdx, QWORD PTR _Ptr$2[rsp]
	mov	rcx, QWORD PTR _Al$3[rsp]
	call	?_Deallocate_for_capacity@?$basic_string@DU?$char_traits@D@std@@V?$allocator@D@2@@std@@CAXAEAV?$allocator@D@2@QEAD_K@Z ; std::basic_string<char,std::char_traits<char>,std::allocator<char> >::_Deallocate_for_capacity
$LN2@Tidy_deall:

; 4847 :         }
; 4848 : 
; 4849 :         _My_data._Mysize = 0;

	mov	rax, QWORD PTR _My_data$[rsp]
	mov	QWORD PTR [rax+16], 0

; 4850 :         _My_data._Myres  = _Small_string_capacity;

	mov	rax, QWORD PTR _My_data$[rsp]
	mov	QWORD PTR [rax+24], 15

; 4851 :         // the _Traits::assign is last so the codegen doesn't think the char write can alias this
; 4852 :         _Traits::assign(_My_data._Bx._Buf[0], _Elem());

	mov	BYTE PTR $T1[rsp], 0
	mov	eax, 1
	imul	rax, rax, 0
	mov	rcx, QWORD PTR _My_data$[rsp]
	add	rcx, rax
	mov	rax, rcx
	lea	rdx, QWORD PTR $T1[rsp]
	mov	rcx, rax
	call	?assign@?$_Narrow_char_traits@DH@std@@SAXAEADAEBD@Z ; std::_Narrow_char_traits<char,int>::assign

; 4853 :     }

	add	rsp, 72					; 00000048H
	ret	0
?_Tidy_deallocate@?$basic_string@DU?$char_traits@D@std@@V?$allocator@D@2@@std@@AEAAXXZ ENDP ; std::basic_string<char,std::char_traits<char>,std::allocator<char> >::_Tidy_deallocate
_TEXT	ENDS
; Function compile flags: /Odtp
; File F:\software installation\Visual Studio Installation\VC\Tools\MSVC\14.38.33130\include\xstring
;	COMDAT ?_Tidy_init@?$basic_string@DU?$char_traits@D@std@@V?$allocator@D@2@@std@@AEAAXXZ
_TEXT	SEGMENT
$T1 = 32
_My_data$ = 40
this$ = 64
?_Tidy_init@?$basic_string@DU?$char_traits@D@std@@V?$allocator@D@2@@std@@AEAAXXZ PROC ; std::basic_string<char,std::char_traits<char>,std::allocator<char> >::_Tidy_init, COMDAT

; 4826 :     _CONSTEXPR20 void _Tidy_init() noexcept {

$LN3:
	mov	QWORD PTR [rsp+8], rcx
	sub	rsp, 56					; 00000038H

; 4827 :         // initialize basic_string data members
; 4828 :         auto& _My_data   = _Mypair._Myval2;

	mov	rax, QWORD PTR this$[rsp]
	mov	QWORD PTR _My_data$[rsp], rax

; 4829 :         _My_data._Mysize = 0;

	mov	rax, QWORD PTR _My_data$[rsp]
	mov	QWORD PTR [rax+16], 0

; 4830 :         _My_data._Myres  = _Small_string_capacity;

	mov	rax, QWORD PTR _My_data$[rsp]
	mov	QWORD PTR [rax+24], 15

; 4831 :         _My_data._Activate_SSO_buffer();

	mov	rcx, QWORD PTR _My_data$[rsp]
	call	?_Activate_SSO_buffer@?$_String_val@U?$_Simple_types@D@std@@@std@@QEAAXXZ ; std::_String_val<std::_Simple_types<char> >::_Activate_SSO_buffer

; 4832 : 
; 4833 :         // the _Traits::assign is last so the codegen doesn't think the char write can alias this
; 4834 :         _Traits::assign(_My_data._Bx._Buf[0], _Elem());

	mov	BYTE PTR $T1[rsp], 0
	mov	eax, 1
	imul	rax, rax, 0
	mov	rcx, QWORD PTR _My_data$[rsp]
	add	rcx, rax
	mov	rax, rcx
	lea	rdx, QWORD PTR $T1[rsp]
	mov	rcx, rax
	call	?assign@?$_Narrow_char_traits@DH@std@@SAXAEADAEBD@Z ; std::_Narrow_char_traits<char,int>::assign

; 4835 :     }

	add	rsp, 56					; 00000038H
	ret	0
?_Tidy_init@?$basic_string@DU?$char_traits@D@std@@V?$allocator@D@2@@std@@AEAAXXZ ENDP ; std::basic_string<char,std::char_traits<char>,std::allocator<char> >::_Tidy_init
_TEXT	ENDS
; Function compile flags: /Odtp
; File F:\software installation\Visual Studio Installation\VC\Tools\MSVC\14.38.33130\include\xstring
;	COMDAT ?_Calculate_growth@?$basic_string@DU?$char_traits@D@std@@V?$allocator@D@2@@std@@AEBA_K_K@Z
_TEXT	SEGMENT
this$ = 48
_Requested$ = 56
?_Calculate_growth@?$basic_string@DU?$char_traits@D@std@@V?$allocator@D@2@@std@@AEBA_K_K@Z PROC ; std::basic_string<char,std::char_traits<char>,std::allocator<char> >::_Calculate_growth, COMDAT

; 4736 :     _NODISCARD _CONSTEXPR20 size_type _Calculate_growth(const size_type _Requested) const noexcept {

$LN3:
	mov	QWORD PTR [rsp+16], rdx
	mov	QWORD PTR [rsp+8], rcx
	sub	rsp, 40					; 00000028H

; 4737 :         return _Calculate_growth(_Requested, _Mypair._Myval2._Myres, max_size());

	mov	rcx, QWORD PTR this$[rsp]
	call	?max_size@?$basic_string@DU?$char_traits@D@std@@V?$allocator@D@2@@std@@QEBA_KXZ ; std::basic_string<char,std::char_traits<char>,std::allocator<char> >::max_size
	mov	r8, rax
	mov	rax, QWORD PTR this$[rsp]
	mov	rdx, QWORD PTR [rax+24]
	mov	rcx, QWORD PTR _Requested$[rsp]
	call	?_Calculate_growth@?$basic_string@DU?$char_traits@D@std@@V?$allocator@D@2@@std@@CA_K_K00@Z ; std::basic_string<char,std::char_traits<char>,std::allocator<char> >::_Calculate_growth

; 4738 :     }

	add	rsp, 40					; 00000028H
	ret	0
?_Calculate_growth@?$basic_string@DU?$char_traits@D@std@@V?$allocator@D@2@@std@@AEBA_K_K@Z ENDP ; std::basic_string<char,std::char_traits<char>,std::allocator<char> >::_Calculate_growth
_TEXT	ENDS
; Function compile flags: /Odtp
; File F:\software installation\Visual Studio Installation\VC\Tools\MSVC\14.38.33130\include\xstring
;	COMDAT ?_Calculate_growth@?$basic_string@DU?$char_traits@D@std@@V?$allocator@D@2@@std@@CA_K_K00@Z
_TEXT	SEGMENT
_Masked$ = 32
$T1 = 40
_Requested$ = 64
_Old$ = 72
_Max$ = 80
?_Calculate_growth@?$basic_string@DU?$char_traits@D@std@@V?$allocator@D@2@@std@@CA_K_K00@Z PROC ; std::basic_string<char,std::char_traits<char>,std::allocator<char> >::_Calculate_growth, COMDAT

; 4723 :         const size_type _Requested, const size_type _Old, const size_type _Max) noexcept {

$LN5:
	mov	QWORD PTR [rsp+24], r8
	mov	QWORD PTR [rsp+16], rdx
	mov	QWORD PTR [rsp+8], rcx
	sub	rsp, 56					; 00000038H

; 4724 :         const size_type _Masked = _Requested | _Alloc_mask;

	mov	rax, QWORD PTR _Requested$[rsp]
	or	rax, 15
	mov	QWORD PTR _Masked$[rsp], rax

; 4725 :         if (_Masked > _Max) { // the mask overflows, settle for max_size()

	mov	rax, QWORD PTR _Max$[rsp]
	cmp	QWORD PTR _Masked$[rsp], rax
	jbe	SHORT $LN2@Calculate_

; 4726 :             return _Max;

	mov	rax, QWORD PTR _Max$[rsp]
	jmp	SHORT $LN1@Calculate_
$LN2@Calculate_:

; 4727 :         }
; 4728 : 
; 4729 :         if (_Old > _Max - _Old / 2) { // similarly, geometric overflows

	xor	edx, edx
	mov	rax, QWORD PTR _Old$[rsp]
	mov	ecx, 2
	div	rcx
	mov	rcx, QWORD PTR _Max$[rsp]
	sub	rcx, rax
	mov	rax, rcx
	cmp	QWORD PTR _Old$[rsp], rax
	jbe	SHORT $LN3@Calculate_

; 4730 :             return _Max;

	mov	rax, QWORD PTR _Max$[rsp]
	jmp	SHORT $LN1@Calculate_
$LN3@Calculate_:

; 4731 :         }
; 4732 : 
; 4733 :         return (_STD max)(_Masked, _Old + _Old / 2);

	xor	edx, edx
	mov	rax, QWORD PTR _Old$[rsp]
	mov	ecx, 2
	div	rcx
	mov	rcx, QWORD PTR _Old$[rsp]
	add	rcx, rax
	mov	rax, rcx
	mov	QWORD PTR $T1[rsp], rax
	lea	rdx, QWORD PTR $T1[rsp]
	lea	rcx, QWORD PTR _Masked$[rsp]
	call	??$max@_K@std@@YAAEB_KAEB_K0@Z		; std::max<unsigned __int64>
	mov	rax, QWORD PTR [rax]
$LN1@Calculate_:

; 4734 :     }

	add	rsp, 56					; 00000038H
	ret	0
?_Calculate_growth@?$basic_string@DU?$char_traits@D@std@@V?$allocator@D@2@@std@@CA_K_K00@Z ENDP ; std::basic_string<char,std::char_traits<char>,std::allocator<char> >::_Calculate_growth
_TEXT	ENDS
; Function compile flags: /Odtp
; File F:\software installation\Visual Studio Installation\VC\Tools\MSVC\14.38.33130\include\xstring
;	COMDAT ?empty@?$basic_string@DU?$char_traits@D@std@@V?$allocator@D@2@@std@@QEBA_NXZ
_TEXT	SEGMENT
tv68 = 0
this$ = 32
?empty@?$basic_string@DU?$char_traits@D@std@@V?$allocator@D@2@@std@@QEBA_NXZ PROC ; std::basic_string<char,std::char_traits<char>,std::allocator<char> >::empty, COMDAT

; 4237 :     _NODISCARD_EMPTY_MEMBER _CONSTEXPR20 bool empty() const noexcept {

$LN5:
	mov	QWORD PTR [rsp+8], rcx
	sub	rsp, 24

; 4238 :         return _Mypair._Myval2._Mysize == 0;

	mov	rax, QWORD PTR this$[rsp]
	cmp	QWORD PTR [rax+16], 0
	jne	SHORT $LN3@empty
	mov	DWORD PTR tv68[rsp], 1
	jmp	SHORT $LN4@empty
$LN3@empty:
	mov	DWORD PTR tv68[rsp], 0
$LN4@empty:
	movzx	eax, BYTE PTR tv68[rsp]

; 4239 :     }

	add	rsp, 24
	ret	0
?empty@?$basic_string@DU?$char_traits@D@std@@V?$allocator@D@2@@std@@QEBA_NXZ ENDP ; std::basic_string<char,std::char_traits<char>,std::allocator<char> >::empty
_TEXT	ENDS
; Function compile flags: /Odtp
; File F:\software installation\Visual Studio Installation\VC\Tools\MSVC\14.38.33130\include\xstring
;	COMDAT ?max_size@?$basic_string@DU?$char_traits@D@std@@V?$allocator@D@2@@std@@QEBA_KXZ
_TEXT	SEGMENT
$T1 = 32
_Alloc_max$ = 40
_Storage_max$ = 48
$T2 = 56
$T3 = 64
this$ = 96
?max_size@?$basic_string@DU?$char_traits@D@std@@V?$allocator@D@2@@std@@QEBA_KXZ PROC ; std::basic_string<char,std::char_traits<char>,std::allocator<char> >::max_size, COMDAT

; 4126 :     _NODISCARD _CONSTEXPR20 size_type max_size() const noexcept {

$LN3:
	mov	QWORD PTR [rsp+8], rcx
	sub	rsp, 88					; 00000058H

; 4127 :         const size_type _Alloc_max   = _Alty_traits::max_size(_Getal());

	mov	rcx, QWORD PTR this$[rsp]
	call	?_Getal@?$basic_string@DU?$char_traits@D@std@@V?$allocator@D@2@@std@@AEBAAEBV?$allocator@D@2@XZ ; std::basic_string<char,std::char_traits<char>,std::allocator<char> >::_Getal
	mov	rcx, rax
	call	?max_size@?$_Default_allocator_traits@V?$allocator@D@std@@@std@@SA_KAEBV?$allocator@D@2@@Z ; std::_Default_allocator_traits<std::allocator<char> >::max_size
	mov	QWORD PTR _Alloc_max$[rsp], rax

; 4128 :         const size_type _Storage_max = // can always store small string

	mov	QWORD PTR $T1[rsp], 16
	lea	rdx, QWORD PTR $T1[rsp]
	lea	rcx, QWORD PTR _Alloc_max$[rsp]
	call	??$max@_K@std@@YAAEB_KAEB_K0@Z		; std::max<unsigned __int64>
	mov	rax, QWORD PTR [rax]
	mov	QWORD PTR _Storage_max$[rsp], rax

; 4129 :             (_STD max)(_Alloc_max, static_cast<size_type>(_BUF_SIZE));
; 4130 :         return (_STD min)(static_cast<size_type>((numeric_limits<difference_type>::max)()),

	mov	rax, QWORD PTR _Storage_max$[rsp]
	dec	rax
	mov	QWORD PTR $T2[rsp], rax
	call	?max@?$numeric_limits@_J@std@@SA_JXZ	; std::numeric_limits<__int64>::max
	mov	QWORD PTR $T3[rsp], rax
	lea	rdx, QWORD PTR $T2[rsp]
	lea	rcx, QWORD PTR $T3[rsp]
	call	??$min@_K@std@@YAAEB_KAEB_K0@Z		; std::min<unsigned __int64>
	mov	rax, QWORD PTR [rax]

; 4131 :             _Storage_max - 1 // -1 is for null terminator and/or npos
; 4132 :         );
; 4133 :     }

	add	rsp, 88					; 00000058H
	ret	0
?max_size@?$basic_string@DU?$char_traits@D@std@@V?$allocator@D@2@@std@@QEBA_KXZ ENDP ; std::basic_string<char,std::char_traits<char>,std::allocator<char> >::max_size
_TEXT	ENDS
; Function compile flags: /Odtp
; File F:\software installation\Visual Studio Installation\VC\Tools\MSVC\14.38.33130\include\xstring
;	COMDAT ?c_str@?$basic_string@DU?$char_traits@D@std@@V?$allocator@D@2@@std@@QEBAPEBDXZ
_TEXT	SEGMENT
this$ = 48
?c_str@?$basic_string@DU?$char_traits@D@std@@V?$allocator@D@2@@std@@QEBAPEBDXZ PROC ; std::basic_string<char,std::char_traits<char>,std::allocator<char> >::c_str, COMDAT

; 4104 :     _NODISCARD _CONSTEXPR20 _Ret_z_ const _Elem* c_str() const noexcept {

$LN3:
	mov	QWORD PTR [rsp+8], rcx
	sub	rsp, 40					; 00000028H

; 4105 :         return _Mypair._Myval2._Myptr();

	mov	rax, QWORD PTR this$[rsp]
	mov	rcx, rax
	call	?_Myptr@?$_String_val@U?$_Simple_types@D@std@@@std@@QEBAPEBDXZ ; std::_String_val<std::_Simple_types<char> >::_Myptr

; 4106 :     }

	add	rsp, 40					; 00000028H
	ret	0
?c_str@?$basic_string@DU?$char_traits@D@std@@V?$allocator@D@2@@std@@QEBAPEBDXZ ENDP ; std::basic_string<char,std::char_traits<char>,std::allocator<char> >::c_str
_TEXT	ENDS
; Function compile flags: /Odtp
; File F:\software installation\Visual Studio Installation\VC\Tools\MSVC\14.38.33130\include\xstring
;	COMDAT ?append@?$basic_string@DU?$char_traits@D@std@@V?$allocator@D@2@@std@@QEAAAEAV12@QEBD@Z
_TEXT	SEGMENT
this$ = 48
_Ptr$ = 56
?append@?$basic_string@DU?$char_traits@D@std@@V?$allocator@D@2@@std@@QEAAAEAV12@QEBD@Z PROC ; std::basic_string<char,std::char_traits<char>,std::allocator<char> >::append, COMDAT

; 3288 :     _CONSTEXPR20 basic_string& append(_In_z_ const _Elem* const _Ptr) { // append [_Ptr, <null>)

$LN3:
	mov	QWORD PTR [rsp+16], rdx
	mov	QWORD PTR [rsp+8], rcx
	sub	rsp, 40					; 00000028H

; 3289 :         return append(_Ptr, _Convert_size<size_type>(_Traits::length(_Ptr)));

	mov	rcx, QWORD PTR _Ptr$[rsp]
	call	?length@?$_Narrow_char_traits@DH@std@@SA_KQEBD@Z ; std::_Narrow_char_traits<char,int>::length
	mov	rcx, rax
	call	??$_Convert_size@_K_K@std@@YA_K_K@Z	; std::_Convert_size<unsigned __int64,unsigned __int64>
	mov	r8, rax
	mov	rdx, QWORD PTR _Ptr$[rsp]
	mov	rcx, QWORD PTR this$[rsp]
	call	?append@?$basic_string@DU?$char_traits@D@std@@V?$allocator@D@2@@std@@QEAAAEAV12@QEBD_K@Z ; std::basic_string<char,std::char_traits<char>,std::allocator<char> >::append

; 3290 :     }

	add	rsp, 40					; 00000028H
	ret	0
?append@?$basic_string@DU?$char_traits@D@std@@V?$allocator@D@2@@std@@QEAAAEAV12@QEBD@Z ENDP ; std::basic_string<char,std::char_traits<char>,std::allocator<char> >::append
_TEXT	ENDS
; Function compile flags: /Odtp
; File F:\software installation\Visual Studio Installation\VC\Tools\MSVC\14.38.33130\include\xstring
;	COMDAT ?append@?$basic_string@DU?$char_traits@D@std@@V?$allocator@D@2@@std@@QEAAAEAV12@QEBD_K@Z
_TEXT	SEGMENT
$T1 = 48
$T2 = 49
_Old_size$ = 56
_Old_ptr$3 = 64
this$ = 96
_Ptr$ = 104
_Count$ = 112
?append@?$basic_string@DU?$char_traits@D@std@@V?$allocator@D@2@@std@@QEAAAEAV12@QEBD_K@Z PROC ; std::basic_string<char,std::char_traits<char>,std::allocator<char> >::append, COMDAT

; 3265 :         _In_reads_(_Count) const _Elem* const _Ptr, _CRT_GUARDOVERFLOW const size_type _Count) {

$LN4:
	mov	QWORD PTR [rsp+24], r8
	mov	QWORD PTR [rsp+16], rdx
	mov	QWORD PTR [rsp+8], rcx
	push	rdi
	sub	rsp, 80					; 00000050H

; 3266 :         // append [_Ptr, _Ptr + _Count)
; 3267 :         const size_type _Old_size = _Mypair._Myval2._Mysize;

	mov	rax, QWORD PTR this$[rsp]
	mov	rax, QWORD PTR [rax+16]
	mov	QWORD PTR _Old_size$[rsp], rax

; 3268 :         if (_Count <= _Mypair._Myval2._Myres - _Old_size) {

	mov	rax, QWORD PTR this$[rsp]
	mov	rcx, QWORD PTR _Old_size$[rsp]
	mov	rax, QWORD PTR [rax+24]
	sub	rax, rcx
	cmp	QWORD PTR _Count$[rsp], rax
	ja	$LN2@append

; 3269 :             _ASAN_STRING_MODIFY(*this, _Old_size, _Old_size + _Count);
; 3270 :             _Mypair._Myval2._Mysize = _Old_size + _Count;

	mov	rax, QWORD PTR _Count$[rsp]
	mov	rcx, QWORD PTR _Old_size$[rsp]
	add	rcx, rax
	mov	rax, rcx
	mov	rcx, QWORD PTR this$[rsp]
	mov	QWORD PTR [rcx+16], rax

; 3271 :             _Elem* const _Old_ptr   = _Mypair._Myval2._Myptr();

	mov	rax, QWORD PTR this$[rsp]
	mov	rcx, rax
	call	?_Myptr@?$_String_val@U?$_Simple_types@D@std@@@std@@QEAAPEADXZ ; std::_String_val<std::_Simple_types<char> >::_Myptr
	mov	QWORD PTR _Old_ptr$3[rsp], rax

; 3272 :             _Traits::move(_Old_ptr + _Old_size, _Ptr, _Count);

	mov	rax, QWORD PTR _Old_size$[rsp]
	mov	rcx, QWORD PTR _Old_ptr$3[rsp]
	add	rcx, rax
	mov	rax, rcx
	mov	r8, QWORD PTR _Count$[rsp]
	mov	rdx, QWORD PTR _Ptr$[rsp]
	mov	rcx, rax
	call	?move@?$_Char_traits@DH@std@@SAPEADQEADQEBD_K@Z ; std::_Char_traits<char,int>::move

; 3273 :             _Traits::assign(_Old_ptr[_Old_size + _Count], _Elem());

	mov	BYTE PTR $T1[rsp], 0
	mov	rax, QWORD PTR _Count$[rsp]
	mov	rcx, QWORD PTR _Old_size$[rsp]
	add	rcx, rax
	mov	rax, rcx
	mov	rcx, QWORD PTR _Old_ptr$3[rsp]
	add	rcx, rax
	mov	rax, rcx
	lea	rdx, QWORD PTR $T1[rsp]
	mov	rcx, rax
	call	?assign@?$_Narrow_char_traits@DH@std@@SAXAEADAEBD@Z ; std::_Narrow_char_traits<char,int>::assign

; 3274 :             return *this;

	mov	rax, QWORD PTR this$[rsp]
	jmp	SHORT $LN1@append
$LN2@append:

; 3275 :         }
; 3276 : 
; 3277 :         return _Reallocate_grow_by(

	lea	rax, QWORD PTR $T2[rsp]
	mov	rdi, rax
	xor	eax, eax
	mov	ecx, 1
	rep stosb
	mov	rax, QWORD PTR _Count$[rsp]
	mov	QWORD PTR [rsp+32], rax
	mov	r9, QWORD PTR _Ptr$[rsp]
	movzx	r8d, BYTE PTR $T2[rsp]
	mov	rdx, QWORD PTR _Count$[rsp]
	mov	rcx, QWORD PTR this$[rsp]
	call	??$_Reallocate_grow_by@V<lambda_65e615be2a453ca0576c979606f46740>@@PEBD_K@?$basic_string@DU?$char_traits@D@std@@V?$allocator@D@2@@std@@AEAAAEAV01@_KV<lambda_65e615be2a453ca0576c979606f46740>@@PEBD_K@Z ; std::basic_string<char,std::char_traits<char>,std::allocator<char> >::_Reallocate_grow_by<<lambda_65e615be2a453ca0576c979606f46740>,char const *,unsigned __int64>
$LN1@append:

; 3278 :             _Count,
; 3279 :             [](_Elem* const _New_ptr, const _Elem* const _Old_ptr, const size_type _Old_size, const _Elem* const _Ptr,
; 3280 :                 const size_type _Count) {
; 3281 :                 _Traits::copy(_New_ptr, _Old_ptr, _Old_size);
; 3282 :                 _Traits::copy(_New_ptr + _Old_size, _Ptr, _Count);
; 3283 :                 _Traits::assign(_New_ptr[_Old_size + _Count], _Elem());
; 3284 :             },
; 3285 :             _Ptr, _Count);
; 3286 :     }

	add	rsp, 80					; 00000050H
	pop	rdi
	ret	0
?append@?$basic_string@DU?$char_traits@D@std@@V?$allocator@D@2@@std@@QEAAAEAV12@QEBD_K@Z ENDP ; std::basic_string<char,std::char_traits<char>,std::allocator<char> >::append
_TEXT	ENDS
; Function compile flags: /Odtp
; File F:\software installation\Visual Studio Installation\VC\Tools\MSVC\14.38.33130\include\xstring
;	COMDAT ?append@?$basic_string@DU?$char_traits@D@std@@V?$allocator@D@2@@std@@QEAAAEAV12@AEBV12@@Z
_TEXT	SEGMENT
this$ = 48
_Right$ = 56
?append@?$basic_string@DU?$char_traits@D@std@@V?$allocator@D@2@@std@@QEAAAEAV12@AEBV12@@Z PROC ; std::basic_string<char,std::char_traits<char>,std::allocator<char> >::append, COMDAT

; 3237 :     _CONSTEXPR20 basic_string& append(const basic_string& _Right) {

$LN3:
	mov	QWORD PTR [rsp+16], rdx
	mov	QWORD PTR [rsp+8], rcx
	sub	rsp, 40					; 00000028H

; 3238 :         return append(_Right._Mypair._Myval2._Myptr(), _Right._Mypair._Myval2._Mysize);

	mov	rax, QWORD PTR _Right$[rsp]
	mov	rcx, rax
	call	?_Myptr@?$_String_val@U?$_Simple_types@D@std@@@std@@QEBAPEBDXZ ; std::_String_val<std::_Simple_types<char> >::_Myptr
	mov	rcx, QWORD PTR _Right$[rsp]
	mov	r8, QWORD PTR [rcx+16]
	mov	rdx, rax
	mov	rcx, QWORD PTR this$[rsp]
	call	?append@?$basic_string@DU?$char_traits@D@std@@V?$allocator@D@2@@std@@QEAAAEAV12@QEBD_K@Z ; std::basic_string<char,std::char_traits<char>,std::allocator<char> >::append

; 3239 :     }

	add	rsp, 40					; 00000028H
	ret	0
?append@?$basic_string@DU?$char_traits@D@std@@V?$allocator@D@2@@std@@QEAAAEAV12@AEBV12@@Z ENDP ; std::basic_string<char,std::char_traits<char>,std::allocator<char> >::append
_TEXT	ENDS
; Function compile flags: /Odtp
; File F:\software installation\Visual Studio Installation\VC\Tools\MSVC\14.38.33130\include\xstring
;	COMDAT ??1?$basic_string@DU?$char_traits@D@std@@V?$allocator@D@2@@std@@QEAA@XZ
_TEXT	SEGMENT
this$ = 48
??1?$basic_string@DU?$char_traits@D@std@@V?$allocator@D@2@@std@@QEAA@XZ PROC ; std::basic_string<char,std::char_traits<char>,std::allocator<char> >::~basic_string<char,std::char_traits<char>,std::allocator<char> >, COMDAT

; 3138 :     _CONSTEXPR20 ~basic_string() noexcept {

$LN3:
	mov	QWORD PTR [rsp+8], rcx
	sub	rsp, 40					; 00000028H

; 3139 :         _Tidy_deallocate();

	mov	rcx, QWORD PTR this$[rsp]
	call	?_Tidy_deallocate@?$basic_string@DU?$char_traits@D@std@@V?$allocator@D@2@@std@@AEAAXXZ ; std::basic_string<char,std::char_traits<char>,std::allocator<char> >::_Tidy_deallocate

; 3140 : #if _ITERATOR_DEBUG_LEVEL != 0
; 3141 :         auto&& _Alproxy          = _GET_PROXY_ALLOCATOR(_Alty, _Getal());
; 3142 :         const auto _To_delete    = _Mypair._Myval2._Myproxy;
; 3143 :         _Mypair._Myval2._Myproxy = nullptr;
; 3144 :         _Delete_plain_internal(_Alproxy, _To_delete);
; 3145 : #endif // _ITERATOR_DEBUG_LEVEL != 0
; 3146 :     }

	mov	rax, QWORD PTR this$[rsp]
	mov	rcx, rax
	call	??1?$_Compressed_pair@V?$allocator@D@std@@V?$_String_val@U?$_Simple_types@D@std@@@2@$00@std@@QEAA@XZ
	add	rsp, 40					; 00000028H
	ret	0
??1?$basic_string@DU?$char_traits@D@std@@V?$allocator@D@2@@std@@QEAA@XZ ENDP ; std::basic_string<char,std::char_traits<char>,std::allocator<char> >::~basic_string<char,std::char_traits<char>,std::allocator<char> >
_TEXT	ENDS
; Function compile flags: /Odtp
; File F:\software installation\Visual Studio Installation\VC\Tools\MSVC\14.38.33130\include\xstring
;	COMDAT ?_Take_contents@?$basic_string@DU?$char_traits@D@std@@V?$allocator@D@2@@std@@AEAAXAEAV12@@Z
_TEXT	SEGMENT
_Right_data$ = 32
_My_data$ = 40
tv94 = 48
this$ = 80
_Right$ = 88
?_Take_contents@?$basic_string@DU?$char_traits@D@std@@V?$allocator@D@2@@std@@AEAAXAEAV12@@Z PROC ; std::basic_string<char,std::char_traits<char>,std::allocator<char> >::_Take_contents, COMDAT

; 3022 :     _CONSTEXPR20 void _Take_contents(basic_string& _Right) noexcept {

$LN5:
	mov	QWORD PTR [rsp+16], rdx
	mov	QWORD PTR [rsp+8], rcx
	sub	rsp, 72					; 00000048H

; 3023 :         // assign by stealing _Right's buffer
; 3024 :         // pre: this != &_Right
; 3025 :         // pre: allocator propagation (POCMA) from _Right, if necessary, is complete
; 3026 :         // pre: *this owns no memory, iterators orphaned
; 3027 :         // (note: _Buf/_Ptr/_Mysize/_Myres may be garbage init)
; 3028 :         auto& _My_data    = _Mypair._Myval2;

	mov	rax, QWORD PTR this$[rsp]
	mov	QWORD PTR _My_data$[rsp], rax

; 3029 :         auto& _Right_data = _Right._Mypair._Myval2;

	mov	rax, QWORD PTR _Right$[rsp]
	mov	QWORD PTR _Right_data$[rsp], rax

; 3030 : 
; 3031 : #if !defined(_INSERT_STRING_ANNOTATION)
; 3032 :         if constexpr (_Can_memcpy_val) {
; 3033 : #if _HAS_CXX20
; 3034 :             if (!_STD is_constant_evaluated())
; 3035 : #endif // _HAS_CXX20
; 3036 :             {
; 3037 : #if _ITERATOR_DEBUG_LEVEL != 0
; 3038 :                 if (_Right_data._Large_mode_engaged()) {
; 3039 :                     // take ownership of _Right's iterators along with its buffer
; 3040 :                     _Swap_proxy_and_iterators(_Right);
; 3041 :                 } else {
; 3042 :                     _Right_data._Orphan_all();
; 3043 :                 }
; 3044 : #endif // _ITERATOR_DEBUG_LEVEL != 0
; 3045 : 
; 3046 :                 _Memcpy_val_from(_Right);

	mov	rdx, QWORD PTR _Right$[rsp]
	mov	rcx, QWORD PTR this$[rsp]
	call	?_Memcpy_val_from@?$basic_string@DU?$char_traits@D@std@@V?$allocator@D@2@@std@@AEAAXAEBV12@@Z ; std::basic_string<char,std::char_traits<char>,std::allocator<char> >::_Memcpy_val_from

; 3047 :                 _Right._Tidy_init();

	mov	rcx, QWORD PTR _Right$[rsp]
	call	?_Tidy_init@?$basic_string@DU?$char_traits@D@std@@V?$allocator@D@2@@std@@AEAAXXZ ; std::basic_string<char,std::char_traits<char>,std::allocator<char> >::_Tidy_init

; 3048 :                 return;

	jmp	$LN1@Take_conte

; 3049 :             }
; 3050 :         }
; 3051 : #endif // !defined(_INSERT_STRING_ANNOTATION)
; 3052 : 
; 3053 :         if (_Right_data._Large_mode_engaged()) { // steal buffer

	mov	rcx, QWORD PTR _Right_data$[rsp]
	call	?_Large_mode_engaged@?$_String_val@U?$_Simple_types@D@std@@@std@@QEBA_NXZ ; std::_String_val<std::_Simple_types<char> >::_Large_mode_engaged
	movzx	eax, al
	test	eax, eax
	je	SHORT $LN2@Take_conte

; 3054 :             _Construct_in_place(_My_data._Bx._Ptr, _Right_data._Bx._Ptr);

	mov	rax, QWORD PTR _Right_data$[rsp]
	mov	rcx, QWORD PTR _My_data$[rsp]
	mov	rdx, rax
	call	??$_Construct_in_place@PEADAEAPEAD@std@@YAXAEAPEAD0@Z ; std::_Construct_in_place<char *,char * &>

; 3055 :             _Right_data._Bx._Ptr = nullptr;

	mov	rax, QWORD PTR _Right_data$[rsp]
	mov	QWORD PTR [rax], 0

; 3056 :             _Swap_proxy_and_iterators(_Right);

	mov	rdx, QWORD PTR _Right$[rsp]
	mov	rcx, QWORD PTR this$[rsp]
	call	?_Swap_proxy_and_iterators@?$basic_string@DU?$char_traits@D@std@@V?$allocator@D@2@@std@@AEAAXAEAV12@@Z ; std::basic_string<char,std::char_traits<char>,std::allocator<char> >::_Swap_proxy_and_iterators

; 3057 :         } else { // copy small string buffer

	jmp	SHORT $LN3@Take_conte
$LN2@Take_conte:

; 3058 :             _My_data._Activate_SSO_buffer();

	mov	rcx, QWORD PTR _My_data$[rsp]
	call	?_Activate_SSO_buffer@?$_String_val@U?$_Simple_types@D@std@@@std@@QEAAXXZ ; std::_String_val<std::_Simple_types<char> >::_Activate_SSO_buffer

; 3059 :             _Traits::copy(_My_data._Bx._Buf, _Right_data._Bx._Buf, _Right_data._Mysize + 1);

	mov	rax, QWORD PTR _Right_data$[rsp]
	mov	rax, QWORD PTR [rax+16]
	inc	rax
	mov	rcx, QWORD PTR _Right_data$[rsp]
	mov	rdx, QWORD PTR _My_data$[rsp]
	mov	QWORD PTR tv94[rsp], rdx
	mov	r8, rax
	mov	rdx, rcx
	mov	rax, QWORD PTR tv94[rsp]
	mov	rcx, rax
	call	?copy@?$_Char_traits@DH@std@@SAPEADQEADQEBD_K@Z ; std::_Char_traits<char,int>::copy

; 3060 :             _Right_data._Orphan_all();

	mov	rcx, QWORD PTR _Right_data$[rsp]
	call	?_Orphan_all@_Container_base0@std@@QEAAXXZ ; std::_Container_base0::_Orphan_all
$LN3@Take_conte:

; 3061 :         }
; 3062 : 
; 3063 :         _My_data._Myres  = _Right_data._Myres;

	mov	rax, QWORD PTR _My_data$[rsp]
	mov	rcx, QWORD PTR _Right_data$[rsp]
	mov	rcx, QWORD PTR [rcx+24]
	mov	QWORD PTR [rax+24], rcx

; 3064 :         _My_data._Mysize = _Right_data._Mysize;

	mov	rax, QWORD PTR _My_data$[rsp]
	mov	rcx, QWORD PTR _Right_data$[rsp]
	mov	rcx, QWORD PTR [rcx+16]
	mov	QWORD PTR [rax+16], rcx

; 3065 : 
; 3066 :         _Right._Tidy_init();

	mov	rcx, QWORD PTR _Right$[rsp]
	call	?_Tidy_init@?$basic_string@DU?$char_traits@D@std@@V?$allocator@D@2@@std@@AEAAXXZ ; std::basic_string<char,std::char_traits<char>,std::allocator<char> >::_Tidy_init
$LN1@Take_conte:

; 3067 :     }

	add	rsp, 72					; 00000048H
	ret	0
?_Take_contents@?$basic_string@DU?$char_traits@D@std@@V?$allocator@D@2@@std@@AEAAXAEAV12@@Z ENDP ; std::basic_string<char,std::char_traits<char>,std::allocator<char> >::_Take_contents
_TEXT	ENDS
; Function compile flags: /Odtp
; File F:\software installation\Visual Studio Installation\VC\Tools\MSVC\14.38.33130\include\xstring
;	COMDAT ?_Memcpy_val_from@?$basic_string@DU?$char_traits@D@std@@V?$allocator@D@2@@std@@AEAAXAEBV12@@Z
_TEXT	SEGMENT
_Right_data_mem$ = 32
_My_data_mem$ = 40
this$ = 64
_Right$ = 72
?_Memcpy_val_from@?$basic_string@DU?$char_traits@D@std@@V?$allocator@D@2@@std@@AEAAXAEBV12@@Z PROC ; std::basic_string<char,std::char_traits<char>,std::allocator<char> >::_Memcpy_val_from, COMDAT

; 3013 :     void _Memcpy_val_from(const basic_string& _Right) noexcept {

$LN3:
	mov	QWORD PTR [rsp+16], rdx
	mov	QWORD PTR [rsp+8], rcx
	sub	rsp, 56					; 00000038H

; 3014 :         _STL_INTERNAL_CHECK(_Can_memcpy_val);
; 3015 :         const auto _My_data_mem =

	mov	rax, QWORD PTR this$[rsp]
	mov	rcx, rax
	call	??$addressof@V?$_String_val@U?$_Simple_types@D@std@@@std@@@std@@YAPEAV?$_String_val@U?$_Simple_types@D@std@@@0@AEAV10@@Z ; std::addressof<std::_String_val<std::_Simple_types<char> > >
	mov	QWORD PTR _My_data_mem$[rsp], rax

; 3016 :             reinterpret_cast<unsigned char*>(_STD addressof(_Mypair._Myval2)) + _Memcpy_val_offset;
; 3017 :         const auto _Right_data_mem =

	mov	rax, QWORD PTR _Right$[rsp]
	mov	rcx, rax
	call	??$addressof@$$CBV?$_String_val@U?$_Simple_types@D@std@@@std@@@std@@YAPEBV?$_String_val@U?$_Simple_types@D@std@@@0@AEBV10@@Z ; std::addressof<std::_String_val<std::_Simple_types<char> > const >
	mov	QWORD PTR _Right_data_mem$[rsp], rax

; 3018 :             reinterpret_cast<const unsigned char*>(_STD addressof(_Right._Mypair._Myval2)) + _Memcpy_val_offset;
; 3019 :         _CSTD memcpy(_My_data_mem, _Right_data_mem, _Memcpy_val_size);

	mov	r8d, 32					; 00000020H
	mov	rdx, QWORD PTR _Right_data_mem$[rsp]
	mov	rcx, QWORD PTR _My_data_mem$[rsp]
	call	memcpy

; 3020 :     }

	add	rsp, 56					; 00000038H
	ret	0
?_Memcpy_val_from@?$basic_string@DU?$char_traits@D@std@@V?$allocator@D@2@@std@@AEAAXAEBV12@@Z ENDP ; std::basic_string<char,std::char_traits<char>,std::allocator<char> >::_Memcpy_val_from
_TEXT	ENDS
; Function compile flags: /Odtp
; File F:\software installation\Visual Studio Installation\VC\Tools\MSVC\14.38.33130\include\xstring
;	COMDAT ??0?$basic_string@DU?$char_traits@D@std@@V?$allocator@D@2@@std@@QEAA@$$QEAV01@@Z
_TEXT	SEGMENT
$T1 = 32
this$ = 64
_Right$ = 72
??0?$basic_string@DU?$char_traits@D@std@@V?$allocator@D@2@@std@@QEAA@$$QEAV01@@Z PROC ; std::basic_string<char,std::char_traits<char>,std::allocator<char> >::basic_string<char,std::char_traits<char>,std::allocator<char> >, COMDAT

; 2780 :         : _Mypair(_One_then_variadic_args_t{}, _STD move(_Right._Getal())) {

$LN3:
	mov	QWORD PTR [rsp+16], rdx
	mov	QWORD PTR [rsp+8], rcx
	sub	rsp, 56					; 00000038H
	mov	rcx, QWORD PTR _Right$[rsp]
	call	?_Getal@?$basic_string@DU?$char_traits@D@std@@V?$allocator@D@2@@std@@AEAAAEAV?$allocator@D@2@XZ ; std::basic_string<char,std::char_traits<char>,std::allocator<char> >::_Getal
	mov	rcx, rax
	call	??$move@AEAV?$allocator@D@std@@@std@@YA$$QEAV?$allocator@D@0@AEAV10@@Z ; std::move<std::allocator<char> &>
	mov	rcx, QWORD PTR this$[rsp]
	mov	r8, rax
	movzx	edx, BYTE PTR $T1[rsp]
	call	??$?0V?$allocator@D@std@@$$V@?$_Compressed_pair@V?$allocator@D@std@@V?$_String_val@U?$_Simple_types@D@std@@@2@$00@std@@QEAA@U_One_then_variadic_args_t@1@$$QEAV?$allocator@D@1@@Z ; std::_Compressed_pair<std::allocator<char>,std::_String_val<std::_Simple_types<char> >,1>::_Compressed_pair<std::allocator<char>,std::_String_val<std::_Simple_types<char> >,1><std::allocator<char> >

; 2781 :         _Mypair._Myval2._Alloc_proxy(_GET_PROXY_ALLOCATOR(_Alty, _Getal()));

	mov	rax, QWORD PTR this$[rsp]
	lea	rdx, OFFSET FLAT:?_Fake_alloc@std@@3U_Fake_allocator@1@B
	mov	rcx, rax
	call	?_Alloc_proxy@_Container_base0@std@@QEAAXAEBU_Fake_allocator@2@@Z ; std::_Container_base0::_Alloc_proxy

; 2782 :         _Take_contents(_Right);

	mov	rdx, QWORD PTR _Right$[rsp]
	mov	rcx, QWORD PTR this$[rsp]
	call	?_Take_contents@?$basic_string@DU?$char_traits@D@std@@V?$allocator@D@2@@std@@AEAAXAEAV12@@Z ; std::basic_string<char,std::char_traits<char>,std::allocator<char> >::_Take_contents

; 2783 :     }

	mov	rax, QWORD PTR this$[rsp]
	add	rsp, 56					; 00000038H
	ret	0
??0?$basic_string@DU?$char_traits@D@std@@V?$allocator@D@2@@std@@QEAA@$$QEAV01@@Z ENDP ; std::basic_string<char,std::char_traits<char>,std::allocator<char> >::basic_string<char,std::char_traits<char>,std::allocator<char> >
_TEXT	ENDS
; Function compile flags: /Odtp
; File F:\software installation\Visual Studio Installation\VC\Tools\MSVC\14.38.33130\include\xstring
;	COMDAT ?_Deallocate_for_capacity@?$basic_string@DU?$char_traits@D@std@@V?$allocator@D@2@@std@@CAXAEAV?$allocator@D@2@QEAD_K@Z
_TEXT	SEGMENT
_Al$ = 48
_Old_ptr$ = 56
_Capacity$ = 64
?_Deallocate_for_capacity@?$basic_string@DU?$char_traits@D@std@@V?$allocator@D@2@@std@@CAXAEAV?$allocator@D@2@QEAD_K@Z PROC ; std::basic_string<char,std::char_traits<char>,std::allocator<char> >::_Deallocate_for_capacity, COMDAT

; 2628 :         _Alty& _Al, const pointer _Old_ptr, const size_type _Capacity) noexcept {

$LN3:
	mov	QWORD PTR [rsp+24], r8
	mov	QWORD PTR [rsp+16], rdx
	mov	QWORD PTR [rsp+8], rcx
	sub	rsp, 40					; 00000028H

; 2629 :         _STL_INTERNAL_CHECK(_Capacity > _Small_string_capacity);
; 2630 :         _Al.deallocate(_Old_ptr, _Capacity + 1); // +1 for null terminator

	mov	rax, QWORD PTR _Capacity$[rsp]
	inc	rax
	mov	r8, rax
	mov	rdx, QWORD PTR _Old_ptr$[rsp]
	mov	rcx, QWORD PTR _Al$[rsp]
	call	?deallocate@?$allocator@D@std@@QEAAXQEAD_K@Z ; std::allocator<char>::deallocate
	npad	1

; 2631 :     }

	add	rsp, 40					; 00000028H
	ret	0
?_Deallocate_for_capacity@?$basic_string@DU?$char_traits@D@std@@V?$allocator@D@2@@std@@CAXAEAV?$allocator@D@2@QEAD_K@Z ENDP ; std::basic_string<char,std::char_traits<char>,std::allocator<char> >::_Deallocate_for_capacity
_TEXT	ENDS
; Function compile flags: /Odtp
; File F:\software installation\Visual Studio Installation\VC\Tools\MSVC\14.38.33130\include\xstring
;	COMDAT ??0?$basic_string@DU?$char_traits@D@std@@V?$allocator@D@2@@std@@QEAA@QEBD@Z
_TEXT	SEGMENT
$T1 = 32
this$ = 64
_Ptr$ = 72
??0?$basic_string@DU?$char_traits@D@std@@V?$allocator@D@2@@std@@QEAA@QEBD@Z PROC ; std::basic_string<char,std::char_traits<char>,std::allocator<char> >::basic_string<char,std::char_traits<char>,std::allocator<char> >, COMDAT

; 2545 :     _CONSTEXPR20 basic_string(_In_z_ const _Elem* const _Ptr) : _Mypair(_Zero_then_variadic_args_t{}) {

$LN4:
	mov	QWORD PTR [rsp+16], rdx
	mov	QWORD PTR [rsp+8], rcx
	sub	rsp, 56					; 00000038H
	mov	rax, QWORD PTR this$[rsp]
	movzx	edx, BYTE PTR $T1[rsp]
	mov	rcx, rax
	call	??$?0$$V@?$_Compressed_pair@V?$allocator@D@std@@V?$_String_val@U?$_Simple_types@D@std@@@2@$00@std@@QEAA@U_Zero_then_variadic_args_t@1@@Z ; std::_Compressed_pair<std::allocator<char>,std::_String_val<std::_Simple_types<char> >,1>::_Compressed_pair<std::allocator<char>,std::_String_val<std::_Simple_types<char> >,1><>
	npad	1

; 2546 :         _Construct<_Construct_strategy::_From_ptr>(_Ptr, _Convert_size<size_type>(_Traits::length(_Ptr)));

	mov	rcx, QWORD PTR _Ptr$[rsp]
	call	?length@?$_Narrow_char_traits@DH@std@@SA_KQEBD@Z ; std::_Narrow_char_traits<char,int>::length
	mov	rcx, rax
	call	??$_Convert_size@_K_K@std@@YA_K_K@Z	; std::_Convert_size<unsigned __int64,unsigned __int64>
	mov	r8, rax
	mov	rdx, QWORD PTR _Ptr$[rsp]
	mov	rcx, QWORD PTR this$[rsp]
	call	??$_Construct@$00PEBD@?$basic_string@DU?$char_traits@D@std@@V?$allocator@D@2@@std@@AEAAXQEBD_K@Z ; std::basic_string<char,std::char_traits<char>,std::allocator<char> >::_Construct<1,char const *>
	npad	1

; 2547 :     }

	mov	rax, QWORD PTR this$[rsp]
	add	rsp, 56					; 00000038H
	ret	0
??0?$basic_string@DU?$char_traits@D@std@@V?$allocator@D@2@@std@@QEAA@QEBD@Z ENDP ; std::basic_string<char,std::char_traits<char>,std::allocator<char> >::basic_string<char,std::char_traits<char>,std::allocator<char> >
_TEXT	ENDS
; Function compile flags: /Odtp
;	COMDAT text$x
text$x	SEGMENT
$T1 = 32
this$ = 64
_Ptr$ = 72
?dtor$0@?0???0?$basic_string@DU?$char_traits@D@std@@V?$allocator@D@2@@std@@QEAA@QEBD@Z@4HA PROC ; `std::basic_string<char,std::char_traits<char>,std::allocator<char> >::basic_string<char,std::char_traits<char>,std::allocator<char> >'::`1'::dtor$0
	push	rbp
	sub	rsp, 32					; 00000020H
	mov	rbp, rdx
	mov	rcx, QWORD PTR this$[rbp]
	call	??1?$_Compressed_pair@V?$allocator@D@std@@V?$_String_val@U?$_Simple_types@D@std@@@2@$00@std@@QEAA@XZ
	add	rsp, 32					; 00000020H
	pop	rbp
	ret	0
?dtor$0@?0???0?$basic_string@DU?$char_traits@D@std@@V?$allocator@D@2@@std@@QEAA@QEBD@Z@4HA ENDP ; `std::basic_string<char,std::char_traits<char>,std::allocator<char> >::basic_string<char,std::char_traits<char>,std::allocator<char> >'::`1'::dtor$0
text$x	ENDS
; Function compile flags: /Odtp
; File F:\software installation\Visual Studio Installation\VC\Tools\MSVC\14.38.33130\include\xstring
;	COMDAT ??0?$basic_string@DU?$char_traits@D@std@@V?$allocator@D@2@@std@@QEAA@QEBD_K@Z
_TEXT	SEGMENT
$T1 = 32
this$ = 64
_Ptr$ = 72
_Count$ = 80
??0?$basic_string@DU?$char_traits@D@std@@V?$allocator@D@2@@std@@QEAA@QEBD_K@Z PROC ; std::basic_string<char,std::char_traits<char>,std::allocator<char> >::basic_string<char,std::char_traits<char>,std::allocator<char> >, COMDAT

; 2535 :         : _Mypair(_Zero_then_variadic_args_t{}) {

$LN4:
	mov	QWORD PTR [rsp+24], r8
	mov	QWORD PTR [rsp+16], rdx
	mov	QWORD PTR [rsp+8], rcx
	sub	rsp, 56					; 00000038H
	mov	rax, QWORD PTR this$[rsp]
	movzx	edx, BYTE PTR $T1[rsp]
	mov	rcx, rax
	call	??$?0$$V@?$_Compressed_pair@V?$allocator@D@std@@V?$_String_val@U?$_Simple_types@D@std@@@2@$00@std@@QEAA@U_Zero_then_variadic_args_t@1@@Z ; std::_Compressed_pair<std::allocator<char>,std::_String_val<std::_Simple_types<char> >,1>::_Compressed_pair<std::allocator<char>,std::_String_val<std::_Simple_types<char> >,1><>
	npad	1

; 2536 :         _Construct<_Construct_strategy::_From_ptr>(_Ptr, _Count);

	mov	r8, QWORD PTR _Count$[rsp]
	mov	rdx, QWORD PTR _Ptr$[rsp]
	mov	rcx, QWORD PTR this$[rsp]
	call	??$_Construct@$00PEBD@?$basic_string@DU?$char_traits@D@std@@V?$allocator@D@2@@std@@AEAAXQEBD_K@Z ; std::basic_string<char,std::char_traits<char>,std::allocator<char> >::_Construct<1,char const *>
	npad	1

; 2537 :     }

	mov	rax, QWORD PTR this$[rsp]
	add	rsp, 56					; 00000038H
	ret	0
??0?$basic_string@DU?$char_traits@D@std@@V?$allocator@D@2@@std@@QEAA@QEBD_K@Z ENDP ; std::basic_string<char,std::char_traits<char>,std::allocator<char> >::basic_string<char,std::char_traits<char>,std::allocator<char> >
_TEXT	ENDS
; Function compile flags: /Odtp
;	COMDAT text$x
text$x	SEGMENT
$T1 = 32
this$ = 64
_Ptr$ = 72
_Count$ = 80
?dtor$0@?0???0?$basic_string@DU?$char_traits@D@std@@V?$allocator@D@2@@std@@QEAA@QEBD_K@Z@4HA PROC ; `std::basic_string<char,std::char_traits<char>,std::allocator<char> >::basic_string<char,std::char_traits<char>,std::allocator<char> >'::`1'::dtor$0
	push	rbp
	sub	rsp, 32					; 00000020H
	mov	rbp, rdx
	mov	rcx, QWORD PTR this$[rbp]
	call	??1?$_Compressed_pair@V?$allocator@D@std@@V?$_String_val@U?$_Simple_types@D@std@@@2@$00@std@@QEAA@XZ
	add	rsp, 32					; 00000020H
	pop	rbp
	ret	0
?dtor$0@?0???0?$basic_string@DU?$char_traits@D@std@@V?$allocator@D@2@@std@@QEAA@QEBD_K@Z@4HA ENDP ; `std::basic_string<char,std::char_traits<char>,std::allocator<char> >::basic_string<char,std::char_traits<char>,std::allocator<char> >'::`1'::dtor$0
text$x	ENDS
; Function compile flags: /Odtp
; File F:\software installation\Visual Studio Installation\VC\Tools\MSVC\14.38.33130\include\xstring
;	COMDAT ??0?$basic_string@DU?$char_traits@D@std@@V?$allocator@D@2@@std@@QEAA@AEBV01@@Z
_TEXT	SEGMENT
$T1 = 32
$T2 = 33
this$ = 64
_Right$ = 72
??0?$basic_string@DU?$char_traits@D@std@@V?$allocator@D@2@@std@@QEAA@AEBV01@@Z PROC ; std::basic_string<char,std::char_traits<char>,std::allocator<char> >::basic_string<char,std::char_traits<char>,std::allocator<char> >, COMDAT

; 2497 :         : _Mypair(_One_then_variadic_args_t{}, _Alty_traits::select_on_container_copy_construction(_Right._Getal())) {

$LN4:
	mov	QWORD PTR [rsp+16], rdx
	mov	QWORD PTR [rsp+8], rcx
	sub	rsp, 56					; 00000038H
	mov	rcx, QWORD PTR _Right$[rsp]
	call	?_Getal@?$basic_string@DU?$char_traits@D@std@@V?$allocator@D@2@@std@@AEBAAEBV?$allocator@D@2@XZ ; std::basic_string<char,std::char_traits<char>,std::allocator<char> >::_Getal
	mov	rdx, rax
	lea	rcx, QWORD PTR $T1[rsp]
	call	?select_on_container_copy_construction@?$_Default_allocator_traits@V?$allocator@D@std@@@std@@SA?AV?$allocator@D@2@AEBV32@@Z ; std::_Default_allocator_traits<std::allocator<char> >::select_on_container_copy_construction
	mov	rcx, QWORD PTR this$[rsp]
	mov	r8, rax
	movzx	edx, BYTE PTR $T2[rsp]
	call	??$?0V?$allocator@D@std@@$$V@?$_Compressed_pair@V?$allocator@D@std@@V?$_String_val@U?$_Simple_types@D@std@@@2@$00@std@@QEAA@U_One_then_variadic_args_t@1@$$QEAV?$allocator@D@1@@Z ; std::_Compressed_pair<std::allocator<char>,std::_String_val<std::_Simple_types<char> >,1>::_Compressed_pair<std::allocator<char>,std::_String_val<std::_Simple_types<char> >,1><std::allocator<char> >
	npad	1

; 2498 :         _Construct<_Construct_strategy::_From_string>(_Right._Mypair._Myval2._Myptr(), _Right._Mypair._Myval2._Mysize);

	mov	rax, QWORD PTR _Right$[rsp]
	mov	rcx, rax
	call	?_Myptr@?$_String_val@U?$_Simple_types@D@std@@@std@@QEBAPEBDXZ ; std::_String_val<std::_Simple_types<char> >::_Myptr
	mov	rcx, QWORD PTR _Right$[rsp]
	mov	r8, QWORD PTR [rcx+16]
	mov	rdx, rax
	mov	rcx, QWORD PTR this$[rsp]
	call	??$_Construct@$01PEBD@?$basic_string@DU?$char_traits@D@std@@V?$allocator@D@2@@std@@AEAAXQEBD_K@Z ; std::basic_string<char,std::char_traits<char>,std::allocator<char> >::_Construct<2,char const *>
	npad	1

; 2499 :     }

	mov	rax, QWORD PTR this$[rsp]
	add	rsp, 56					; 00000038H
	ret	0
??0?$basic_string@DU?$char_traits@D@std@@V?$allocator@D@2@@std@@QEAA@AEBV01@@Z ENDP ; std::basic_string<char,std::char_traits<char>,std::allocator<char> >::basic_string<char,std::char_traits<char>,std::allocator<char> >
_TEXT	ENDS
; Function compile flags: /Odtp
;	COMDAT text$x
text$x	SEGMENT
$T1 = 32
$T2 = 33
this$ = 64
_Right$ = 72
?dtor$0@?0???0?$basic_string@DU?$char_traits@D@std@@V?$allocator@D@2@@std@@QEAA@AEBV01@@Z@4HA PROC ; `std::basic_string<char,std::char_traits<char>,std::allocator<char> >::basic_string<char,std::char_traits<char>,std::allocator<char> >'::`1'::dtor$0
	push	rbp
	sub	rsp, 32					; 00000020H
	mov	rbp, rdx
	mov	rcx, QWORD PTR this$[rbp]
	call	??1?$_Compressed_pair@V?$allocator@D@std@@V?$_String_val@U?$_Simple_types@D@std@@@2@$00@std@@QEAA@XZ
	add	rsp, 32					; 00000020H
	pop	rbp
	ret	0
?dtor$0@?0???0?$basic_string@DU?$char_traits@D@std@@V?$allocator@D@2@@std@@QEAA@AEBV01@@Z@4HA ENDP ; `std::basic_string<char,std::char_traits<char>,std::allocator<char> >::basic_string<char,std::char_traits<char>,std::allocator<char> >'::`1'::dtor$0
text$x	ENDS
; Function compile flags: /Odtp
;	COMDAT ??1?$_String_val@U?$_Simple_types@D@std@@@std@@QEAA@XZ
_TEXT	SEGMENT
this$ = 48
??1?$_String_val@U?$_Simple_types@D@std@@@std@@QEAA@XZ PROC ; std::_String_val<std::_Simple_types<char> >::~_String_val<std::_Simple_types<char> >, COMDAT
$LN3:
	mov	QWORD PTR [rsp+8], rcx
	sub	rsp, 40					; 00000028H
	mov	rax, QWORD PTR this$[rsp]
	mov	rcx, rax
	call	??1_Bxty@?$_String_val@U?$_Simple_types@D@std@@@std@@QEAA@XZ ; std::_String_val<std::_Simple_types<char> >::_Bxty::~_Bxty
	add	rsp, 40					; 00000028H
	ret	0
??1?$_String_val@U?$_Simple_types@D@std@@@std@@QEAA@XZ ENDP ; std::_String_val<std::_Simple_types<char> >::~_String_val<std::_Simple_types<char> >
_TEXT	ENDS
; Function compile flags: /Odtp
; File F:\software installation\Visual Studio Installation\VC\Tools\MSVC\14.38.33130\include\xstring
;	COMDAT ??1_Bxty@?$_String_val@U?$_Simple_types@D@std@@@std@@QEAA@XZ
_TEXT	SEGMENT
this$ = 8
??1_Bxty@?$_String_val@U?$_Simple_types@D@std@@@std@@QEAA@XZ PROC ; std::_String_val<std::_Simple_types<char> >::_Bxty::~_Bxty, COMDAT

; 2285 :         _CONSTEXPR20 ~_Bxty() noexcept {} // user-provided, for fancy pointers

	mov	QWORD PTR [rsp+8], rcx
	ret	0
??1_Bxty@?$_String_val@U?$_Simple_types@D@std@@@std@@QEAA@XZ ENDP ; std::_String_val<std::_Simple_types<char> >::_Bxty::~_Bxty
_TEXT	ENDS
; Function compile flags: /Odtp
; File F:\software installation\Visual Studio Installation\VC\Tools\MSVC\14.38.33130\include\xstring
;	COMDAT ??0_Bxty@?$_String_val@U?$_Simple_types@D@std@@@std@@QEAA@XZ
_TEXT	SEGMENT
this$ = 16
??0_Bxty@?$_String_val@U?$_Simple_types@D@std@@@std@@QEAA@XZ PROC ; std::_String_val<std::_Simple_types<char> >::_Bxty::_Bxty, COMDAT

; 2284 :         _CONSTEXPR20 _Bxty() noexcept : _Buf() {} // user-provided, for fancy pointers

$LN3:
	mov	QWORD PTR [rsp+8], rcx
	push	rdi
	mov	rax, QWORD PTR this$[rsp]
	mov	rdi, QWORD PTR this$[rsp]
	xor	eax, eax
	mov	ecx, 16
	rep stosb
	mov	rax, QWORD PTR this$[rsp]
	pop	rdi
	ret	0
??0_Bxty@?$_String_val@U?$_Simple_types@D@std@@@std@@QEAA@XZ ENDP ; std::_String_val<std::_Simple_types<char> >::_Bxty::_Bxty
_TEXT	ENDS
; Function compile flags: /Odtp
; File F:\software installation\Visual Studio Installation\VC\Tools\MSVC\14.38.33130\include\xstring
;	COMDAT ?_Activate_SSO_buffer@?$_String_val@U?$_Simple_types@D@std@@@std@@QEAAXXZ
_TEXT	SEGMENT
this$ = 8
?_Activate_SSO_buffer@?$_String_val@U?$_Simple_types@D@std@@@std@@QEAAXXZ PROC ; std::_String_val<std::_Simple_types<char> >::_Activate_SSO_buffer, COMDAT

; 2247 :     _CONSTEXPR20 void _Activate_SSO_buffer() noexcept {

	mov	QWORD PTR [rsp+8], rcx

; 2248 :         // start the lifetime of the array elements
; 2249 : #if _HAS_CXX20
; 2250 :         if (_STD is_constant_evaluated()) {
; 2251 :             for (size_type _Idx = 0; _Idx < _BUF_SIZE; ++_Idx) {
; 2252 :                 _Bx._Buf[_Idx] = value_type();
; 2253 :             }
; 2254 :         }
; 2255 : #endif // _HAS_CXX20
; 2256 :     }

	ret	0
?_Activate_SSO_buffer@?$_String_val@U?$_Simple_types@D@std@@@std@@QEAAXXZ ENDP ; std::_String_val<std::_Simple_types<char> >::_Activate_SSO_buffer
_TEXT	ENDS
; Function compile flags: /Odtp
; File F:\software installation\Visual Studio Installation\VC\Tools\MSVC\14.38.33130\include\xstring
;	COMDAT ?_Large_mode_engaged@?$_String_val@U?$_Simple_types@D@std@@@std@@QEBA_NXZ
_TEXT	SEGMENT
tv66 = 0
this$ = 32
?_Large_mode_engaged@?$_String_val@U?$_Simple_types@D@std@@@std@@QEBA_NXZ PROC ; std::_String_val<std::_Simple_types<char> >::_Large_mode_engaged, COMDAT

; 2243 :     _NODISCARD _CONSTEXPR20 bool _Large_mode_engaged() const noexcept {

$LN5:
	mov	QWORD PTR [rsp+8], rcx
	sub	rsp, 24

; 2244 :         return _Myres > _Small_string_capacity;

	mov	rax, QWORD PTR this$[rsp]
	cmp	QWORD PTR [rax+24], 15
	jbe	SHORT $LN3@Large_mode
	mov	DWORD PTR tv66[rsp], 1
	jmp	SHORT $LN4@Large_mode
$LN3@Large_mode:
	mov	DWORD PTR tv66[rsp], 0
$LN4@Large_mode:
	movzx	eax, BYTE PTR tv66[rsp]

; 2245 :     }

	add	rsp, 24
	ret	0
?_Large_mode_engaged@?$_String_val@U?$_Simple_types@D@std@@@std@@QEBA_NXZ ENDP ; std::_String_val<std::_Simple_types<char> >::_Large_mode_engaged
_TEXT	ENDS
; Function compile flags: /Odtp
; File F:\software installation\Visual Studio Installation\VC\Tools\MSVC\14.38.33130\include\xstring
;	COMDAT ?_Myptr@?$_String_val@U?$_Simple_types@D@std@@@std@@QEBAPEBDXZ
_TEXT	SEGMENT
_Result$ = 32
this$ = 64
?_Myptr@?$_String_val@U?$_Simple_types@D@std@@@std@@QEBAPEBDXZ PROC ; std::_String_val<std::_Simple_types<char> >::_Myptr, COMDAT

; 2234 :     _NODISCARD _CONSTEXPR20 const value_type* _Myptr() const noexcept {

$LN4:
	mov	QWORD PTR [rsp+8], rcx
	sub	rsp, 56					; 00000038H

; 2235 :         const value_type* _Result = _Bx._Buf;

	mov	rax, QWORD PTR this$[rsp]
	mov	QWORD PTR _Result$[rsp], rax

; 2236 :         if (_Large_mode_engaged()) {

	mov	rcx, QWORD PTR this$[rsp]
	call	?_Large_mode_engaged@?$_String_val@U?$_Simple_types@D@std@@@std@@QEBA_NXZ ; std::_String_val<std::_Simple_types<char> >::_Large_mode_engaged
	movzx	eax, al
	test	eax, eax
	je	SHORT $LN2@Myptr

; 2237 :             _Result = _Unfancy(_Bx._Ptr);

	mov	rax, QWORD PTR this$[rsp]
	mov	rcx, QWORD PTR [rax]
	call	??$_Unfancy@D@std@@YAPEADPEAD@Z		; std::_Unfancy<char>
	mov	QWORD PTR _Result$[rsp], rax
$LN2@Myptr:

; 2238 :         }
; 2239 : 
; 2240 :         return _Result;

	mov	rax, QWORD PTR _Result$[rsp]

; 2241 :     }

	add	rsp, 56					; 00000038H
	ret	0
?_Myptr@?$_String_val@U?$_Simple_types@D@std@@@std@@QEBAPEBDXZ ENDP ; std::_String_val<std::_Simple_types<char> >::_Myptr
_TEXT	ENDS
; Function compile flags: /Odtp
; File F:\software installation\Visual Studio Installation\VC\Tools\MSVC\14.38.33130\include\xstring
;	COMDAT ?_Myptr@?$_String_val@U?$_Simple_types@D@std@@@std@@QEAAPEADXZ
_TEXT	SEGMENT
_Result$ = 32
this$ = 64
?_Myptr@?$_String_val@U?$_Simple_types@D@std@@@std@@QEAAPEADXZ PROC ; std::_String_val<std::_Simple_types<char> >::_Myptr, COMDAT

; 2225 :     _NODISCARD _CONSTEXPR20 value_type* _Myptr() noexcept {

$LN4:
	mov	QWORD PTR [rsp+8], rcx
	sub	rsp, 56					; 00000038H

; 2226 :         value_type* _Result = _Bx._Buf;

	mov	rax, QWORD PTR this$[rsp]
	mov	QWORD PTR _Result$[rsp], rax

; 2227 :         if (_Large_mode_engaged()) {

	mov	rcx, QWORD PTR this$[rsp]
	call	?_Large_mode_engaged@?$_String_val@U?$_Simple_types@D@std@@@std@@QEBA_NXZ ; std::_String_val<std::_Simple_types<char> >::_Large_mode_engaged
	movzx	eax, al
	test	eax, eax
	je	SHORT $LN2@Myptr

; 2228 :             _Result = _Unfancy(_Bx._Ptr);

	mov	rax, QWORD PTR this$[rsp]
	mov	rcx, QWORD PTR [rax]
	call	??$_Unfancy@D@std@@YAPEADPEAD@Z		; std::_Unfancy<char>
	mov	QWORD PTR _Result$[rsp], rax
$LN2@Myptr:

; 2229 :         }
; 2230 : 
; 2231 :         return _Result;

	mov	rax, QWORD PTR _Result$[rsp]

; 2232 :     }

	add	rsp, 56					; 00000038H
	ret	0
?_Myptr@?$_String_val@U?$_Simple_types@D@std@@@std@@QEAAPEADXZ ENDP ; std::_String_val<std::_Simple_types<char> >::_Myptr
_TEXT	ENDS
; Function compile flags: /Odtp
; File F:\software installation\Visual Studio Installation\VC\Tools\MSVC\14.38.33130\include\xstring
;	COMDAT ??0?$_String_val@U?$_Simple_types@D@std@@@std@@QEAA@XZ
_TEXT	SEGMENT
this$ = 48
??0?$_String_val@U?$_Simple_types@D@std@@@std@@QEAA@XZ PROC ; std::_String_val<std::_Simple_types<char> >::_String_val<std::_Simple_types<char> >, COMDAT

; 2212 :     _CONSTEXPR20 _String_val() noexcept : _Bx() {}

$LN3:
	mov	QWORD PTR [rsp+8], rcx
	sub	rsp, 40					; 00000028H
	mov	rax, QWORD PTR this$[rsp]
	mov	rcx, rax
	call	??0_Bxty@?$_String_val@U?$_Simple_types@D@std@@@std@@QEAA@XZ ; std::_String_val<std::_Simple_types<char> >::_Bxty::_Bxty

; 2213 : 
; 2214 :     // length of internal buffer, [1, 16] (NB: used by the debugger visualizer)
; 2215 :     static constexpr size_type _BUF_SIZE = 16 / sizeof(value_type) < 1 ? 1 : 16 / sizeof(value_type);
; 2216 :     // roundup mask for allocated buffers, [0, 15]
; 2217 :     static constexpr size_type _Alloc_mask = sizeof(value_type) <= 1 ? 15
; 2218 :                                            : sizeof(value_type) <= 2 ? 7
; 2219 :                                            : sizeof(value_type) <= 4 ? 3
; 2220 :                                            : sizeof(value_type) <= 8 ? 1
; 2221 :                                                                      : 0;
; 2222 :     // capacity in small mode
; 2223 :     static constexpr size_type _Small_string_capacity = _BUF_SIZE - 1;
; 2224 : 
; 2225 :     _NODISCARD _CONSTEXPR20 value_type* _Myptr() noexcept {
; 2226 :         value_type* _Result = _Bx._Buf;
; 2227 :         if (_Large_mode_engaged()) {
; 2228 :             _Result = _Unfancy(_Bx._Ptr);
; 2229 :         }
; 2230 : 
; 2231 :         return _Result;
; 2232 :     }
; 2233 : 
; 2234 :     _NODISCARD _CONSTEXPR20 const value_type* _Myptr() const noexcept {
; 2235 :         const value_type* _Result = _Bx._Buf;
; 2236 :         if (_Large_mode_engaged()) {
; 2237 :             _Result = _Unfancy(_Bx._Ptr);
; 2238 :         }
; 2239 : 
; 2240 :         return _Result;
; 2241 :     }
; 2242 : 
; 2243 :     _NODISCARD _CONSTEXPR20 bool _Large_mode_engaged() const noexcept {
; 2244 :         return _Myres > _Small_string_capacity;
; 2245 :     }
; 2246 : 
; 2247 :     _CONSTEXPR20 void _Activate_SSO_buffer() noexcept {
; 2248 :         // start the lifetime of the array elements
; 2249 : #if _HAS_CXX20
; 2250 :         if (_STD is_constant_evaluated()) {
; 2251 :             for (size_type _Idx = 0; _Idx < _BUF_SIZE; ++_Idx) {
; 2252 :                 _Bx._Buf[_Idx] = value_type();
; 2253 :             }
; 2254 :         }
; 2255 : #endif // _HAS_CXX20
; 2256 :     }
; 2257 : 
; 2258 :     _CONSTEXPR20 void _Check_offset(const size_type _Off) const {
; 2259 :         // checks whether _Off is in the bounds of [0, size()]
; 2260 :         if (_Mysize < _Off) {
; 2261 :             _Xran();
; 2262 :         }
; 2263 :     }
; 2264 : 
; 2265 :     _CONSTEXPR20 void _Check_offset_exclusive(const size_type _Off) const {
; 2266 :         // checks whether _Off is in the bounds of [0, size())
; 2267 :         if (_Mysize <= _Off) {
; 2268 :             _Xran();
; 2269 :         }
; 2270 :     }
; 2271 : 
; 2272 :     [[noreturn]] static void _Xran() {
; 2273 :         _Xout_of_range("invalid string position");
; 2274 :     }
; 2275 : 
; 2276 :     _NODISCARD _CONSTEXPR20 size_type _Clamp_suffix_size(const size_type _Off, const size_type _Size) const noexcept {
; 2277 :         // trims _Size to the longest it can be assuming a string at/after _Off
; 2278 :         return (_STD min)(_Size, _Mysize - _Off);
; 2279 :     }
; 2280 : 
; 2281 :     union _Bxty { // storage for small buffer or pointer to larger one
; 2282 :         // This constructor previously initialized _Ptr. Don't rely on the new behavior without
; 2283 :         // renaming `_String_val` (and fixing the visualizer).
; 2284 :         _CONSTEXPR20 _Bxty() noexcept : _Buf() {} // user-provided, for fancy pointers
; 2285 :         _CONSTEXPR20 ~_Bxty() noexcept {} // user-provided, for fancy pointers
; 2286 : 
; 2287 :         value_type _Buf[_BUF_SIZE];
; 2288 :         pointer _Ptr;
; 2289 :         char _Alias[_BUF_SIZE]; // TRANSITION, ABI: _Alias is preserved for binary compatibility (especially /clr)
; 2290 :     };
; 2291 :     _Bxty _Bx;
; 2292 : 
; 2293 :     // invariant: _Myres >= _Mysize, and _Myres >= _Small_string_capacity (after string's construction)
; 2294 :     // neither _Mysize nor _Myres takes account of the extra null terminator
; 2295 :     size_type _Mysize = 0; // current length of string (size)

	mov	rax, QWORD PTR this$[rsp]
	mov	QWORD PTR [rax+16], 0

; 2296 :     size_type _Myres  = 0; // current storage reserved for string (capacity)

	mov	rax, QWORD PTR this$[rsp]
	mov	QWORD PTR [rax+24], 0

; 2212 :     _CONSTEXPR20 _String_val() noexcept : _Bx() {}

	mov	rax, QWORD PTR this$[rsp]
	add	rsp, 40					; 00000028H
	ret	0
??0?$_String_val@U?$_Simple_types@D@std@@@std@@QEAA@XZ ENDP ; std::_String_val<std::_Simple_types<char> >::_String_val<std::_Simple_types<char> >
_TEXT	ENDS
; Function compile flags: /Odtp
; File F:\software installation\Visual Studio Installation\VC\Tools\MSVC\14.38.33130\include\xmemory
;	COMDAT ?select_on_container_copy_construction@?$_Default_allocator_traits@V?$allocator@D@std@@@std@@SA?AV?$allocator@D@2@AEBV32@@Z
_TEXT	SEGMENT
__$ReturnUdt$ = 8
_Al$ = 16
?select_on_container_copy_construction@?$_Default_allocator_traits@V?$allocator@D@std@@@std@@SA?AV?$allocator@D@2@AEBV32@@Z PROC ; std::_Default_allocator_traits<std::allocator<char> >::select_on_container_copy_construction, COMDAT

; 740  :     _NODISCARD static _CONSTEXPR20 _Alloc select_on_container_copy_construction(const _Alloc& _Al) {

	mov	QWORD PTR [rsp+16], rdx
	mov	QWORD PTR [rsp+8], rcx

; 741  :         return _Al;

	mov	rax, QWORD PTR __$ReturnUdt$[rsp]

; 742  :     }

	ret	0
?select_on_container_copy_construction@?$_Default_allocator_traits@V?$allocator@D@std@@@std@@SA?AV?$allocator@D@2@AEBV32@@Z ENDP ; std::_Default_allocator_traits<std::allocator<char> >::select_on_container_copy_construction
_TEXT	ENDS
; Function compile flags: /Odtp
; File F:\software installation\Visual Studio Installation\VC\Tools\MSVC\14.38.33130\include\xmemory
;	COMDAT ?max_size@?$_Default_allocator_traits@V?$allocator@D@std@@@std@@SA_KAEBV?$allocator@D@2@@Z
_TEXT	SEGMENT
__formal$ = 8
?max_size@?$_Default_allocator_traits@V?$allocator@D@std@@@std@@SA_KAEBV?$allocator@D@2@@Z PROC ; std::_Default_allocator_traits<std::allocator<char> >::max_size, COMDAT

; 736  :     _NODISCARD static _CONSTEXPR20 size_type max_size(const _Alloc&) noexcept {

	mov	QWORD PTR [rsp+8], rcx

; 737  :         return static_cast<size_t>(-1) / sizeof(value_type);

	mov	rax, -1

; 738  :     }

	ret	0
?max_size@?$_Default_allocator_traits@V?$allocator@D@std@@@std@@SA_KAEBV?$allocator@D@2@@Z ENDP ; std::_Default_allocator_traits<std::allocator<char> >::max_size
_TEXT	ENDS
; Function compile flags: /Odtp
; File F:\software installation\Visual Studio Installation\VC\Tools\MSVC\14.38.33130\include\xmemory
;	COMDAT ?allocate@?$allocator@D@std@@QEAAPEAD_K@Z
_TEXT	SEGMENT
this$ = 48
_Count$ = 56
?allocate@?$allocator@D@std@@QEAAPEAD_K@Z PROC		; std::allocator<char>::allocate, COMDAT

; 976  :     _NODISCARD_RAW_PTR_ALLOC _CONSTEXPR20 __declspec(allocator) _Ty* allocate(_CRT_GUARDOVERFLOW const size_t _Count) {

$LN3:
	mov	QWORD PTR [rsp+16], rdx
	mov	QWORD PTR [rsp+8], rcx
	sub	rsp, 40					; 00000028H

; 977  :         static_assert(sizeof(value_type) > 0, "value_type must be complete before calling allocate.");
; 978  :         return static_cast<_Ty*>(_Allocate<_New_alignof<_Ty>>(_Get_size_of_n<sizeof(_Ty)>(_Count)));

	mov	rcx, QWORD PTR _Count$[rsp]
	call	??$_Get_size_of_n@$00@std@@YA_K_K@Z	; std::_Get_size_of_n<1>
	mov	rcx, rax
	call	??$_Allocate@$0BA@U_Default_allocate_traits@std@@$0A@@std@@YAPEAX_K@Z ; std::_Allocate<16,std::_Default_allocate_traits,0>

; 979  :     }

	add	rsp, 40					; 00000028H
	ret	0
?allocate@?$allocator@D@std@@QEAAPEAD_K@Z ENDP		; std::allocator<char>::allocate
_TEXT	ENDS
; Function compile flags: /Odtp
; File F:\software installation\Visual Studio Installation\VC\Tools\MSVC\14.38.33130\include\xmemory
;	COMDAT ?deallocate@?$allocator@D@std@@QEAAXQEAD_K@Z
_TEXT	SEGMENT
this$ = 48
_Ptr$ = 56
_Count$ = 64
?deallocate@?$allocator@D@std@@QEAAXQEAD_K@Z PROC	; std::allocator<char>::deallocate, COMDAT

; 970  :     _CONSTEXPR20 void deallocate(_Ty* const _Ptr, const size_t _Count) {

$LN3:
	mov	QWORD PTR [rsp+24], r8
	mov	QWORD PTR [rsp+16], rdx
	mov	QWORD PTR [rsp+8], rcx
	sub	rsp, 40					; 00000028H

; 971  :         _STL_ASSERT(_Ptr != nullptr || _Count == 0, "null pointer cannot point to a block of non-zero size");
; 972  :         // no overflow check on the following multiply; we assume _Allocate did that check
; 973  :         _Deallocate<_New_alignof<_Ty>>(_Ptr, sizeof(_Ty) * _Count);

	mov	rdx, QWORD PTR _Count$[rsp]
	mov	rcx, QWORD PTR _Ptr$[rsp]
	call	??$_Deallocate@$0BA@$0A@@std@@YAXPEAX_K@Z ; std::_Deallocate<16,0>

; 974  :     }

	add	rsp, 40					; 00000028H
	ret	0
?deallocate@?$allocator@D@std@@QEAAXQEAD_K@Z ENDP	; std::allocator<char>::deallocate
_TEXT	ENDS
; Function compile flags: /Odtp
; File F:\software installation\Visual Studio Installation\VC\Tools\MSVC\14.38.33130\include\xmemory
;	COMDAT ??0?$allocator@D@std@@QEAA@XZ
_TEXT	SEGMENT
this$ = 8
??0?$allocator@D@std@@QEAA@XZ PROC			; std::allocator<char>::allocator<char>, COMDAT

; 962  :     constexpr allocator() noexcept {}

	mov	QWORD PTR [rsp+8], rcx
	mov	rax, QWORD PTR this$[rsp]
	ret	0
??0?$allocator@D@std@@QEAA@XZ ENDP			; std::allocator<char>::allocator<char>
_TEXT	ENDS
; Function compile flags: /Odtp
; File F:\software installation\Visual Studio Installation\VC\Tools\MSVC\14.38.33130\include\xstring
;	COMDAT ?_Xlen_string@std@@YAXXZ
_TEXT	SEGMENT
?_Xlen_string@std@@YAXXZ PROC				; std::_Xlen_string, COMDAT

; 2313 : [[noreturn]] inline void _Xlen_string() {

$LN3:
	sub	rsp, 40					; 00000028H

; 2314 :     _Xlength_error("string too long");

	lea	rcx, OFFSET FLAT:??_C@_0BA@JFNIOLAK@string?5too?5long@
	call	?_Xlength_error@std@@YAXPEBD@Z		; std::_Xlength_error
$LN2@Xlen_strin:

; 2315 : }

	add	rsp, 40					; 00000028H
	ret	0
?_Xlen_string@std@@YAXXZ ENDP				; std::_Xlen_string
_TEXT	ENDS
; Function compile flags: /Odtp
; File F:\software installation\Visual Studio Installation\VC\Tools\MSVC\14.38.33130\include\xstring
;	COMDAT ?eof@?$_Narrow_char_traits@DH@std@@SAHXZ
_TEXT	SEGMENT
?eof@?$_Narrow_char_traits@DH@std@@SAHXZ PROC		; std::_Narrow_char_traits<char,int>::eof, COMDAT

; 472  :         return static_cast<int_type>(EOF);

	mov	eax, -1

; 473  :     }

	ret	0
?eof@?$_Narrow_char_traits@DH@std@@SAHXZ ENDP		; std::_Narrow_char_traits<char,int>::eof
_TEXT	ENDS
; Function compile flags: /Odtp
; File F:\software installation\Visual Studio Installation\VC\Tools\MSVC\14.38.33130\include\xstring
;	COMDAT ?eq_int_type@?$_Narrow_char_traits@DH@std@@SA_NHH@Z
_TEXT	SEGMENT
tv65 = 0
_Left$ = 32
_Right$ = 40
?eq_int_type@?$_Narrow_char_traits@DH@std@@SA_NHH@Z PROC ; std::_Narrow_char_traits<char,int>::eq_int_type, COMDAT

; 463  :     _NODISCARD static constexpr bool eq_int_type(const int_type _Left, const int_type _Right) noexcept {

$LN5:
	mov	DWORD PTR [rsp+16], edx
	mov	DWORD PTR [rsp+8], ecx
	sub	rsp, 24

; 464  :         return _Left == _Right;

	mov	eax, DWORD PTR _Right$[rsp]
	cmp	DWORD PTR _Left$[rsp], eax
	jne	SHORT $LN3@eq_int_typ
	mov	DWORD PTR tv65[rsp], 1
	jmp	SHORT $LN4@eq_int_typ
$LN3@eq_int_typ:
	mov	DWORD PTR tv65[rsp], 0
$LN4@eq_int_typ:
	movzx	eax, BYTE PTR tv65[rsp]

; 465  :     }

	add	rsp, 24
	ret	0
?eq_int_type@?$_Narrow_char_traits@DH@std@@SA_NHH@Z ENDP ; std::_Narrow_char_traits<char,int>::eq_int_type
_TEXT	ENDS
; Function compile flags: /Odtp
; File F:\software installation\Visual Studio Installation\VC\Tools\MSVC\14.38.33130\include\xstring
;	COMDAT ?to_int_type@?$_Narrow_char_traits@DH@std@@SAHD@Z
_TEXT	SEGMENT
_Ch$ = 8
?to_int_type@?$_Narrow_char_traits@DH@std@@SAHD@Z PROC	; std::_Narrow_char_traits<char,int>::to_int_type, COMDAT

; 459  :     _NODISCARD static constexpr int_type to_int_type(const _Elem _Ch) noexcept {

	mov	BYTE PTR [rsp+8], cl

; 460  :         return static_cast<unsigned char>(_Ch);

	movzx	eax, BYTE PTR _Ch$[rsp]

; 461  :     }

	ret	0
?to_int_type@?$_Narrow_char_traits@DH@std@@SAHD@Z ENDP	; std::_Narrow_char_traits<char,int>::to_int_type
_TEXT	ENDS
; Function compile flags: /Odtp
; File F:\software installation\Visual Studio Installation\VC\Tools\MSVC\14.38.33130\include\xstring
;	COMDAT ?assign@?$_Narrow_char_traits@DH@std@@SAXAEADAEBD@Z
_TEXT	SEGMENT
_Left$ = 8
_Right$ = 16
?assign@?$_Narrow_char_traits@DH@std@@SAXAEADAEBD@Z PROC ; std::_Narrow_char_traits<char,int>::assign, COMDAT

; 438  :     static _CONSTEXPR17 void assign(_Elem& _Left, const _Elem& _Right) noexcept {

	mov	QWORD PTR [rsp+16], rdx
	mov	QWORD PTR [rsp+8], rcx

; 439  : #if _HAS_CXX20
; 440  :         if (_STD is_constant_evaluated()) {
; 441  :             return _Primary_char_traits::assign(_Left, _Right);
; 442  :         }
; 443  : #endif // _HAS_CXX20
; 444  :         _Left = _Right;

	mov	rax, QWORD PTR _Left$[rsp]
	mov	rcx, QWORD PTR _Right$[rsp]
	movzx	ecx, BYTE PTR [rcx]
	mov	BYTE PTR [rax], cl

; 445  :     }

	ret	0
?assign@?$_Narrow_char_traits@DH@std@@SAXAEADAEBD@Z ENDP ; std::_Narrow_char_traits<char,int>::assign
_TEXT	ENDS
; Function compile flags: /Odtp
; File F:\software installation\Visual Studio Installation\VC\Tools\MSVC\14.38.33130\include\xstring
;	COMDAT ?length@?$_Narrow_char_traits@DH@std@@SA_KQEBD@Z
_TEXT	SEGMENT
_First$ = 48
?length@?$_Narrow_char_traits@DH@std@@SA_KQEBD@Z PROC	; std::_Narrow_char_traits<char,int>::length, COMDAT

; 385  :     _NODISCARD static _CONSTEXPR17 size_t length(_In_z_ const _Elem* const _First) noexcept /* strengthened */ {

$LN3:
	mov	QWORD PTR [rsp+8], rcx
	sub	rsp, 40					; 00000028H

; 386  :         // find length of null-terminated string
; 387  : #if _HAS_CXX17
; 388  : #ifdef __cpp_char8_t
; 389  :         if constexpr (is_same_v<_Elem, char8_t>) {
; 390  : #if _HAS_U8_INTRINSICS
; 391  :             return __builtin_u8strlen(_First);
; 392  : #else // ^^^ use u8 intrinsics / no u8 intrinsics vvv
; 393  :             return _Primary_char_traits::length(_First);
; 394  : #endif // ^^^ no u8 intrinsics ^^^
; 395  :         } else
; 396  : #endif // defined(__cpp_char8_t)
; 397  :         {
; 398  :             return __builtin_strlen(_First);
; 399  :         }
; 400  : #else // ^^^ _HAS_CXX17 / !_HAS_CXX17 vvv
; 401  :         return _CSTD strlen(reinterpret_cast<const char*>(_First));

	mov	rcx, QWORD PTR _First$[rsp]
	call	strlen

; 402  : #endif // ^^^ !_HAS_CXX17 ^^^
; 403  :     }

	add	rsp, 40					; 00000028H
	ret	0
?length@?$_Narrow_char_traits@DH@std@@SA_KQEBD@Z ENDP	; std::_Narrow_char_traits<char,int>::length
_TEXT	ENDS
; Function compile flags: /Odtp
; File F:\software installation\Visual Studio Installation\VC\Tools\MSVC\14.38.33130\include\xstring
;	COMDAT ?move@?$_Char_traits@DH@std@@SAPEADQEADQEBD_K@Z
_TEXT	SEGMENT
_First1$ = 48
_First2$ = 56
_Count$ = 64
?move@?$_Char_traits@DH@std@@SAPEADQEADQEBD_K@Z PROC	; std::_Char_traits<char,int>::move, COMDAT

; 79   :         _In_reads_(_Count) const _Elem* const _First2, const size_t _Count) noexcept /* strengthened */ {

$LN3:
	mov	QWORD PTR [rsp+24], r8
	mov	QWORD PTR [rsp+16], rdx
	mov	QWORD PTR [rsp+8], rcx
	sub	rsp, 40					; 00000028H

; 80   :         // copy [_First2, _First2 + _Count) to [_First1, ...), allowing overlap
; 81   : #if _HAS_MEMCPY_MEMMOVE_INTRINSICS
; 82   :         __builtin_memmove(_First1, _First2, _Count * sizeof(_Elem));
; 83   : #else // ^^^ _HAS_MEMCPY_MEMMOVE_INTRINSICS / !_HAS_MEMCPY_MEMMOVE_INTRINSICS vvv
; 84   : #if _HAS_CXX20
; 85   :         if (_STD is_constant_evaluated()) {
; 86   :             // dest: [_First1, _First1 + _Count)
; 87   :             // src: [_First2, _First2 + _Count)
; 88   :             // We need to handle overlapping ranges.
; 89   :             // If _First1 is in the src range, we need a backward loop.
; 90   :             // Otherwise, the forward loop works (even if the back of dest overlaps the front of src).
; 91   : 
; 92   :             // Usually, we would compare pointers with less-than, even though they could belong to different arrays.
; 93   :             // However, we're not allowed to do that during constant evaluation, so we need a linear scan for equality.
; 94   :             bool _Loop_forward = true;
; 95   : 
; 96   :             for (const _Elem* _Src = _First2; _Src != _First2 + _Count; ++_Src) {
; 97   :                 if (_First1 == _Src) {
; 98   :                     _Loop_forward = false;
; 99   :                     break;
; 100  :                 }
; 101  :             }
; 102  : 
; 103  :             if (_Loop_forward) {
; 104  :                 for (size_t _Idx = 0; _Idx != _Count; ++_Idx) {
; 105  :                     _First1[_Idx] = _First2[_Idx];
; 106  :                 }
; 107  :             } else {
; 108  :                 for (size_t _Idx = _Count; _Idx != 0; --_Idx) {
; 109  :                     _First1[_Idx - 1] = _First2[_Idx - 1];
; 110  :                 }
; 111  :             }
; 112  : 
; 113  :             return _First1;
; 114  :         }
; 115  : #endif // _HAS_CXX20
; 116  : 
; 117  :         _CSTD memmove(_First1, _First2, _Count * sizeof(_Elem));

	mov	r8, QWORD PTR _Count$[rsp]
	mov	rdx, QWORD PTR _First2$[rsp]
	mov	rcx, QWORD PTR _First1$[rsp]
	call	memmove

; 118  : #endif // ^^^ !_HAS_MEMCPY_MEMMOVE_INTRINSICS ^^^
; 119  : 
; 120  :         return _First1;

	mov	rax, QWORD PTR _First1$[rsp]

; 121  :     }

	add	rsp, 40					; 00000028H
	ret	0
?move@?$_Char_traits@DH@std@@SAPEADQEADQEBD_K@Z ENDP	; std::_Char_traits<char,int>::move
_TEXT	ENDS
; Function compile flags: /Odtp
; File F:\software installation\Visual Studio Installation\VC\Tools\MSVC\14.38.33130\include\xstring
;	COMDAT ?copy@?$_Char_traits@DH@std@@SAPEADQEADQEBD_K@Z
_TEXT	SEGMENT
_First1$ = 48
_First2$ = 56
_Count$ = 64
?copy@?$_Char_traits@DH@std@@SAPEADQEADQEBD_K@Z PROC	; std::_Char_traits<char,int>::copy, COMDAT

; 48   :         _In_reads_(_Count) const _Elem* const _First2, const size_t _Count) noexcept /* strengthened */ {

$LN3:
	mov	QWORD PTR [rsp+24], r8
	mov	QWORD PTR [rsp+16], rdx
	mov	QWORD PTR [rsp+8], rcx
	sub	rsp, 40					; 00000028H

; 49   :         // copy [_First2, _First2 + _Count) to [_First1, ...)
; 50   : #if _HAS_MEMCPY_MEMMOVE_INTRINSICS
; 51   :         __builtin_memcpy(_First1, _First2, _Count * sizeof(_Elem));
; 52   : #else // ^^^ _HAS_MEMCPY_MEMMOVE_INTRINSICS / !_HAS_MEMCPY_MEMMOVE_INTRINSICS vvv
; 53   : #if _HAS_CXX20
; 54   :         if (_STD is_constant_evaluated()) {
; 55   :             // pre: [_First1, _First1 + _Count) and [_First2, _First2 + _Count) do not overlap
; 56   :             for (size_t _Idx = 0; _Idx != _Count; ++_Idx) {
; 57   :                 _First1[_Idx] = _First2[_Idx];
; 58   :             }
; 59   : 
; 60   :             return _First1;
; 61   :         }
; 62   : #endif // _HAS_CXX20
; 63   : 
; 64   :         _CSTD memcpy(_First1, _First2, _Count * sizeof(_Elem));

	mov	r8, QWORD PTR _Count$[rsp]
	mov	rdx, QWORD PTR _First2$[rsp]
	mov	rcx, QWORD PTR _First1$[rsp]
	call	memcpy

; 65   : #endif // ^^^ !_HAS_MEMCPY_MEMMOVE_INTRINSICS ^^^
; 66   : 
; 67   :         return _First1;

	mov	rax, QWORD PTR _First1$[rsp]

; 68   :     }

	add	rsp, 40					; 00000028H
	ret	0
?copy@?$_Char_traits@DH@std@@SAPEADQEADQEBD_K@Z ENDP	; std::_Char_traits<char,int>::copy
_TEXT	ENDS
; Function compile flags: /Odtp
; File F:\software installation\Visual Studio Installation\VC\Tools\MSVC\14.38.33130\include\xmemory
;	COMDAT ?_Release@_Fake_proxy_ptr_impl@std@@QEAAXXZ
_TEXT	SEGMENT
this$ = 8
?_Release@_Fake_proxy_ptr_impl@std@@QEAAXXZ PROC	; std::_Fake_proxy_ptr_impl::_Release, COMDAT

; 1441 :     _CONSTEXPR20 void _Release() noexcept {}

	mov	QWORD PTR [rsp+8], rcx
	ret	0
?_Release@_Fake_proxy_ptr_impl@std@@QEAAXXZ ENDP	; std::_Fake_proxy_ptr_impl::_Release
_TEXT	ENDS
; Function compile flags: /Odtp
; File F:\software installation\Visual Studio Installation\VC\Tools\MSVC\14.38.33130\include\xmemory
;	COMDAT ??0_Fake_proxy_ptr_impl@std@@QEAA@AEBU_Fake_allocator@1@AEBU_Container_base0@1@@Z
_TEXT	SEGMENT
this$ = 8
__formal$ = 16
__formal$ = 24
??0_Fake_proxy_ptr_impl@std@@QEAA@AEBU_Fake_allocator@1@AEBU_Container_base0@1@@Z PROC ; std::_Fake_proxy_ptr_impl::_Fake_proxy_ptr_impl, COMDAT

; 1438 :     _CONSTEXPR20 _Fake_proxy_ptr_impl(const _Fake_allocator&, const _Container_base0&) noexcept {}

	mov	QWORD PTR [rsp+24], r8
	mov	QWORD PTR [rsp+16], rdx
	mov	QWORD PTR [rsp+8], rcx
	mov	rax, QWORD PTR this$[rsp]
	ret	0
??0_Fake_proxy_ptr_impl@std@@QEAA@AEBU_Fake_allocator@1@AEBU_Container_base0@1@@Z ENDP ; std::_Fake_proxy_ptr_impl::_Fake_proxy_ptr_impl
_TEXT	ENDS
; Function compile flags: /Odtp
; File F:\software installation\Visual Studio Installation\VC\Tools\MSVC\14.38.33130\include\xmemory
;	COMDAT ?_Alloc_proxy@_Container_base0@std@@QEAAXAEBU_Fake_allocator@2@@Z
_TEXT	SEGMENT
this$ = 8
__formal$ = 16
?_Alloc_proxy@_Container_base0@std@@QEAAXAEBU_Fake_allocator@2@@Z PROC ; std::_Container_base0::_Alloc_proxy, COMDAT

; 1174 :     _CONSTEXPR20 void _Alloc_proxy(const _Fake_allocator&) noexcept {}

	mov	QWORD PTR [rsp+16], rdx
	mov	QWORD PTR [rsp+8], rcx
	ret	0
?_Alloc_proxy@_Container_base0@std@@QEAAXAEBU_Fake_allocator@2@@Z ENDP ; std::_Container_base0::_Alloc_proxy
_TEXT	ENDS
; Function compile flags: /Odtp
; File F:\software installation\Visual Studio Installation\VC\Tools\MSVC\14.38.33130\include\xmemory
;	COMDAT ?_Swap_proxy_and_iterators@_Container_base0@std@@QEAAXAEAU12@@Z
_TEXT	SEGMENT
this$ = 8
__formal$ = 16
?_Swap_proxy_and_iterators@_Container_base0@std@@QEAAXAEAU12@@Z PROC ; std::_Container_base0::_Swap_proxy_and_iterators, COMDAT

; 1173 :     _CONSTEXPR20 void _Swap_proxy_and_iterators(_Container_base0&) noexcept {}

	mov	QWORD PTR [rsp+16], rdx
	mov	QWORD PTR [rsp+8], rcx
	ret	0
?_Swap_proxy_and_iterators@_Container_base0@std@@QEAAXAEAU12@@Z ENDP ; std::_Container_base0::_Swap_proxy_and_iterators
_TEXT	ENDS
; Function compile flags: /Odtp
; File F:\software installation\Visual Studio Installation\VC\Tools\MSVC\14.38.33130\include\xmemory
;	COMDAT ?_Orphan_all@_Container_base0@std@@QEAAXXZ
_TEXT	SEGMENT
this$ = 8
?_Orphan_all@_Container_base0@std@@QEAAXXZ PROC		; std::_Container_base0::_Orphan_all, COMDAT

; 1172 :     _CONSTEXPR20 void _Orphan_all() noexcept {}

	mov	QWORD PTR [rsp+8], rcx
	ret	0
?_Orphan_all@_Container_base0@std@@QEAAXXZ ENDP		; std::_Container_base0::_Orphan_all
_TEXT	ENDS
; Function compile flags: /Odtp
; File F:\software installation\Visual Studio Installation\VC\Tools\MSVC\14.38.33130\include\xmemory
;	COMDAT ?_Adjust_manually_vector_aligned@std@@YAXAEAPEAXAEA_K@Z
_TEXT	SEGMENT
_Back_shift$ = 32
_Ptr_container$ = 40
_Ptr_user$ = 48
_Min_back_shift$ = 56
_Ptr$ = 80
_Bytes$ = 88
?_Adjust_manually_vector_aligned@std@@YAXAEAPEAXAEA_K@Z PROC ; std::_Adjust_manually_vector_aligned, COMDAT

; 154  : inline void _Adjust_manually_vector_aligned(void*& _Ptr, size_t& _Bytes) {

$LN11:
	mov	QWORD PTR [rsp+16], rdx
	mov	QWORD PTR [rsp+8], rcx
	sub	rsp, 72					; 00000048H

; 155  :     // adjust parameters from _Allocate_manually_vector_aligned to pass to operator delete
; 156  :     _Bytes += _Non_user_size;

	mov	rax, QWORD PTR _Bytes$[rsp]
	mov	rax, QWORD PTR [rax]
	add	rax, 39					; 00000027H
	mov	rcx, QWORD PTR _Bytes$[rsp]
	mov	QWORD PTR [rcx], rax

; 157  : 
; 158  :     const uintptr_t* const _Ptr_user = static_cast<uintptr_t*>(_Ptr);

	mov	rax, QWORD PTR _Ptr$[rsp]
	mov	rax, QWORD PTR [rax]
	mov	QWORD PTR _Ptr_user$[rsp], rax

; 159  :     const uintptr_t _Ptr_container   = _Ptr_user[-1];

	mov	eax, 8
	imul	rax, rax, -1
	mov	rcx, QWORD PTR _Ptr_user$[rsp]
	mov	rax, QWORD PTR [rcx+rax]
	mov	QWORD PTR _Ptr_container$[rsp], rax

; 160  : 
; 161  :     // If the following asserts, it likely means that we are performing
; 162  :     // an aligned delete on memory coming from an unaligned allocation.
; 163  :     _STL_ASSERT(_Ptr_user[-2] == _Big_allocation_sentinel, "invalid argument");
; 164  : 
; 165  :     // Extra paranoia on aligned allocation/deallocation; ensure _Ptr_container is
; 166  :     // in range [_Min_back_shift, _Non_user_size]
; 167  : #ifdef _DEBUG
; 168  :     constexpr uintptr_t _Min_back_shift = 2 * sizeof(void*);
; 169  : #else // ^^^ defined(_DEBUG) / !defined(_DEBUG) vvv
; 170  :     constexpr uintptr_t _Min_back_shift = sizeof(void*);

	mov	QWORD PTR _Min_back_shift$[rsp], 8

; 171  : #endif // ^^^ !defined(_DEBUG) ^^^
; 172  :     const uintptr_t _Back_shift = reinterpret_cast<uintptr_t>(_Ptr) - _Ptr_container;

	mov	rax, QWORD PTR _Ptr$[rsp]
	mov	rcx, QWORD PTR _Ptr_container$[rsp]
	mov	rax, QWORD PTR [rax]
	sub	rax, rcx
	mov	QWORD PTR _Back_shift$[rsp], rax
$LN4@Adjust_man:

; 173  :     _STL_VERIFY(_Back_shift >= _Min_back_shift && _Back_shift <= _Non_user_size, "invalid argument");

	cmp	QWORD PTR _Back_shift$[rsp], 8
	jb	SHORT $LN8@Adjust_man
	cmp	QWORD PTR _Back_shift$[rsp], 39		; 00000027H
	ja	SHORT $LN8@Adjust_man
	jmp	SHORT $LN9@Adjust_man
$LN8@Adjust_man:
$LN7@Adjust_man:
	call	_invalid_parameter_noinfo_noreturn
	xor	eax, eax
	test	eax, eax
	jne	SHORT $LN7@Adjust_man
$LN9@Adjust_man:
	xor	eax, eax
	test	eax, eax
	jne	SHORT $LN4@Adjust_man

; 174  :     _Ptr = reinterpret_cast<void*>(_Ptr_container);

	mov	rax, QWORD PTR _Ptr$[rsp]
	mov	rcx, QWORD PTR _Ptr_container$[rsp]
	mov	QWORD PTR [rax], rcx
$LN10@Adjust_man:

; 175  : }

	add	rsp, 72					; 00000048H
	ret	0
?_Adjust_manually_vector_aligned@std@@YAXAEAPEAXAEA_K@Z ENDP ; std::_Adjust_manually_vector_aligned
_TEXT	ENDS
; Function compile flags: /Odtp
; File F:\software installation\Visual Studio Installation\VC\Tools\MSVC\14.38.33130\include\xmemory
;	COMDAT ?_Allocate@_Default_allocate_traits@std@@SAPEAX_K@Z
_TEXT	SEGMENT
_Bytes$ = 48
?_Allocate@_Default_allocate_traits@std@@SAPEAX_K@Z PROC ; std::_Default_allocate_traits::_Allocate, COMDAT

; 85   :         void* _Allocate(const size_t _Bytes) {

$LN3:
	mov	QWORD PTR [rsp+8], rcx
	sub	rsp, 40					; 00000028H

; 86   :         return ::operator new(_Bytes);

	mov	rcx, QWORD PTR _Bytes$[rsp]
	call	??2@YAPEAX_K@Z				; operator new

; 87   :     }

	add	rsp, 40					; 00000028H
	ret	0
?_Allocate@_Default_allocate_traits@std@@SAPEAX_K@Z ENDP ; std::_Default_allocate_traits::_Allocate
_TEXT	ENDS
; Function compile flags: /Odtp
; File F:\software installation\Visual Studio Installation\VC\Tools\MSVC\14.38.33130\include\limits
;	COMDAT ?max@?$numeric_limits@_J@std@@SA_JXZ
_TEXT	SEGMENT
?max@?$numeric_limits@_J@std@@SA_JXZ PROC		; std::numeric_limits<__int64>::max, COMDAT

; 636  :         return LLONG_MAX;

	mov	rax, 9223372036854775807		; 7fffffffffffffffH

; 637  :     }

	ret	0
?max@?$numeric_limits@_J@std@@SA_JXZ ENDP		; std::numeric_limits<__int64>::max
_TEXT	ENDS
; Function compile flags: /Odtp
; File F:\software installation\Visual Studio Installation\VC\Tools\MSVC\14.38.33130\include\exception
;	COMDAT ?_Throw_bad_array_new_length@std@@YAXXZ
_TEXT	SEGMENT
$T1 = 32
?_Throw_bad_array_new_length@std@@YAXXZ PROC		; std::_Throw_bad_array_new_length, COMDAT

; 330  : [[noreturn]] inline void _Throw_bad_array_new_length() {

$LN3:
	sub	rsp, 72					; 00000048H

; 331  :     _THROW(bad_array_new_length{});

	lea	rcx, QWORD PTR $T1[rsp]
	call	??0bad_array_new_length@std@@QEAA@XZ	; std::bad_array_new_length::bad_array_new_length
	lea	rdx, OFFSET FLAT:_TI3?AVbad_array_new_length@std@@
	lea	rcx, QWORD PTR $T1[rsp]
	call	_CxxThrowException
$LN2@Throw_bad_:

; 332  : }

	add	rsp, 72					; 00000048H
	ret	0
?_Throw_bad_array_new_length@std@@YAXXZ ENDP		; std::_Throw_bad_array_new_length
_TEXT	ENDS
; Function compile flags: /Odtp
;	COMDAT ??_Gbad_array_new_length@std@@UEAAPEAXI@Z
_TEXT	SEGMENT
this$ = 48
__flags$ = 56
??_Gbad_array_new_length@std@@UEAAPEAXI@Z PROC		; std::bad_array_new_length::`scalar deleting destructor', COMDAT
$LN4:
	mov	DWORD PTR [rsp+16], edx
	mov	QWORD PTR [rsp+8], rcx
	sub	rsp, 40					; 00000028H
	mov	rcx, QWORD PTR this$[rsp]
	call	??1bad_array_new_length@std@@UEAA@XZ
	mov	eax, DWORD PTR __flags$[rsp]
	and	eax, 1
	test	eax, eax
	je	SHORT $LN2@scalar
	mov	edx, 24
	mov	rcx, QWORD PTR this$[rsp]
	call	??3@YAXPEAX_K@Z				; operator delete
$LN2@scalar:
	mov	rax, QWORD PTR this$[rsp]
	add	rsp, 40					; 00000028H
	ret	0
??_Gbad_array_new_length@std@@UEAAPEAXI@Z ENDP		; std::bad_array_new_length::`scalar deleting destructor'
_TEXT	ENDS
; Function compile flags: /Odtp
;	COMDAT ??0bad_array_new_length@std@@QEAA@AEBV01@@Z
_TEXT	SEGMENT
this$ = 48
__that$ = 56
??0bad_array_new_length@std@@QEAA@AEBV01@@Z PROC	; std::bad_array_new_length::bad_array_new_length, COMDAT
$LN3:
	mov	QWORD PTR [rsp+16], rdx
	mov	QWORD PTR [rsp+8], rcx
	sub	rsp, 40					; 00000028H
	mov	rdx, QWORD PTR __that$[rsp]
	mov	rcx, QWORD PTR this$[rsp]
	call	??0bad_alloc@std@@QEAA@AEBV01@@Z
	mov	rax, QWORD PTR this$[rsp]
	lea	rcx, OFFSET FLAT:??_7bad_array_new_length@std@@6B@
	mov	QWORD PTR [rax], rcx
	mov	rax, QWORD PTR this$[rsp]
	add	rsp, 40					; 00000028H
	ret	0
??0bad_array_new_length@std@@QEAA@AEBV01@@Z ENDP	; std::bad_array_new_length::bad_array_new_length
_TEXT	ENDS
; Function compile flags: /Odtp
;	COMDAT ??1bad_array_new_length@std@@UEAA@XZ
_TEXT	SEGMENT
this$ = 48
??1bad_array_new_length@std@@UEAA@XZ PROC		; std::bad_array_new_length::~bad_array_new_length, COMDAT
$LN3:
	mov	QWORD PTR [rsp+8], rcx
	sub	rsp, 40					; 00000028H
	mov	rcx, QWORD PTR this$[rsp]
	call	??1bad_alloc@std@@UEAA@XZ
	add	rsp, 40					; 00000028H
	ret	0
??1bad_array_new_length@std@@UEAA@XZ ENDP		; std::bad_array_new_length::~bad_array_new_length
_TEXT	ENDS
; Function compile flags: /Odtp
; File F:\software installation\Visual Studio Installation\VC\Tools\MSVC\14.38.33130\include\vcruntime_exception.h
;	COMDAT ??0bad_array_new_length@std@@QEAA@XZ
_TEXT	SEGMENT
this$ = 48
??0bad_array_new_length@std@@QEAA@XZ PROC		; std::bad_array_new_length::bad_array_new_length, COMDAT

; 141  :     {

$LN3:
	mov	QWORD PTR [rsp+8], rcx
	sub	rsp, 40					; 00000028H

; 140  :         : bad_alloc("bad array new length")

	lea	rdx, OFFSET FLAT:??_C@_0BF@KINCDENJ@bad?5array?5new?5length@
	mov	rcx, QWORD PTR this$[rsp]
	call	??0bad_alloc@std@@AEAA@QEBD@Z		; std::bad_alloc::bad_alloc

; 141  :     {

	mov	rax, QWORD PTR this$[rsp]
	lea	rcx, OFFSET FLAT:??_7bad_array_new_length@std@@6B@
	mov	QWORD PTR [rax], rcx

; 142  :     }

	mov	rax, QWORD PTR this$[rsp]
	add	rsp, 40					; 00000028H
	ret	0
??0bad_array_new_length@std@@QEAA@XZ ENDP		; std::bad_array_new_length::bad_array_new_length
_TEXT	ENDS
; Function compile flags: /Odtp
;	COMDAT ??_Gbad_alloc@std@@UEAAPEAXI@Z
_TEXT	SEGMENT
this$ = 48
__flags$ = 56
??_Gbad_alloc@std@@UEAAPEAXI@Z PROC			; std::bad_alloc::`scalar deleting destructor', COMDAT
$LN4:
	mov	DWORD PTR [rsp+16], edx
	mov	QWORD PTR [rsp+8], rcx
	sub	rsp, 40					; 00000028H
	mov	rcx, QWORD PTR this$[rsp]
	call	??1bad_alloc@std@@UEAA@XZ
	mov	eax, DWORD PTR __flags$[rsp]
	and	eax, 1
	test	eax, eax
	je	SHORT $LN2@scalar
	mov	edx, 24
	mov	rcx, QWORD PTR this$[rsp]
	call	??3@YAXPEAX_K@Z				; operator delete
$LN2@scalar:
	mov	rax, QWORD PTR this$[rsp]
	add	rsp, 40					; 00000028H
	ret	0
??_Gbad_alloc@std@@UEAAPEAXI@Z ENDP			; std::bad_alloc::`scalar deleting destructor'
_TEXT	ENDS
; Function compile flags: /Odtp
;	COMDAT ??0bad_alloc@std@@QEAA@AEBV01@@Z
_TEXT	SEGMENT
this$ = 48
__that$ = 56
??0bad_alloc@std@@QEAA@AEBV01@@Z PROC			; std::bad_alloc::bad_alloc, COMDAT
$LN3:
	mov	QWORD PTR [rsp+16], rdx
	mov	QWORD PTR [rsp+8], rcx
	sub	rsp, 40					; 00000028H
	mov	rdx, QWORD PTR __that$[rsp]
	mov	rcx, QWORD PTR this$[rsp]
	call	??0exception@std@@QEAA@AEBV01@@Z	; std::exception::exception
	mov	rax, QWORD PTR this$[rsp]
	lea	rcx, OFFSET FLAT:??_7bad_alloc@std@@6B@
	mov	QWORD PTR [rax], rcx
	mov	rax, QWORD PTR this$[rsp]
	add	rsp, 40					; 00000028H
	ret	0
??0bad_alloc@std@@QEAA@AEBV01@@Z ENDP			; std::bad_alloc::bad_alloc
_TEXT	ENDS
; Function compile flags: /Odtp
;	COMDAT ??1bad_alloc@std@@UEAA@XZ
_TEXT	SEGMENT
this$ = 48
??1bad_alloc@std@@UEAA@XZ PROC				; std::bad_alloc::~bad_alloc, COMDAT
$LN3:
	mov	QWORD PTR [rsp+8], rcx
	sub	rsp, 40					; 00000028H
	mov	rcx, QWORD PTR this$[rsp]
	call	??1exception@std@@UEAA@XZ		; std::exception::~exception
	add	rsp, 40					; 00000028H
	ret	0
??1bad_alloc@std@@UEAA@XZ ENDP				; std::bad_alloc::~bad_alloc
_TEXT	ENDS
; Function compile flags: /Odtp
; File F:\software installation\Visual Studio Installation\VC\Tools\MSVC\14.38.33130\include\vcruntime_exception.h
;	COMDAT ??0bad_alloc@std@@AEAA@QEBD@Z
_TEXT	SEGMENT
this$ = 48
_Message$ = 56
??0bad_alloc@std@@AEAA@QEBD@Z PROC			; std::bad_alloc::bad_alloc, COMDAT

; 130  :     {

$LN3:
	mov	QWORD PTR [rsp+16], rdx
	mov	QWORD PTR [rsp+8], rcx
	sub	rsp, 40					; 00000028H

; 129  :         : exception(_Message, 1)

	mov	r8d, 1
	mov	rdx, QWORD PTR _Message$[rsp]
	mov	rcx, QWORD PTR this$[rsp]
	call	??0exception@std@@QEAA@QEBDH@Z		; std::exception::exception

; 130  :     {

	mov	rax, QWORD PTR this$[rsp]
	lea	rcx, OFFSET FLAT:??_7bad_alloc@std@@6B@
	mov	QWORD PTR [rax], rcx

; 131  :     }

	mov	rax, QWORD PTR this$[rsp]
	add	rsp, 40					; 00000028H
	ret	0
??0bad_alloc@std@@AEAA@QEBD@Z ENDP			; std::bad_alloc::bad_alloc
_TEXT	ENDS
; Function compile flags: /Odtp
;	COMDAT ??_Gexception@std@@UEAAPEAXI@Z
_TEXT	SEGMENT
this$ = 48
__flags$ = 56
??_Gexception@std@@UEAAPEAXI@Z PROC			; std::exception::`scalar deleting destructor', COMDAT
$LN4:
	mov	DWORD PTR [rsp+16], edx
	mov	QWORD PTR [rsp+8], rcx
	sub	rsp, 40					; 00000028H
	mov	rcx, QWORD PTR this$[rsp]
	call	??1exception@std@@UEAA@XZ		; std::exception::~exception
	mov	eax, DWORD PTR __flags$[rsp]
	and	eax, 1
	test	eax, eax
	je	SHORT $LN2@scalar
	mov	edx, 24
	mov	rcx, QWORD PTR this$[rsp]
	call	??3@YAXPEAX_K@Z				; operator delete
$LN2@scalar:
	mov	rax, QWORD PTR this$[rsp]
	add	rsp, 40					; 00000028H
	ret	0
??_Gexception@std@@UEAAPEAXI@Z ENDP			; std::exception::`scalar deleting destructor'
_TEXT	ENDS
; Function compile flags: /Odtp
; File F:\software installation\Visual Studio Installation\VC\Tools\MSVC\14.38.33130\include\vcruntime_exception.h
;	COMDAT ?what@exception@std@@UEBAPEBDXZ
_TEXT	SEGMENT
tv69 = 0
this$ = 32
?what@exception@std@@UEBAPEBDXZ PROC			; std::exception::what, COMDAT

; 94   :     {

$LN5:
	mov	QWORD PTR [rsp+8], rcx
	sub	rsp, 24

; 95   :         return _Data._What ? _Data._What : "Unknown exception";

	mov	rax, QWORD PTR this$[rsp]
	cmp	QWORD PTR [rax+8], 0
	je	SHORT $LN3@what
	mov	rax, QWORD PTR this$[rsp]
	mov	rax, QWORD PTR [rax+8]
	mov	QWORD PTR tv69[rsp], rax
	jmp	SHORT $LN4@what
$LN3@what:
	lea	rax, OFFSET FLAT:??_C@_0BC@EOODALEL@Unknown?5exception@
	mov	QWORD PTR tv69[rsp], rax
$LN4@what:
	mov	rax, QWORD PTR tv69[rsp]

; 96   :     }

	add	rsp, 24
	ret	0
?what@exception@std@@UEBAPEBDXZ ENDP			; std::exception::what
_TEXT	ENDS
; Function compile flags: /Odtp
; File F:\software installation\Visual Studio Installation\VC\Tools\MSVC\14.38.33130\include\vcruntime_exception.h
;	COMDAT ??1exception@std@@UEAA@XZ
_TEXT	SEGMENT
this$ = 48
??1exception@std@@UEAA@XZ PROC				; std::exception::~exception, COMDAT

; 89   :     {

$LN3:
	mov	QWORD PTR [rsp+8], rcx
	sub	rsp, 40					; 00000028H
	mov	rax, QWORD PTR this$[rsp]
	lea	rcx, OFFSET FLAT:??_7exception@std@@6B@
	mov	QWORD PTR [rax], rcx

; 90   :         __std_exception_destroy(&_Data);

	mov	rax, QWORD PTR this$[rsp]
	add	rax, 8
	mov	rcx, rax
	call	__std_exception_destroy

; 91   :     }

	add	rsp, 40					; 00000028H
	ret	0
??1exception@std@@UEAA@XZ ENDP				; std::exception::~exception
_TEXT	ENDS
; Function compile flags: /Odtp
; File F:\software installation\Visual Studio Installation\VC\Tools\MSVC\14.38.33130\include\vcruntime_exception.h
;	COMDAT ??0exception@std@@QEAA@AEBV01@@Z
_TEXT	SEGMENT
this$ = 48
_Other$ = 56
??0exception@std@@QEAA@AEBV01@@Z PROC			; std::exception::exception, COMDAT

; 72   :     {

$LN3:
	mov	QWORD PTR [rsp+16], rdx
	mov	QWORD PTR [rsp+8], rcx
	push	rdi
	sub	rsp, 32					; 00000020H
	mov	rax, QWORD PTR this$[rsp]
	lea	rcx, OFFSET FLAT:??_7exception@std@@6B@
	mov	QWORD PTR [rax], rcx

; 71   :         : _Data()

	mov	rax, QWORD PTR this$[rsp]
	add	rax, 8
	mov	rdi, rax
	xor	eax, eax
	mov	ecx, 16
	rep stosb

; 73   :         __std_exception_copy(&_Other._Data, &_Data);

	mov	rax, QWORD PTR this$[rsp]
	add	rax, 8
	mov	rcx, QWORD PTR _Other$[rsp]
	add	rcx, 8
	mov	rdx, rax
	call	__std_exception_copy

; 74   :     }

	mov	rax, QWORD PTR this$[rsp]
	add	rsp, 32					; 00000020H
	pop	rdi
	ret	0
??0exception@std@@QEAA@AEBV01@@Z ENDP			; std::exception::exception
_TEXT	ENDS
; Function compile flags: /Odtp
; File F:\software installation\Visual Studio Installation\VC\Tools\MSVC\14.38.33130\include\vcruntime_exception.h
;	COMDAT ??0exception@std@@QEAA@QEBDH@Z
_TEXT	SEGMENT
this$ = 16
_Message$ = 24
__formal$ = 32
??0exception@std@@QEAA@QEBDH@Z PROC			; std::exception::exception, COMDAT

; 66   :     {

$LN3:
	mov	DWORD PTR [rsp+24], r8d
	mov	QWORD PTR [rsp+16], rdx
	mov	QWORD PTR [rsp+8], rcx
	push	rdi
	mov	rax, QWORD PTR this$[rsp]
	lea	rcx, OFFSET FLAT:??_7exception@std@@6B@
	mov	QWORD PTR [rax], rcx

; 65   :         : _Data()

	mov	rax, QWORD PTR this$[rsp]
	add	rax, 8
	mov	rdi, rax
	xor	eax, eax
	mov	ecx, 16
	rep stosb

; 67   :         _Data._What = _Message;

	mov	rax, QWORD PTR this$[rsp]
	mov	rcx, QWORD PTR _Message$[rsp]
	mov	QWORD PTR [rax+8], rcx

; 68   :     }

	mov	rax, QWORD PTR this$[rsp]
	pop	rdi
	ret	0
??0exception@std@@QEAA@QEBDH@Z ENDP			; std::exception::exception
_TEXT	ENDS
; Function compile flags: /Odtp
; File F:\software installation\Visual Studio Installation\VC\Tools\MSVC\14.38.33130\include\vcruntime_exception.h
;	COMDAT ??0exception@std@@QEAA@QEBD@Z
_TEXT	SEGMENT
_InitData$ = 32
this$ = 64
_Message$ = 72
??0exception@std@@QEAA@QEBD@Z PROC			; std::exception::exception, COMDAT

; 59   :     {

$LN3:
	mov	QWORD PTR [rsp+16], rdx
	mov	QWORD PTR [rsp+8], rcx
	push	rdi
	sub	rsp, 48					; 00000030H
	mov	rax, QWORD PTR this$[rsp]
	lea	rcx, OFFSET FLAT:??_7exception@std@@6B@
	mov	QWORD PTR [rax], rcx

; 58   :         : _Data()

	mov	rax, QWORD PTR this$[rsp]
	add	rax, 8
	mov	rdi, rax
	xor	eax, eax
	mov	ecx, 16
	rep stosb

; 60   :         __std_exception_data _InitData = { _Message, true };

	mov	rax, QWORD PTR _Message$[rsp]
	mov	QWORD PTR _InitData$[rsp], rax
	mov	BYTE PTR _InitData$[rsp+8], 1

; 61   :         __std_exception_copy(&_InitData, &_Data);

	mov	rax, QWORD PTR this$[rsp]
	add	rax, 8
	mov	rdx, rax
	lea	rcx, QWORD PTR _InitData$[rsp]
	call	__std_exception_copy

; 62   :     }

	mov	rax, QWORD PTR this$[rsp]
	add	rsp, 48					; 00000030H
	pop	rdi
	ret	0
??0exception@std@@QEAA@QEBD@Z ENDP			; std::exception::exception
_TEXT	ENDS
; Function compile flags: /Odtp
; File F:\software installation\Visual Studio Installation\VC\Tools\MSVC\14.38.33130\include\vcruntime_new.h
;	COMDAT ??2@YAPEAX_KPEAX@Z
_TEXT	SEGMENT
_Size$ = 8
_Where$ = 16
??2@YAPEAX_KPEAX@Z PROC					; operator new, COMDAT

; 168  :     {

	mov	QWORD PTR [rsp+16], rdx
	mov	QWORD PTR [rsp+8], rcx

; 169  :         (void)_Size;
; 170  :         return _Where;

	mov	rax, QWORD PTR _Where$[rsp]

; 171  :     }

	ret	0
??2@YAPEAX_KPEAX@Z ENDP					; operator new
_TEXT	ENDS
END
